ARM GAS  C:\Users\andywei\AppData\Local\Temp\ccqkqfte.s 			page 1


   1              		.cpu cortex-m4
   2              		.eabi_attribute 27, 1
   3              		.eabi_attribute 28, 1
   4              		.eabi_attribute 20, 1
   5              		.eabi_attribute 21, 1
   6              		.eabi_attribute 23, 3
   7              		.eabi_attribute 24, 1
   8              		.eabi_attribute 25, 1
   9              		.eabi_attribute 26, 1
  10              		.eabi_attribute 30, 1
  11              		.eabi_attribute 34, 1
  12              		.eabi_attribute 18, 4
  13              		.file	"gpio.c"
  14              		.text
  15              	.Ltext0:
  16              		.cfi_sections	.debug_frame
  17              		.section	.text.GpioInit,"ax",%progbits
  18              		.align	1
  19              		.global	GpioInit
  20              		.arch armv7e-m
  21              		.syntax unified
  22              		.thumb
  23              		.thumb_func
  24              		.fpu fpv4-sp-d16
  26              	GpioInit:
  27              	.LVL0:
  28              	.LFB135:
  29              		.file 1 "Core/Src/system/gpio.c"
   1:Core/Src/system/gpio.c **** /*
   2:Core/Src/system/gpio.c ****  / _____)             _              | |
   3:Core/Src/system/gpio.c **** ( (____  _____ ____ _| |_ _____  ____| |__
   4:Core/Src/system/gpio.c ****  \____ \| ___ |    (_   _) ___ |/ ___)  _ \
   5:Core/Src/system/gpio.c ****  _____) ) ____| | | || |_| ____( (___| | | |
   6:Core/Src/system/gpio.c **** (______/|_____)_|_|_| \__)_____)\____)_| |_|
   7:Core/Src/system/gpio.c ****     (C)2013 Semtech
   8:Core/Src/system/gpio.c **** 
   9:Core/Src/system/gpio.c **** Description: Generic GPIO driver implementation
  10:Core/Src/system/gpio.c **** 
  11:Core/Src/system/gpio.c **** Comment: Relies on the specific board GPIO implementation as well as on
  12:Core/Src/system/gpio.c ****          IO expander driver implementation if one is available on the target
  13:Core/Src/system/gpio.c ****          board.
  14:Core/Src/system/gpio.c **** 
  15:Core/Src/system/gpio.c **** License: Revised BSD License, see LICENSE.TXT file include in the project
  16:Core/Src/system/gpio.c **** 
  17:Core/Src/system/gpio.c **** Maintainer: Miguel Luis and Gregory Cristian
  18:Core/Src/system/gpio.c **** */
  19:Core/Src/system/gpio.c **** #include "board.h"
  20:Core/Src/system/gpio.c **** 
  21:Core/Src/system/gpio.c **** #include "gpio-board.h"
  22:Core/Src/system/gpio.c **** 
  23:Core/Src/system/gpio.c **** #if defined( BOARD_IOE_EXT )
  24:Core/Src/system/gpio.c **** #include "gpio-ioe.h"
  25:Core/Src/system/gpio.c **** #endif
  26:Core/Src/system/gpio.c **** 
  27:Core/Src/system/gpio.c **** void GpioInit( Gpio_t *obj, PinNames pin, PinModes mode,  PinConfigs config, PinTypes type, uint32_
  28:Core/Src/system/gpio.c **** {
  30              		.loc 1 28 1 view -0
ARM GAS  C:\Users\andywei\AppData\Local\Temp\ccqkqfte.s 			page 2


  31              		.cfi_startproc
  32              		@ args = 8, pretend = 0, frame = 0
  33              		@ frame_needed = 0, uses_anonymous_args = 0
  29:Core/Src/system/gpio.c ****     if( ( uint32_t )( pin >> 4 ) <= 6 )
  34              		.loc 1 29 5 view .LVU1
  35              		.loc 1 29 34 is_stmt 0 view .LVU2
  36 0000 C1F3071C 		ubfx	ip, r1, #4, #8
  37              		.loc 1 29 7 view .LVU3
  38 0004 BCF1060F 		cmp	ip, #6
  39 0008 00D9     		bls	.L7
  40 000a 7047     		bx	lr
  41              	.L7:
  28:Core/Src/system/gpio.c ****     if( ( uint32_t )( pin >> 4 ) <= 6 )
  42              		.loc 1 28 1 view .LVU4
  43 000c 10B5     		push	{r4, lr}
  44              	.LCFI0:
  45              		.cfi_def_cfa_offset 8
  46              		.cfi_offset 4, -8
  47              		.cfi_offset 14, -4
  48 000e 82B0     		sub	sp, sp, #8
  49              	.LCFI1:
  50              		.cfi_def_cfa_offset 16
  30:Core/Src/system/gpio.c ****     {
  31:Core/Src/system/gpio.c ****         GpioMcuInit( obj, pin, mode, config, type, value );
  51              		.loc 1 31 9 is_stmt 1 view .LVU5
  52 0010 059C     		ldr	r4, [sp, #20]
  53 0012 0194     		str	r4, [sp, #4]
  54 0014 9DF81040 		ldrb	r4, [sp, #16]	@ zero_extendqisi2
  55 0018 0094     		str	r4, [sp]
  56 001a FFF7FEFF 		bl	GpioMcuInit
  57              	.LVL1:
  32:Core/Src/system/gpio.c ****     }
  33:Core/Src/system/gpio.c ****     else
  34:Core/Src/system/gpio.c ****     {
  35:Core/Src/system/gpio.c **** #if defined( BOARD_IOE_EXT )
  36:Core/Src/system/gpio.c ****         // IOExt Pin
  37:Core/Src/system/gpio.c ****         GpioIoeInit( obj, pin, mode, config, type, value );
  38:Core/Src/system/gpio.c **** #endif
  39:Core/Src/system/gpio.c ****     }
  58              		.loc 1 39 5 view .LVU6
  40:Core/Src/system/gpio.c **** }
  59              		.loc 1 40 1 is_stmt 0 view .LVU7
  60 001e 02B0     		add	sp, sp, #8
  61              	.LCFI2:
  62              		.cfi_def_cfa_offset 8
  63              		@ sp needed
  64 0020 10BD     		pop	{r4, pc}
  65              		.loc 1 40 1 view .LVU8
  66              		.cfi_endproc
  67              	.LFE135:
  69              		.section	.text.GpioSetInterrupt,"ax",%progbits
  70              		.align	1
  71              		.global	GpioSetInterrupt
  72              		.syntax unified
  73              		.thumb
  74              		.thumb_func
  75              		.fpu fpv4-sp-d16
ARM GAS  C:\Users\andywei\AppData\Local\Temp\ccqkqfte.s 			page 3


  77              	GpioSetInterrupt:
  78              	.LVL2:
  79              	.LFB136:
  41:Core/Src/system/gpio.c **** 
  42:Core/Src/system/gpio.c **** void GpioSetInterrupt( Gpio_t *obj, IrqModes irqMode, IrqPriorities irqPriority, GpioIrqHandler *ir
  43:Core/Src/system/gpio.c **** {
  80              		.loc 1 43 1 is_stmt 1 view -0
  81              		.cfi_startproc
  82              		@ args = 0, pretend = 0, frame = 0
  83              		@ frame_needed = 0, uses_anonymous_args = 0
  44:Core/Src/system/gpio.c ****     if( ( uint32_t )( obj->pin >> 4 ) <= 6 )
  84              		.loc 1 44 5 view .LVU10
  85              		.loc 1 44 26 is_stmt 0 view .LVU11
  86 0000 90F900C0 		ldrsb	ip, [r0]
  87              		.loc 1 44 39 view .LVU12
  88 0004 CCF3071C 		ubfx	ip, ip, #4, #8
  89              		.loc 1 44 7 view .LVU13
  90 0008 BCF1060F 		cmp	ip, #6
  91 000c 00D9     		bls	.L14
  92 000e 7047     		bx	lr
  93              	.L14:
  43:Core/Src/system/gpio.c ****     if( ( uint32_t )( obj->pin >> 4 ) <= 6 )
  94              		.loc 1 43 1 view .LVU14
  95 0010 08B5     		push	{r3, lr}
  96              	.LCFI3:
  97              		.cfi_def_cfa_offset 8
  98              		.cfi_offset 3, -8
  99              		.cfi_offset 14, -4
  45:Core/Src/system/gpio.c ****     {
  46:Core/Src/system/gpio.c ****         GpioMcuSetInterrupt( obj, irqMode, irqPriority, irqHandler );
 100              		.loc 1 46 9 is_stmt 1 view .LVU15
 101 0012 FFF7FEFF 		bl	GpioMcuSetInterrupt
 102              	.LVL3:
  47:Core/Src/system/gpio.c ****     }
  48:Core/Src/system/gpio.c ****     else
  49:Core/Src/system/gpio.c ****     {
  50:Core/Src/system/gpio.c **** #if defined( BOARD_IOE_EXT )
  51:Core/Src/system/gpio.c ****         // IOExt Pin
  52:Core/Src/system/gpio.c ****         GpioIoeSetInterrupt( obj, irqMode, irqPriority, irqHandler );
  53:Core/Src/system/gpio.c **** #endif
  54:Core/Src/system/gpio.c ****     }
 103              		.loc 1 54 5 view .LVU16
  55:Core/Src/system/gpio.c **** }
 104              		.loc 1 55 1 is_stmt 0 view .LVU17
 105 0016 08BD     		pop	{r3, pc}
 106              		.cfi_endproc
 107              	.LFE136:
 109              		.section	.text.GpioRemoveInterrupt,"ax",%progbits
 110              		.align	1
 111              		.global	GpioRemoveInterrupt
 112              		.syntax unified
 113              		.thumb
 114              		.thumb_func
 115              		.fpu fpv4-sp-d16
 117              	GpioRemoveInterrupt:
 118              	.LVL4:
 119              	.LFB137:
ARM GAS  C:\Users\andywei\AppData\Local\Temp\ccqkqfte.s 			page 4


  56:Core/Src/system/gpio.c **** 
  57:Core/Src/system/gpio.c **** void GpioRemoveInterrupt( Gpio_t *obj )
  58:Core/Src/system/gpio.c **** {
 120              		.loc 1 58 1 is_stmt 1 view -0
 121              		.cfi_startproc
 122              		@ args = 0, pretend = 0, frame = 0
 123              		@ frame_needed = 0, uses_anonymous_args = 0
 124              		@ link register save eliminated.
  59:Core/Src/system/gpio.c ****     if( ( uint32_t )( obj->pin >> 4 ) <= 6 )
 125              		.loc 1 59 5 view .LVU19
  60:Core/Src/system/gpio.c ****     {
  61:Core/Src/system/gpio.c ****         //GpioMcuRemoveInterrupt( obj );
  62:Core/Src/system/gpio.c ****     }
  63:Core/Src/system/gpio.c ****     else
  64:Core/Src/system/gpio.c ****     {
  65:Core/Src/system/gpio.c **** #if defined( BOARD_IOE_EXT )
  66:Core/Src/system/gpio.c ****         // IOExt Pin
  67:Core/Src/system/gpio.c ****         //GpioIoeRemoveInterrupt( obj );
  68:Core/Src/system/gpio.c **** #endif
  69:Core/Src/system/gpio.c ****     }
 126              		.loc 1 69 5 view .LVU20
  70:Core/Src/system/gpio.c **** }
 127              		.loc 1 70 1 is_stmt 0 view .LVU21
 128 0000 7047     		bx	lr
 129              		.cfi_endproc
 130              	.LFE137:
 132              		.section	.text.GpioWrite,"ax",%progbits
 133              		.align	1
 134              		.global	GpioWrite
 135              		.syntax unified
 136              		.thumb
 137              		.thumb_func
 138              		.fpu fpv4-sp-d16
 140              	GpioWrite:
 141              	.LVL5:
 142              	.LFB138:
  71:Core/Src/system/gpio.c **** 
  72:Core/Src/system/gpio.c **** void GpioWrite( Gpio_t *obj, uint32_t value )
  73:Core/Src/system/gpio.c **** {
 143              		.loc 1 73 1 is_stmt 1 view -0
 144              		.cfi_startproc
 145              		@ args = 0, pretend = 0, frame = 0
 146              		@ frame_needed = 0, uses_anonymous_args = 0
 147              		.loc 1 73 1 is_stmt 0 view .LVU23
 148 0000 08B5     		push	{r3, lr}
 149              	.LCFI4:
 150              		.cfi_def_cfa_offset 8
 151              		.cfi_offset 3, -8
 152              		.cfi_offset 14, -4
  74:Core/Src/system/gpio.c ****     if( ( uint32_t )( obj->pin >> 4 ) <= 6 )
 153              		.loc 1 74 5 is_stmt 1 view .LVU24
 154              		.loc 1 74 26 is_stmt 0 view .LVU25
 155 0002 90F90030 		ldrsb	r3, [r0]
 156              		.loc 1 74 39 view .LVU26
 157 0006 C3F30713 		ubfx	r3, r3, #4, #8
 158              		.loc 1 74 7 view .LVU27
 159 000a 062B     		cmp	r3, #6
ARM GAS  C:\Users\andywei\AppData\Local\Temp\ccqkqfte.s 			page 5


 160 000c 00D9     		bls	.L19
 161              	.LVL6:
 162              	.L16:
  75:Core/Src/system/gpio.c ****     {
  76:Core/Src/system/gpio.c ****         GpioMcuWrite( obj, value );
  77:Core/Src/system/gpio.c ****     }
  78:Core/Src/system/gpio.c ****     else
  79:Core/Src/system/gpio.c ****     {
  80:Core/Src/system/gpio.c **** #if defined( BOARD_IOE_EXT )
  81:Core/Src/system/gpio.c ****         // IOExt Pin
  82:Core/Src/system/gpio.c ****         GpioIoeWrite( obj, value );
  83:Core/Src/system/gpio.c **** #endif
  84:Core/Src/system/gpio.c ****     }
  85:Core/Src/system/gpio.c **** }
 163              		.loc 1 85 1 view .LVU28
 164 000e 08BD     		pop	{r3, pc}
 165              	.LVL7:
 166              	.L19:
  76:Core/Src/system/gpio.c ****     }
 167              		.loc 1 76 9 is_stmt 1 view .LVU29
 168 0010 FFF7FEFF 		bl	GpioMcuWrite
 169              	.LVL8:
  84:Core/Src/system/gpio.c **** }
 170              		.loc 1 84 5 view .LVU30
 171              		.loc 1 85 1 is_stmt 0 view .LVU31
 172 0014 FBE7     		b	.L16
 173              		.cfi_endproc
 174              	.LFE138:
 176              		.section	.text.GpioToggle,"ax",%progbits
 177              		.align	1
 178              		.global	GpioToggle
 179              		.syntax unified
 180              		.thumb
 181              		.thumb_func
 182              		.fpu fpv4-sp-d16
 184              	GpioToggle:
 185              	.LVL9:
 186              	.LFB139:
  86:Core/Src/system/gpio.c **** 
  87:Core/Src/system/gpio.c **** void GpioToggle( Gpio_t *obj )
  88:Core/Src/system/gpio.c **** {
 187              		.loc 1 88 1 is_stmt 1 view -0
 188              		.cfi_startproc
 189              		@ args = 0, pretend = 0, frame = 0
 190              		@ frame_needed = 0, uses_anonymous_args = 0
 191              		.loc 1 88 1 is_stmt 0 view .LVU33
 192 0000 08B5     		push	{r3, lr}
 193              	.LCFI5:
 194              		.cfi_def_cfa_offset 8
 195              		.cfi_offset 3, -8
 196              		.cfi_offset 14, -4
  89:Core/Src/system/gpio.c ****     if( ( uint32_t )( obj->pin >> 4 ) <= 6 )
 197              		.loc 1 89 5 is_stmt 1 view .LVU34
 198              		.loc 1 89 26 is_stmt 0 view .LVU35
 199 0002 90F90030 		ldrsb	r3, [r0]
 200              		.loc 1 89 39 view .LVU36
 201 0006 C3F30713 		ubfx	r3, r3, #4, #8
ARM GAS  C:\Users\andywei\AppData\Local\Temp\ccqkqfte.s 			page 6


 202              		.loc 1 89 7 view .LVU37
 203 000a 062B     		cmp	r3, #6
 204 000c 00D9     		bls	.L23
 205              	.LVL10:
 206              	.L20:
  90:Core/Src/system/gpio.c ****     {
  91:Core/Src/system/gpio.c ****         GpioMcuToggle( obj );
  92:Core/Src/system/gpio.c ****     }
  93:Core/Src/system/gpio.c ****     else
  94:Core/Src/system/gpio.c ****     {
  95:Core/Src/system/gpio.c **** #if defined( BOARD_IOE_EXT )
  96:Core/Src/system/gpio.c ****         // IOExt Pin
  97:Core/Src/system/gpio.c ****         GpioIoeWrite( obj, GpioIoeRead( obj ) ^ 1 );
  98:Core/Src/system/gpio.c **** #endif
  99:Core/Src/system/gpio.c ****     }
 100:Core/Src/system/gpio.c **** }
 207              		.loc 1 100 1 view .LVU38
 208 000e 08BD     		pop	{r3, pc}
 209              	.LVL11:
 210              	.L23:
  91:Core/Src/system/gpio.c ****     }
 211              		.loc 1 91 9 is_stmt 1 view .LVU39
 212 0010 FFF7FEFF 		bl	GpioMcuToggle
 213              	.LVL12:
  99:Core/Src/system/gpio.c **** }
 214              		.loc 1 99 5 view .LVU40
 215              		.loc 1 100 1 is_stmt 0 view .LVU41
 216 0014 FBE7     		b	.L20
 217              		.cfi_endproc
 218              	.LFE139:
 220              		.section	.text.GpioRead,"ax",%progbits
 221              		.align	1
 222              		.global	GpioRead
 223              		.syntax unified
 224              		.thumb
 225              		.thumb_func
 226              		.fpu fpv4-sp-d16
 228              	GpioRead:
 229              	.LVL13:
 230              	.LFB140:
 101:Core/Src/system/gpio.c **** 
 102:Core/Src/system/gpio.c **** uint32_t GpioRead( Gpio_t *obj )
 103:Core/Src/system/gpio.c **** {
 231              		.loc 1 103 1 is_stmt 1 view -0
 232              		.cfi_startproc
 233              		@ args = 0, pretend = 0, frame = 0
 234              		@ frame_needed = 0, uses_anonymous_args = 0
 235              		.loc 1 103 1 is_stmt 0 view .LVU43
 236 0000 08B5     		push	{r3, lr}
 237              	.LCFI6:
 238              		.cfi_def_cfa_offset 8
 239              		.cfi_offset 3, -8
 240              		.cfi_offset 14, -4
 104:Core/Src/system/gpio.c ****     if( ( uint32_t )( obj->pin >> 4 ) <= 6 )
 241              		.loc 1 104 5 is_stmt 1 view .LVU44
 242              		.loc 1 104 26 is_stmt 0 view .LVU45
 243 0002 90F90030 		ldrsb	r3, [r0]
ARM GAS  C:\Users\andywei\AppData\Local\Temp\ccqkqfte.s 			page 7


 244              		.loc 1 104 39 view .LVU46
 245 0006 C3F30713 		ubfx	r3, r3, #4, #8
 246              		.loc 1 104 7 view .LVU47
 247 000a 062B     		cmp	r3, #6
 248 000c 01D9     		bls	.L28
 105:Core/Src/system/gpio.c ****     {
 106:Core/Src/system/gpio.c ****         return GpioMcuRead( obj );
 107:Core/Src/system/gpio.c ****     }
 108:Core/Src/system/gpio.c ****     else
 109:Core/Src/system/gpio.c ****     {
 110:Core/Src/system/gpio.c **** #if defined( BOARD_IOE_EXT )
 111:Core/Src/system/gpio.c ****         // IOExt Pin
 112:Core/Src/system/gpio.c ****         return GpioIoeRead( obj );
 113:Core/Src/system/gpio.c **** #else
 114:Core/Src/system/gpio.c ****         return 0;
 249              		.loc 1 114 16 view .LVU48
 250 000e 0020     		movs	r0, #0
 251              	.LVL14:
 252              	.L24:
 115:Core/Src/system/gpio.c **** #endif
 116:Core/Src/system/gpio.c ****     }
 117:Core/Src/system/gpio.c **** }
 253              		.loc 1 117 1 view .LVU49
 254 0010 08BD     		pop	{r3, pc}
 255              	.LVL15:
 256              	.L28:
 106:Core/Src/system/gpio.c ****     }
 257              		.loc 1 106 9 is_stmt 1 view .LVU50
 106:Core/Src/system/gpio.c ****     }
 258              		.loc 1 106 16 is_stmt 0 view .LVU51
 259 0012 FFF7FEFF 		bl	GpioMcuRead
 260              	.LVL16:
 106:Core/Src/system/gpio.c ****     }
 261              		.loc 1 106 16 view .LVU52
 262 0016 FBE7     		b	.L24
 263              		.cfi_endproc
 264              	.LFE140:
 266              		.text
 267              	.Letext0:
 268              		.file 2 "c:\\program files (x86)\\gnu arm embedded toolchain\\10 2020-q4-major\\arm-none-eabi\\inc
 269              		.file 3 "c:\\program files (x86)\\gnu arm embedded toolchain\\10 2020-q4-major\\arm-none-eabi\\inc
 270              		.file 4 "Core/Src/system/gpio.h"
 271              		.file 5 "Core/Src/boards/NucleoL476/gpio-board.h"
ARM GAS  C:\Users\andywei\AppData\Local\Temp\ccqkqfte.s 			page 8

