ARM GAS  C:\Users\andywei\AppData\Local\Temp\cccFfT7V.s 			page 1


   1              		.cpu cortex-m4
   2              		.eabi_attribute 27, 1
   3              		.eabi_attribute 28, 1
   4              		.eabi_attribute 20, 1
   5              		.eabi_attribute 21, 1
   6              		.eabi_attribute 23, 3
   7              		.eabi_attribute 24, 1
   8              		.eabi_attribute 25, 1
   9              		.eabi_attribute 26, 1
  10              		.eabi_attribute 30, 1
  11              		.eabi_attribute 34, 1
  12              		.eabi_attribute 18, 4
  13              		.file	"radio.c"
  14              		.text
  15              	.Ltext0:
  16              		.cfi_sections	.debug_frame
  17              		.section	.text.RadioGetFskBandwidthRegValue,"ax",%progbits
  18              		.align	1
  19              		.arch armv7e-m
  20              		.syntax unified
  21              		.thumb
  22              		.thumb_func
  23              		.fpu fpv4-sp-d16
  25              	RadioGetFskBandwidthRegValue:
  26              	.LVL0:
  27              	.LFB135:
  28              		.file 1 "Core/Src/radio/sx126x/radio.c"
   1:Core/Src/radio/sx126x/radio.c **** /*!
   2:Core/Src/radio/sx126x/radio.c ****  * \file      radio.c
   3:Core/Src/radio/sx126x/radio.c ****  *
   4:Core/Src/radio/sx126x/radio.c ****  * \brief     Radio driver API definition
   5:Core/Src/radio/sx126x/radio.c ****  *
   6:Core/Src/radio/sx126x/radio.c ****  * \copyright Revised BSD License, see section \ref LICENSE.
   7:Core/Src/radio/sx126x/radio.c ****  *
   8:Core/Src/radio/sx126x/radio.c ****  * \code
   9:Core/Src/radio/sx126x/radio.c ****  *                ______                              _
  10:Core/Src/radio/sx126x/radio.c ****  *               / _____)             _              | |
  11:Core/Src/radio/sx126x/radio.c ****  *              ( (____  _____ ____ _| |_ _____  ____| |__
  12:Core/Src/radio/sx126x/radio.c ****  *               \____ \| ___ |    (_   _) ___ |/ ___)  _ \
  13:Core/Src/radio/sx126x/radio.c ****  *               _____) ) ____| | | || |_| ____( (___| | | |
  14:Core/Src/radio/sx126x/radio.c ****  *              (______/|_____)_|_|_| \__)_____)\____)_| |_|
  15:Core/Src/radio/sx126x/radio.c ****  *              (C)2013-2017 Semtech
  16:Core/Src/radio/sx126x/radio.c ****  *
  17:Core/Src/radio/sx126x/radio.c ****  * \endcode
  18:Core/Src/radio/sx126x/radio.c ****  *
  19:Core/Src/radio/sx126x/radio.c ****  * \author    Miguel Luis ( Semtech )
  20:Core/Src/radio/sx126x/radio.c ****  *
  21:Core/Src/radio/sx126x/radio.c ****  * \author    Gregory Cristian ( Semtech )
  22:Core/Src/radio/sx126x/radio.c ****  */
  23:Core/Src/radio/sx126x/radio.c **** #include <math.h>
  24:Core/Src/radio/sx126x/radio.c **** #include <string.h>
  25:Core/Src/radio/sx126x/radio.c **** #include "board.h"
  26:Core/Src/radio/sx126x/radio.c **** #include "radio.h"
  27:Core/Src/radio/sx126x/radio.c **** #include "sx126x.h"
  28:Core/Src/radio/sx126x/radio.c **** #include "sx126x-board.h"
  29:Core/Src/radio/sx126x/radio.c **** 
  30:Core/Src/radio/sx126x/radio.c **** /*!
ARM GAS  C:\Users\andywei\AppData\Local\Temp\cccFfT7V.s 			page 2


  31:Core/Src/radio/sx126x/radio.c ****  * \brief Initializes the radio
  32:Core/Src/radio/sx126x/radio.c ****  *
  33:Core/Src/radio/sx126x/radio.c ****  * \param [IN] events Structure containing the driver callback functions
  34:Core/Src/radio/sx126x/radio.c ****  */
  35:Core/Src/radio/sx126x/radio.c **** void RadioInit( RadioEvents_t *events );
  36:Core/Src/radio/sx126x/radio.c **** 
  37:Core/Src/radio/sx126x/radio.c **** /*!
  38:Core/Src/radio/sx126x/radio.c ****  * Return current radio status
  39:Core/Src/radio/sx126x/radio.c ****  *
  40:Core/Src/radio/sx126x/radio.c ****  * \param status Radio status.[RF_IDLE, RF_RX_RUNNING, RF_TX_RUNNING]
  41:Core/Src/radio/sx126x/radio.c ****  */
  42:Core/Src/radio/sx126x/radio.c **** RadioState_t RadioGetStatus( void );
  43:Core/Src/radio/sx126x/radio.c **** 
  44:Core/Src/radio/sx126x/radio.c **** /*!
  45:Core/Src/radio/sx126x/radio.c ****  * \brief Configures the radio with the given modem
  46:Core/Src/radio/sx126x/radio.c ****  *
  47:Core/Src/radio/sx126x/radio.c ****  * \param [IN] modem Modem to be used [0: FSK, 1: LoRa]
  48:Core/Src/radio/sx126x/radio.c ****  */
  49:Core/Src/radio/sx126x/radio.c **** void RadioSetModem( RadioModems_t modem );
  50:Core/Src/radio/sx126x/radio.c **** 
  51:Core/Src/radio/sx126x/radio.c **** /*!
  52:Core/Src/radio/sx126x/radio.c ****  * \brief Sets the channel frequency
  53:Core/Src/radio/sx126x/radio.c ****  *
  54:Core/Src/radio/sx126x/radio.c ****  * \param [IN] freq         Channel RF frequency
  55:Core/Src/radio/sx126x/radio.c ****  */
  56:Core/Src/radio/sx126x/radio.c **** void RadioSetChannel( uint32_t freq );
  57:Core/Src/radio/sx126x/radio.c **** 
  58:Core/Src/radio/sx126x/radio.c **** /*!
  59:Core/Src/radio/sx126x/radio.c ****  * \brief Checks if the channel is free for the given time
  60:Core/Src/radio/sx126x/radio.c ****  *
  61:Core/Src/radio/sx126x/radio.c ****  * \param [IN] modem      Radio modem to be used [0: FSK, 1: LoRa]
  62:Core/Src/radio/sx126x/radio.c ****  * \param [IN] freq       Channel RF frequency
  63:Core/Src/radio/sx126x/radio.c ****  * \param [IN] rssiThresh RSSI threshold
  64:Core/Src/radio/sx126x/radio.c ****  * \param [IN] maxCarrierSenseTime Max time while the RSSI is measured
  65:Core/Src/radio/sx126x/radio.c ****  *
  66:Core/Src/radio/sx126x/radio.c ****  * \retval isFree         [true: Channel is free, false: Channel is not free]
  67:Core/Src/radio/sx126x/radio.c ****  */
  68:Core/Src/radio/sx126x/radio.c **** bool RadioIsChannelFree( RadioModems_t modem, uint32_t freq, int16_t rssiThresh, uint32_t maxCarrie
  69:Core/Src/radio/sx126x/radio.c **** 
  70:Core/Src/radio/sx126x/radio.c **** /*!
  71:Core/Src/radio/sx126x/radio.c ****  * \brief Generates a 32 bits random value based on the RSSI readings
  72:Core/Src/radio/sx126x/radio.c ****  *
  73:Core/Src/radio/sx126x/radio.c ****  * \remark This function sets the radio in LoRa modem mode and disables
  74:Core/Src/radio/sx126x/radio.c ****  *         all interrupts.
  75:Core/Src/radio/sx126x/radio.c ****  *         After calling this function either Radio.SetRxConfig or
  76:Core/Src/radio/sx126x/radio.c ****  *         Radio.SetTxConfig functions must be called.
  77:Core/Src/radio/sx126x/radio.c ****  *
  78:Core/Src/radio/sx126x/radio.c ****  * \retval randomValue    32 bits random value
  79:Core/Src/radio/sx126x/radio.c ****  */
  80:Core/Src/radio/sx126x/radio.c **** uint32_t RadioRandom( void );
  81:Core/Src/radio/sx126x/radio.c **** 
  82:Core/Src/radio/sx126x/radio.c **** /*!
  83:Core/Src/radio/sx126x/radio.c ****  * \brief Sets the reception parameters
  84:Core/Src/radio/sx126x/radio.c ****  *
  85:Core/Src/radio/sx126x/radio.c ****  * \param [IN] modem        Radio modem to be used [0: FSK, 1: LoRa]
  86:Core/Src/radio/sx126x/radio.c ****  * \param [IN] bandwidth    Sets the bandwidth
  87:Core/Src/radio/sx126x/radio.c ****  *                          FSK : >= 2600 and <= 250000 Hz
ARM GAS  C:\Users\andywei\AppData\Local\Temp\cccFfT7V.s 			page 3


  88:Core/Src/radio/sx126x/radio.c ****  *                          LoRa: [0: 125 kHz, 1: 250 kHz,
  89:Core/Src/radio/sx126x/radio.c ****  *                                 2: 500 kHz, 3: Reserved]
  90:Core/Src/radio/sx126x/radio.c ****  * \param [IN] datarate     Sets the Datarate
  91:Core/Src/radio/sx126x/radio.c ****  *                          FSK : 600..300000 bits/s
  92:Core/Src/radio/sx126x/radio.c ****  *                          LoRa: [6: 64, 7: 128, 8: 256, 9: 512,
  93:Core/Src/radio/sx126x/radio.c ****  *                                10: 1024, 11: 2048, 12: 4096  chips]
  94:Core/Src/radio/sx126x/radio.c ****  * \param [IN] coderate     Sets the coding rate (LoRa only)
  95:Core/Src/radio/sx126x/radio.c ****  *                          FSK : N/A ( set to 0 )
  96:Core/Src/radio/sx126x/radio.c ****  *                          LoRa: [1: 4/5, 2: 4/6, 3: 4/7, 4: 4/8]
  97:Core/Src/radio/sx126x/radio.c ****  * \param [IN] bandwidthAfc Sets the AFC Bandwidth (FSK only)
  98:Core/Src/radio/sx126x/radio.c ****  *                          FSK : >= 2600 and <= 250000 Hz
  99:Core/Src/radio/sx126x/radio.c ****  *                          LoRa: N/A ( set to 0 )
 100:Core/Src/radio/sx126x/radio.c ****  * \param [IN] preambleLen  Sets the Preamble length
 101:Core/Src/radio/sx126x/radio.c ****  *                          FSK : Number of bytes
 102:Core/Src/radio/sx126x/radio.c ****  *                          LoRa: Length in symbols (the hardware adds 4 more symbols)
 103:Core/Src/radio/sx126x/radio.c ****  * \param [IN] symbTimeout  Sets the RxSingle timeout value
 104:Core/Src/radio/sx126x/radio.c ****  *                          FSK : timeout in number of bytes
 105:Core/Src/radio/sx126x/radio.c ****  *                          LoRa: timeout in symbols
 106:Core/Src/radio/sx126x/radio.c ****  * \param [IN] fixLen       Fixed length packets [0: variable, 1: fixed]
 107:Core/Src/radio/sx126x/radio.c ****  * \param [IN] payloadLen   Sets payload length when fixed length is used
 108:Core/Src/radio/sx126x/radio.c ****  * \param [IN] crcOn        Enables/Disables the CRC [0: OFF, 1: ON]
 109:Core/Src/radio/sx126x/radio.c ****  * \param [IN] FreqHopOn    Enables disables the intra-packet frequency hopping
 110:Core/Src/radio/sx126x/radio.c ****  *                          FSK : N/A ( set to 0 )
 111:Core/Src/radio/sx126x/radio.c ****  *                          LoRa: [0: OFF, 1: ON]
 112:Core/Src/radio/sx126x/radio.c ****  * \param [IN] HopPeriod    Number of symbols between each hop
 113:Core/Src/radio/sx126x/radio.c ****  *                          FSK : N/A ( set to 0 )
 114:Core/Src/radio/sx126x/radio.c ****  *                          LoRa: Number of symbols
 115:Core/Src/radio/sx126x/radio.c ****  * \param [IN] iqInverted   Inverts IQ signals (LoRa only)
 116:Core/Src/radio/sx126x/radio.c ****  *                          FSK : N/A ( set to 0 )
 117:Core/Src/radio/sx126x/radio.c ****  *                          LoRa: [0: not inverted, 1: inverted]
 118:Core/Src/radio/sx126x/radio.c ****  * \param [IN] rxContinuous Sets the reception in continuous mode
 119:Core/Src/radio/sx126x/radio.c ****  *                          [false: single mode, true: continuous mode]
 120:Core/Src/radio/sx126x/radio.c ****  */
 121:Core/Src/radio/sx126x/radio.c **** void RadioSetRxConfig( RadioModems_t modem, uint32_t bandwidth,
 122:Core/Src/radio/sx126x/radio.c ****                           uint32_t datarate, uint8_t coderate,
 123:Core/Src/radio/sx126x/radio.c ****                           uint32_t bandwidthAfc, uint16_t preambleLen,
 124:Core/Src/radio/sx126x/radio.c ****                           uint16_t symbTimeout, bool fixLen,
 125:Core/Src/radio/sx126x/radio.c ****                           uint8_t payloadLen,
 126:Core/Src/radio/sx126x/radio.c ****                           bool crcOn, bool FreqHopOn, uint8_t HopPeriod,
 127:Core/Src/radio/sx126x/radio.c ****                           bool iqInverted, bool rxContinuous );
 128:Core/Src/radio/sx126x/radio.c **** 
 129:Core/Src/radio/sx126x/radio.c **** /*!
 130:Core/Src/radio/sx126x/radio.c ****  * \brief Sets the transmission parameters
 131:Core/Src/radio/sx126x/radio.c ****  *
 132:Core/Src/radio/sx126x/radio.c ****  * \param [IN] modem        Radio modem to be used [0: FSK, 1: LoRa]
 133:Core/Src/radio/sx126x/radio.c ****  * \param [IN] power        Sets the output power [dBm]
 134:Core/Src/radio/sx126x/radio.c ****  * \param [IN] fdev         Sets the frequency deviation (FSK only)
 135:Core/Src/radio/sx126x/radio.c ****  *                          FSK : [Hz]
 136:Core/Src/radio/sx126x/radio.c ****  *                          LoRa: 0
 137:Core/Src/radio/sx126x/radio.c ****  * \param [IN] bandwidth    Sets the bandwidth (LoRa only)
 138:Core/Src/radio/sx126x/radio.c ****  *                          FSK : 0
 139:Core/Src/radio/sx126x/radio.c ****  *                          LoRa: [0: 125 kHz, 1: 250 kHz,
 140:Core/Src/radio/sx126x/radio.c ****  *                                 2: 500 kHz, 3: Reserved]
 141:Core/Src/radio/sx126x/radio.c ****  * \param [IN] datarate     Sets the Datarate
 142:Core/Src/radio/sx126x/radio.c ****  *                          FSK : 600..300000 bits/s
 143:Core/Src/radio/sx126x/radio.c ****  *                          LoRa: [6: 64, 7: 128, 8: 256, 9: 512,
 144:Core/Src/radio/sx126x/radio.c ****  *                                10: 1024, 11: 2048, 12: 4096  chips]
ARM GAS  C:\Users\andywei\AppData\Local\Temp\cccFfT7V.s 			page 4


 145:Core/Src/radio/sx126x/radio.c ****  * \param [IN] coderate     Sets the coding rate (LoRa only)
 146:Core/Src/radio/sx126x/radio.c ****  *                          FSK : N/A ( set to 0 )
 147:Core/Src/radio/sx126x/radio.c ****  *                          LoRa: [1: 4/5, 2: 4/6, 3: 4/7, 4: 4/8]
 148:Core/Src/radio/sx126x/radio.c ****  * \param [IN] preambleLen  Sets the preamble length
 149:Core/Src/radio/sx126x/radio.c ****  *                          FSK : Number of bytes
 150:Core/Src/radio/sx126x/radio.c ****  *                          LoRa: Length in symbols (the hardware adds 4 more symbols)
 151:Core/Src/radio/sx126x/radio.c ****  * \param [IN] fixLen       Fixed length packets [0: variable, 1: fixed]
 152:Core/Src/radio/sx126x/radio.c ****  * \param [IN] crcOn        Enables disables the CRC [0: OFF, 1: ON]
 153:Core/Src/radio/sx126x/radio.c ****  * \param [IN] FreqHopOn    Enables disables the intra-packet frequency hopping
 154:Core/Src/radio/sx126x/radio.c ****  *                          FSK : N/A ( set to 0 )
 155:Core/Src/radio/sx126x/radio.c ****  *                          LoRa: [0: OFF, 1: ON]
 156:Core/Src/radio/sx126x/radio.c ****  * \param [IN] HopPeriod    Number of symbols between each hop
 157:Core/Src/radio/sx126x/radio.c ****  *                          FSK : N/A ( set to 0 )
 158:Core/Src/radio/sx126x/radio.c ****  *                          LoRa: Number of symbols
 159:Core/Src/radio/sx126x/radio.c ****  * \param [IN] iqInverted   Inverts IQ signals (LoRa only)
 160:Core/Src/radio/sx126x/radio.c ****  *                          FSK : N/A ( set to 0 )
 161:Core/Src/radio/sx126x/radio.c ****  *                          LoRa: [0: not inverted, 1: inverted]
 162:Core/Src/radio/sx126x/radio.c ****  * \param [IN] timeout      Transmission timeout [ms]
 163:Core/Src/radio/sx126x/radio.c ****  */
 164:Core/Src/radio/sx126x/radio.c **** void RadioSetTxConfig( RadioModems_t modem, int8_t power, uint32_t fdev,
 165:Core/Src/radio/sx126x/radio.c ****                           uint32_t bandwidth, uint32_t datarate,
 166:Core/Src/radio/sx126x/radio.c ****                           uint8_t coderate, uint16_t preambleLen,
 167:Core/Src/radio/sx126x/radio.c ****                           bool fixLen, bool crcOn, bool FreqHopOn,
 168:Core/Src/radio/sx126x/radio.c ****                           uint8_t HopPeriod, bool iqInverted, uint32_t timeout );
 169:Core/Src/radio/sx126x/radio.c **** 
 170:Core/Src/radio/sx126x/radio.c **** /*!
 171:Core/Src/radio/sx126x/radio.c ****  * \brief Checks if the given RF frequency is supported by the hardware
 172:Core/Src/radio/sx126x/radio.c ****  *
 173:Core/Src/radio/sx126x/radio.c ****  * \param [IN] frequency RF frequency to be checked
 174:Core/Src/radio/sx126x/radio.c ****  * \retval isSupported [true: supported, false: unsupported]
 175:Core/Src/radio/sx126x/radio.c ****  */
 176:Core/Src/radio/sx126x/radio.c **** bool RadioCheckRfFrequency( uint32_t frequency );
 177:Core/Src/radio/sx126x/radio.c **** 
 178:Core/Src/radio/sx126x/radio.c **** /*!
 179:Core/Src/radio/sx126x/radio.c ****  * \brief Computes the packet time on air in ms for the given payload
 180:Core/Src/radio/sx126x/radio.c ****  *
 181:Core/Src/radio/sx126x/radio.c ****  * \Remark Can only be called once SetRxConfig or SetTxConfig have been called
 182:Core/Src/radio/sx126x/radio.c ****  *
 183:Core/Src/radio/sx126x/radio.c ****  * \param [IN] modem      Radio modem to be used [0: FSK, 1: LoRa]
 184:Core/Src/radio/sx126x/radio.c ****  * \param [IN] pktLen     Packet payload length
 185:Core/Src/radio/sx126x/radio.c ****  *
 186:Core/Src/radio/sx126x/radio.c ****  * \retval airTime        Computed airTime (ms) for the given packet payload length
 187:Core/Src/radio/sx126x/radio.c ****  */
 188:Core/Src/radio/sx126x/radio.c **** uint32_t RadioTimeOnAir( RadioModems_t modem, uint8_t pktLen );
 189:Core/Src/radio/sx126x/radio.c **** 
 190:Core/Src/radio/sx126x/radio.c **** /*!
 191:Core/Src/radio/sx126x/radio.c ****  * \brief Sends the buffer of size. Prepares the packet to be sent and sets
 192:Core/Src/radio/sx126x/radio.c ****  *        the radio in transmission
 193:Core/Src/radio/sx126x/radio.c ****  *
 194:Core/Src/radio/sx126x/radio.c ****  * \param [IN]: buffer     Buffer pointer
 195:Core/Src/radio/sx126x/radio.c ****  * \param [IN]: size       Buffer size
 196:Core/Src/radio/sx126x/radio.c ****  */
 197:Core/Src/radio/sx126x/radio.c **** void RadioSend( uint8_t *buffer, uint8_t size );
 198:Core/Src/radio/sx126x/radio.c **** 
 199:Core/Src/radio/sx126x/radio.c **** /*!
 200:Core/Src/radio/sx126x/radio.c ****  * \brief Sets the radio in sleep mode
 201:Core/Src/radio/sx126x/radio.c ****  */
ARM GAS  C:\Users\andywei\AppData\Local\Temp\cccFfT7V.s 			page 5


 202:Core/Src/radio/sx126x/radio.c **** void RadioSleep( void );
 203:Core/Src/radio/sx126x/radio.c **** 
 204:Core/Src/radio/sx126x/radio.c **** /*!
 205:Core/Src/radio/sx126x/radio.c ****  * \brief Sets the radio in standby mode
 206:Core/Src/radio/sx126x/radio.c ****  */
 207:Core/Src/radio/sx126x/radio.c **** void RadioStandby( void );
 208:Core/Src/radio/sx126x/radio.c **** 
 209:Core/Src/radio/sx126x/radio.c **** /*!
 210:Core/Src/radio/sx126x/radio.c ****  * \brief Sets the radio in reception mode for the given time
 211:Core/Src/radio/sx126x/radio.c ****  * \param [IN] timeout Reception timeout [ms]
 212:Core/Src/radio/sx126x/radio.c ****  *                     [0: continuous, others timeout]
 213:Core/Src/radio/sx126x/radio.c ****  */
 214:Core/Src/radio/sx126x/radio.c **** void RadioRx( uint32_t timeout );
 215:Core/Src/radio/sx126x/radio.c **** 
 216:Core/Src/radio/sx126x/radio.c **** /*!
 217:Core/Src/radio/sx126x/radio.c ****  * \brief Start a Channel Activity Detection
 218:Core/Src/radio/sx126x/radio.c ****  */
 219:Core/Src/radio/sx126x/radio.c **** void RadioStartCad( void );
 220:Core/Src/radio/sx126x/radio.c **** 
 221:Core/Src/radio/sx126x/radio.c **** /*!
 222:Core/Src/radio/sx126x/radio.c ****  * \brief Sets the radio in continuous wave transmission mode
 223:Core/Src/radio/sx126x/radio.c ****  *
 224:Core/Src/radio/sx126x/radio.c ****  * \param [IN]: freq       Channel RF frequency
 225:Core/Src/radio/sx126x/radio.c ****  * \param [IN]: power      Sets the output power [dBm]
 226:Core/Src/radio/sx126x/radio.c ****  * \param [IN]: time       Transmission mode timeout [s]
 227:Core/Src/radio/sx126x/radio.c ****  */
 228:Core/Src/radio/sx126x/radio.c **** void RadioSetTxContinuousWave( uint32_t freq, int8_t power, uint16_t time );
 229:Core/Src/radio/sx126x/radio.c **** 
 230:Core/Src/radio/sx126x/radio.c **** /*!
 231:Core/Src/radio/sx126x/radio.c ****  * \brief Reads the current RSSI value
 232:Core/Src/radio/sx126x/radio.c ****  *
 233:Core/Src/radio/sx126x/radio.c ****  * \retval rssiValue Current RSSI value in [dBm]
 234:Core/Src/radio/sx126x/radio.c ****  */
 235:Core/Src/radio/sx126x/radio.c **** int16_t RadioRssi( RadioModems_t modem );
 236:Core/Src/radio/sx126x/radio.c **** 
 237:Core/Src/radio/sx126x/radio.c **** /*!
 238:Core/Src/radio/sx126x/radio.c ****  * \brief Writes the radio register at the specified address
 239:Core/Src/radio/sx126x/radio.c ****  *
 240:Core/Src/radio/sx126x/radio.c ****  * \param [IN]: addr Register address
 241:Core/Src/radio/sx126x/radio.c ****  * \param [IN]: data New register value
 242:Core/Src/radio/sx126x/radio.c ****  */
 243:Core/Src/radio/sx126x/radio.c **** void RadioWrite( uint16_t addr, uint8_t data );
 244:Core/Src/radio/sx126x/radio.c **** 
 245:Core/Src/radio/sx126x/radio.c **** /*!
 246:Core/Src/radio/sx126x/radio.c ****  * \brief Reads the radio register at the specified address
 247:Core/Src/radio/sx126x/radio.c ****  *
 248:Core/Src/radio/sx126x/radio.c ****  * \param [IN]: addr Register address
 249:Core/Src/radio/sx126x/radio.c ****  * \retval data Register value
 250:Core/Src/radio/sx126x/radio.c ****  */
 251:Core/Src/radio/sx126x/radio.c **** uint8_t RadioRead( uint16_t addr );
 252:Core/Src/radio/sx126x/radio.c **** 
 253:Core/Src/radio/sx126x/radio.c **** /*!
 254:Core/Src/radio/sx126x/radio.c ****  * \brief Writes multiple radio registers starting at address
 255:Core/Src/radio/sx126x/radio.c ****  *
 256:Core/Src/radio/sx126x/radio.c ****  * \param [IN] addr   First Radio register address
 257:Core/Src/radio/sx126x/radio.c ****  * \param [IN] buffer Buffer containing the new register's values
 258:Core/Src/radio/sx126x/radio.c ****  * \param [IN] size   Number of registers to be written
ARM GAS  C:\Users\andywei\AppData\Local\Temp\cccFfT7V.s 			page 6


 259:Core/Src/radio/sx126x/radio.c ****  */
 260:Core/Src/radio/sx126x/radio.c **** void RadioWriteBuffer( uint16_t addr, uint8_t *buffer, uint8_t size );
 261:Core/Src/radio/sx126x/radio.c **** 
 262:Core/Src/radio/sx126x/radio.c **** /*!
 263:Core/Src/radio/sx126x/radio.c ****  * \brief Reads multiple radio registers starting at address
 264:Core/Src/radio/sx126x/radio.c ****  *
 265:Core/Src/radio/sx126x/radio.c ****  * \param [IN] addr First Radio register address
 266:Core/Src/radio/sx126x/radio.c ****  * \param [OUT] buffer Buffer where to copy the registers data
 267:Core/Src/radio/sx126x/radio.c ****  * \param [IN] size Number of registers to be read
 268:Core/Src/radio/sx126x/radio.c ****  */
 269:Core/Src/radio/sx126x/radio.c **** void RadioReadBuffer( uint16_t addr, uint8_t *buffer, uint8_t size );
 270:Core/Src/radio/sx126x/radio.c **** 
 271:Core/Src/radio/sx126x/radio.c **** /*!
 272:Core/Src/radio/sx126x/radio.c ****  * \brief Sets the maximum payload length.
 273:Core/Src/radio/sx126x/radio.c ****  *
 274:Core/Src/radio/sx126x/radio.c ****  * \param [IN] modem      Radio modem to be used [0: FSK, 1: LoRa]
 275:Core/Src/radio/sx126x/radio.c ****  * \param [IN] max        Maximum payload length in bytes
 276:Core/Src/radio/sx126x/radio.c ****  */
 277:Core/Src/radio/sx126x/radio.c **** void RadioSetMaxPayloadLength( RadioModems_t modem, uint8_t max );
 278:Core/Src/radio/sx126x/radio.c **** 
 279:Core/Src/radio/sx126x/radio.c **** /*!
 280:Core/Src/radio/sx126x/radio.c ****  * \brief Sets the network to public or private. Updates the sync byte.
 281:Core/Src/radio/sx126x/radio.c ****  *
 282:Core/Src/radio/sx126x/radio.c ****  * \remark Applies to LoRa modem only
 283:Core/Src/radio/sx126x/radio.c ****  *
 284:Core/Src/radio/sx126x/radio.c ****  * \param [IN] enable if true, it enables a public network
 285:Core/Src/radio/sx126x/radio.c ****  */
 286:Core/Src/radio/sx126x/radio.c **** void RadioSetPublicNetwork( bool enable );
 287:Core/Src/radio/sx126x/radio.c **** 
 288:Core/Src/radio/sx126x/radio.c **** /*!
 289:Core/Src/radio/sx126x/radio.c ****  * \brief Gets the time required for the board plus radio to get out of sleep.[ms]
 290:Core/Src/radio/sx126x/radio.c ****  *
 291:Core/Src/radio/sx126x/radio.c ****  * \retval time Radio plus board wakeup time in ms.
 292:Core/Src/radio/sx126x/radio.c ****  */
 293:Core/Src/radio/sx126x/radio.c **** uint32_t RadioGetWakeupTime( void );
 294:Core/Src/radio/sx126x/radio.c **** 
 295:Core/Src/radio/sx126x/radio.c **** /*!
 296:Core/Src/radio/sx126x/radio.c ****  * \brief Process radio irq
 297:Core/Src/radio/sx126x/radio.c ****  */
 298:Core/Src/radio/sx126x/radio.c **** void RadioIrqProcess( void );
 299:Core/Src/radio/sx126x/radio.c **** 
 300:Core/Src/radio/sx126x/radio.c **** /*!
 301:Core/Src/radio/sx126x/radio.c ****  * \brief Sets the radio in reception mode with Max LNA gain for the given time
 302:Core/Src/radio/sx126x/radio.c ****  * \param [IN] timeout Reception timeout [ms]
 303:Core/Src/radio/sx126x/radio.c ****  *                     [0: continuous, others timeout]
 304:Core/Src/radio/sx126x/radio.c ****  */
 305:Core/Src/radio/sx126x/radio.c **** void RadioRxBoosted( uint32_t timeout );
 306:Core/Src/radio/sx126x/radio.c **** 
 307:Core/Src/radio/sx126x/radio.c **** /*!
 308:Core/Src/radio/sx126x/radio.c ****  * \brief Sets the Rx duty cycle management parameters
 309:Core/Src/radio/sx126x/radio.c ****  *
 310:Core/Src/radio/sx126x/radio.c ****  * \param [in]  rxTime        Structure describing reception timeout value
 311:Core/Src/radio/sx126x/radio.c ****  * \param [in]  sleepTime     Structure describing sleep timeout value
 312:Core/Src/radio/sx126x/radio.c ****  */
 313:Core/Src/radio/sx126x/radio.c **** void RadioSetRxDutyCycle( uint32_t rxTime, uint32_t sleepTime );
 314:Core/Src/radio/sx126x/radio.c **** 
 315:Core/Src/radio/sx126x/radio.c **** /*!
ARM GAS  C:\Users\andywei\AppData\Local\Temp\cccFfT7V.s 			page 7


 316:Core/Src/radio/sx126x/radio.c ****  * Radio driver structure initialization
 317:Core/Src/radio/sx126x/radio.c ****  */
 318:Core/Src/radio/sx126x/radio.c **** const struct Radio_s Radio =
 319:Core/Src/radio/sx126x/radio.c **** {
 320:Core/Src/radio/sx126x/radio.c ****     RadioInit,
 321:Core/Src/radio/sx126x/radio.c ****     RadioGetStatus,
 322:Core/Src/radio/sx126x/radio.c ****     RadioSetModem,
 323:Core/Src/radio/sx126x/radio.c ****     RadioSetChannel,
 324:Core/Src/radio/sx126x/radio.c ****     RadioIsChannelFree,
 325:Core/Src/radio/sx126x/radio.c ****     RadioRandom,
 326:Core/Src/radio/sx126x/radio.c ****     RadioSetRxConfig,
 327:Core/Src/radio/sx126x/radio.c ****     RadioSetTxConfig,
 328:Core/Src/radio/sx126x/radio.c ****     RadioCheckRfFrequency,
 329:Core/Src/radio/sx126x/radio.c ****     RadioTimeOnAir,
 330:Core/Src/radio/sx126x/radio.c ****     RadioSend,
 331:Core/Src/radio/sx126x/radio.c ****     RadioSleep,
 332:Core/Src/radio/sx126x/radio.c ****     RadioStandby,
 333:Core/Src/radio/sx126x/radio.c ****     RadioRx,
 334:Core/Src/radio/sx126x/radio.c ****     RadioStartCad,
 335:Core/Src/radio/sx126x/radio.c ****     RadioSetTxContinuousWave,
 336:Core/Src/radio/sx126x/radio.c ****     RadioRssi,
 337:Core/Src/radio/sx126x/radio.c ****     RadioWrite,
 338:Core/Src/radio/sx126x/radio.c ****     RadioRead,
 339:Core/Src/radio/sx126x/radio.c ****     RadioWriteBuffer,
 340:Core/Src/radio/sx126x/radio.c ****     RadioReadBuffer,
 341:Core/Src/radio/sx126x/radio.c ****     RadioSetMaxPayloadLength,
 342:Core/Src/radio/sx126x/radio.c ****     RadioSetPublicNetwork,
 343:Core/Src/radio/sx126x/radio.c ****     RadioGetWakeupTime,
 344:Core/Src/radio/sx126x/radio.c ****     RadioIrqProcess,
 345:Core/Src/radio/sx126x/radio.c ****     // Available on SX126x only
 346:Core/Src/radio/sx126x/radio.c ****     RadioRxBoosted,
 347:Core/Src/radio/sx126x/radio.c ****     RadioSetRxDutyCycle
 348:Core/Src/radio/sx126x/radio.c **** };
 349:Core/Src/radio/sx126x/radio.c **** 
 350:Core/Src/radio/sx126x/radio.c **** /*
 351:Core/Src/radio/sx126x/radio.c ****  * Local types definition
 352:Core/Src/radio/sx126x/radio.c ****  */
 353:Core/Src/radio/sx126x/radio.c **** 
 354:Core/Src/radio/sx126x/radio.c **** 
 355:Core/Src/radio/sx126x/radio.c ****  /*!
 356:Core/Src/radio/sx126x/radio.c ****  * FSK bandwidth definition
 357:Core/Src/radio/sx126x/radio.c ****  */
 358:Core/Src/radio/sx126x/radio.c **** typedef struct
 359:Core/Src/radio/sx126x/radio.c **** {
 360:Core/Src/radio/sx126x/radio.c ****     uint32_t bandwidth;
 361:Core/Src/radio/sx126x/radio.c ****     uint8_t  RegValue;
 362:Core/Src/radio/sx126x/radio.c **** }FskBandwidth_t;
 363:Core/Src/radio/sx126x/radio.c **** 
 364:Core/Src/radio/sx126x/radio.c **** /*!
 365:Core/Src/radio/sx126x/radio.c ****  * Precomputed FSK bandwidth registers values
 366:Core/Src/radio/sx126x/radio.c ****  */
 367:Core/Src/radio/sx126x/radio.c **** const FskBandwidth_t FskBandwidths[] =
 368:Core/Src/radio/sx126x/radio.c **** {
 369:Core/Src/radio/sx126x/radio.c ****     { 4800  , 0x1F },
 370:Core/Src/radio/sx126x/radio.c ****     { 5800  , 0x17 },
 371:Core/Src/radio/sx126x/radio.c ****     { 7300  , 0x0F },
 372:Core/Src/radio/sx126x/radio.c ****     { 9700  , 0x1E },
ARM GAS  C:\Users\andywei\AppData\Local\Temp\cccFfT7V.s 			page 8


 373:Core/Src/radio/sx126x/radio.c ****     { 11700 , 0x16 },
 374:Core/Src/radio/sx126x/radio.c ****     { 14600 , 0x0E },
 375:Core/Src/radio/sx126x/radio.c ****     { 19500 , 0x1D },
 376:Core/Src/radio/sx126x/radio.c ****     { 23400 , 0x15 },
 377:Core/Src/radio/sx126x/radio.c ****     { 29300 , 0x0D },
 378:Core/Src/radio/sx126x/radio.c ****     { 39000 , 0x1C },
 379:Core/Src/radio/sx126x/radio.c ****     { 46900 , 0x14 },
 380:Core/Src/radio/sx126x/radio.c ****     { 58600 , 0x0C },
 381:Core/Src/radio/sx126x/radio.c ****     { 78200 , 0x1B },
 382:Core/Src/radio/sx126x/radio.c ****     { 93800 , 0x13 },
 383:Core/Src/radio/sx126x/radio.c ****     { 117300, 0x0B },
 384:Core/Src/radio/sx126x/radio.c ****     { 156200, 0x1A },
 385:Core/Src/radio/sx126x/radio.c ****     { 187200, 0x12 },
 386:Core/Src/radio/sx126x/radio.c ****     { 234300, 0x0A },
 387:Core/Src/radio/sx126x/radio.c ****     { 312000, 0x19 },
 388:Core/Src/radio/sx126x/radio.c ****     { 373600, 0x11 },
 389:Core/Src/radio/sx126x/radio.c ****     { 467000, 0x09 },
 390:Core/Src/radio/sx126x/radio.c ****     { 500000, 0x00 }, // Invalid Bandwidth
 391:Core/Src/radio/sx126x/radio.c **** };
 392:Core/Src/radio/sx126x/radio.c **** 
 393:Core/Src/radio/sx126x/radio.c **** const RadioLoRaBandwidths_t Bandwidths[] = { LORA_BW_125, LORA_BW_250, LORA_BW_500 };
 394:Core/Src/radio/sx126x/radio.c **** 
 395:Core/Src/radio/sx126x/radio.c **** //                                          SF12    SF11    SF10    SF9    SF8    SF7
 396:Core/Src/radio/sx126x/radio.c **** static double RadioLoRaSymbTime[3][6] = {{ 32.768, 16.384, 8.192, 4.096, 2.048, 1.024 },  // 125 KH
 397:Core/Src/radio/sx126x/radio.c ****                                          { 16.384, 8.192,  4.096, 2.048, 1.024, 0.512 },  // 250 KH
 398:Core/Src/radio/sx126x/radio.c ****                                          { 8.192,  4.096,  2.048, 1.024, 0.512, 0.256 }}; // 500 KH
 399:Core/Src/radio/sx126x/radio.c **** 
 400:Core/Src/radio/sx126x/radio.c **** uint8_t MaxPayloadLength = 0xFF;
 401:Core/Src/radio/sx126x/radio.c **** 
 402:Core/Src/radio/sx126x/radio.c **** uint32_t TxTimeout = 0;
 403:Core/Src/radio/sx126x/radio.c **** uint32_t RxTimeout = 0;
 404:Core/Src/radio/sx126x/radio.c **** 
 405:Core/Src/radio/sx126x/radio.c **** bool RxContinuous = false;
 406:Core/Src/radio/sx126x/radio.c **** 
 407:Core/Src/radio/sx126x/radio.c **** 
 408:Core/Src/radio/sx126x/radio.c **** PacketStatus_t RadioPktStatus;
 409:Core/Src/radio/sx126x/radio.c **** uint8_t RadioRxPayload[255];
 410:Core/Src/radio/sx126x/radio.c **** 
 411:Core/Src/radio/sx126x/radio.c **** bool IrqFired = false;
 412:Core/Src/radio/sx126x/radio.c **** 
 413:Core/Src/radio/sx126x/radio.c **** /*
 414:Core/Src/radio/sx126x/radio.c ****  * SX126x DIO IRQ callback functions prototype
 415:Core/Src/radio/sx126x/radio.c ****  */
 416:Core/Src/radio/sx126x/radio.c **** 
 417:Core/Src/radio/sx126x/radio.c **** /*!
 418:Core/Src/radio/sx126x/radio.c ****  * \brief DIO 0 IRQ callback
 419:Core/Src/radio/sx126x/radio.c ****  */
 420:Core/Src/radio/sx126x/radio.c **** void RadioOnDioIrq( void );
 421:Core/Src/radio/sx126x/radio.c **** 
 422:Core/Src/radio/sx126x/radio.c **** /*!
 423:Core/Src/radio/sx126x/radio.c ****  * \brief Tx timeout timer callback
 424:Core/Src/radio/sx126x/radio.c ****  */
 425:Core/Src/radio/sx126x/radio.c **** void RadioOnTxTimeoutIrq( void );
 426:Core/Src/radio/sx126x/radio.c **** 
 427:Core/Src/radio/sx126x/radio.c **** /*!
 428:Core/Src/radio/sx126x/radio.c ****  * \brief Rx timeout timer callback
 429:Core/Src/radio/sx126x/radio.c ****  */
ARM GAS  C:\Users\andywei\AppData\Local\Temp\cccFfT7V.s 			page 9


 430:Core/Src/radio/sx126x/radio.c **** void RadioOnRxTimeoutIrq( void );
 431:Core/Src/radio/sx126x/radio.c **** 
 432:Core/Src/radio/sx126x/radio.c **** /*
 433:Core/Src/radio/sx126x/radio.c ****  * Private global variables
 434:Core/Src/radio/sx126x/radio.c ****  */
 435:Core/Src/radio/sx126x/radio.c **** 
 436:Core/Src/radio/sx126x/radio.c **** 
 437:Core/Src/radio/sx126x/radio.c **** /*!
 438:Core/Src/radio/sx126x/radio.c ****  * Holds the current network type for the radio
 439:Core/Src/radio/sx126x/radio.c ****  */
 440:Core/Src/radio/sx126x/radio.c **** typedef struct
 441:Core/Src/radio/sx126x/radio.c **** {
 442:Core/Src/radio/sx126x/radio.c ****     bool Previous;
 443:Core/Src/radio/sx126x/radio.c ****     bool Current;
 444:Core/Src/radio/sx126x/radio.c **** }RadioPublicNetwork_t;
 445:Core/Src/radio/sx126x/radio.c **** 
 446:Core/Src/radio/sx126x/radio.c **** static RadioPublicNetwork_t RadioPublicNetwork = { false };
 447:Core/Src/radio/sx126x/radio.c **** 
 448:Core/Src/radio/sx126x/radio.c **** /*!
 449:Core/Src/radio/sx126x/radio.c ****  * Radio callbacks variable
 450:Core/Src/radio/sx126x/radio.c ****  */
 451:Core/Src/radio/sx126x/radio.c **** static RadioEvents_t* RadioEvents;
 452:Core/Src/radio/sx126x/radio.c **** 
 453:Core/Src/radio/sx126x/radio.c **** /*
 454:Core/Src/radio/sx126x/radio.c ****  * Public global variables
 455:Core/Src/radio/sx126x/radio.c ****  */
 456:Core/Src/radio/sx126x/radio.c **** 
 457:Core/Src/radio/sx126x/radio.c **** /*!
 458:Core/Src/radio/sx126x/radio.c ****  * Radio hardware and global parameters
 459:Core/Src/radio/sx126x/radio.c ****  */
 460:Core/Src/radio/sx126x/radio.c **** SX126x_t SX126x;
 461:Core/Src/radio/sx126x/radio.c **** 
 462:Core/Src/radio/sx126x/radio.c **** /*!
 463:Core/Src/radio/sx126x/radio.c ****  * Tx and Rx timers
 464:Core/Src/radio/sx126x/radio.c ****  */
 465:Core/Src/radio/sx126x/radio.c **** TimerEvent_t TxTimeoutTimer;
 466:Core/Src/radio/sx126x/radio.c **** TimerEvent_t RxTimeoutTimer;
 467:Core/Src/radio/sx126x/radio.c **** 
 468:Core/Src/radio/sx126x/radio.c **** /*!
 469:Core/Src/radio/sx126x/radio.c ****  * Returns the known FSK bandwidth registers value
 470:Core/Src/radio/sx126x/radio.c ****  *
 471:Core/Src/radio/sx126x/radio.c ****  * \param [IN] bandwidth Bandwidth value in Hz
 472:Core/Src/radio/sx126x/radio.c ****  * \retval regValue Bandwidth register value.
 473:Core/Src/radio/sx126x/radio.c ****  */
 474:Core/Src/radio/sx126x/radio.c **** static uint8_t RadioGetFskBandwidthRegValue( uint32_t bandwidth )
 475:Core/Src/radio/sx126x/radio.c **** {
  29              		.loc 1 475 1 view -0
  30              		.cfi_startproc
  31              		@ args = 0, pretend = 0, frame = 0
  32              		@ frame_needed = 0, uses_anonymous_args = 0
  33              		@ link register save eliminated.
 476:Core/Src/radio/sx126x/radio.c ****     uint8_t i;
  34              		.loc 1 476 5 view .LVU1
 477:Core/Src/radio/sx126x/radio.c **** 
 478:Core/Src/radio/sx126x/radio.c ****     if( bandwidth == 0 )
  35              		.loc 1 478 5 view .LVU2
  36              		.loc 1 478 7 is_stmt 0 view .LVU3
ARM GAS  C:\Users\andywei\AppData\Local\Temp\cccFfT7V.s 			page 10


  37 0000 0146     		mov	r1, r0
  38 0002 B0B1     		cbz	r0, .L7
 479:Core/Src/radio/sx126x/radio.c ****     {
 480:Core/Src/radio/sx126x/radio.c ****         return( 0x1F );
 481:Core/Src/radio/sx126x/radio.c ****     }
 482:Core/Src/radio/sx126x/radio.c **** 
 483:Core/Src/radio/sx126x/radio.c ****     for( i = 0; i < ( sizeof( FskBandwidths ) / sizeof( FskBandwidth_t ) ) - 1; i++ )
  39              		.loc 1 483 12 view .LVU4
  40 0004 0023     		movs	r3, #0
  41 0006 01E0     		b	.L3
  42              	.LVL1:
  43              	.L4:
  44              		.loc 1 483 81 is_stmt 1 discriminator 2 view .LVU5
  45              		.loc 1 483 82 is_stmt 0 discriminator 2 view .LVU6
  46 0008 0133     		adds	r3, r3, #1
  47              	.LVL2:
  48              		.loc 1 483 82 discriminator 2 view .LVU7
  49 000a DBB2     		uxtb	r3, r3
  50              	.LVL3:
  51              	.L3:
  52              		.loc 1 483 17 is_stmt 1 discriminator 1 view .LVU8
  53              		.loc 1 483 5 is_stmt 0 discriminator 1 view .LVU9
  54 000c 142B     		cmp	r3, #20
  55 000e 0FD8     		bhi	.L6
 484:Core/Src/radio/sx126x/radio.c ****     {
 485:Core/Src/radio/sx126x/radio.c ****         if( ( bandwidth >= FskBandwidths[i].bandwidth ) && ( bandwidth < FskBandwidths[i + 1].bandw
  56              		.loc 1 485 9 is_stmt 1 view .LVU10
  57              		.loc 1 485 44 is_stmt 0 view .LVU11
  58 0010 094A     		ldr	r2, .L8
  59 0012 52F83320 		ldr	r2, [r2, r3, lsl #3]
  60              		.loc 1 485 11 view .LVU12
  61 0016 8A42     		cmp	r2, r1
  62 0018 F6D8     		bhi	.L4
  63              		.loc 1 485 90 discriminator 1 view .LVU13
  64 001a 5A1C     		adds	r2, r3, #1
  65              		.loc 1 485 94 discriminator 1 view .LVU14
  66 001c 0648     		ldr	r0, .L8
  67 001e 50F83200 		ldr	r0, [r0, r2, lsl #3]
  68              		.loc 1 485 57 discriminator 1 view .LVU15
  69 0022 8842     		cmp	r0, r1
  70 0024 F0D9     		bls	.L4
 486:Core/Src/radio/sx126x/radio.c ****         {
 487:Core/Src/radio/sx126x/radio.c ****             return FskBandwidths[i+1].RegValue;
  71              		.loc 1 487 13 is_stmt 1 view .LVU16
  72              		.loc 1 487 38 is_stmt 0 view .LVU17
  73 0026 044B     		ldr	r3, .L8
  74              	.LVL4:
  75              		.loc 1 487 38 view .LVU18
  76 0028 03EBC202 		add	r2, r3, r2, lsl #3
  77 002c 1079     		ldrb	r0, [r2, #4]	@ zero_extendqisi2
  78 002e 7047     		bx	lr
  79              	.LVL5:
  80              	.L6:
 488:Core/Src/radio/sx126x/radio.c ****         }
 489:Core/Src/radio/sx126x/radio.c ****     }
 490:Core/Src/radio/sx126x/radio.c ****     // ERROR: Value not found
 491:Core/Src/radio/sx126x/radio.c ****     while( 1 );
ARM GAS  C:\Users\andywei\AppData\Local\Temp\cccFfT7V.s 			page 11


  81              		.loc 1 491 5 is_stmt 1 discriminator 1 view .LVU19
  82              		.loc 1 491 15 discriminator 1 view .LVU20
  83              		.loc 1 491 10 discriminator 1 view .LVU21
  84 0030 FEE7     		b	.L6
  85              	.LVL6:
  86              	.L7:
 480:Core/Src/radio/sx126x/radio.c ****     }
  87              		.loc 1 480 15 is_stmt 0 view .LVU22
  88 0032 1F20     		movs	r0, #31
  89              	.LVL7:
 492:Core/Src/radio/sx126x/radio.c **** }
  90              		.loc 1 492 1 view .LVU23
  91 0034 7047     		bx	lr
  92              	.L9:
  93 0036 00BF     		.align	2
  94              	.L8:
  95 0038 00000000 		.word	.LANCHOR0
  96              		.cfi_endproc
  97              	.LFE135:
  99              		.section	.text.RadioCheckRfFrequency,"ax",%progbits
 100              		.align	1
 101              		.global	RadioCheckRfFrequency
 102              		.syntax unified
 103              		.thumb
 104              		.thumb_func
 105              		.fpu fpv4-sp-d16
 107              	RadioCheckRfFrequency:
 108              	.LVL8:
 109              	.LFB144:
 493:Core/Src/radio/sx126x/radio.c **** 
 494:Core/Src/radio/sx126x/radio.c **** void RadioInit( RadioEvents_t *events )
 495:Core/Src/radio/sx126x/radio.c **** {
 496:Core/Src/radio/sx126x/radio.c ****     RadioEvents = events;
 497:Core/Src/radio/sx126x/radio.c **** 
 498:Core/Src/radio/sx126x/radio.c ****     SX126xInit( RadioOnDioIrq );
 499:Core/Src/radio/sx126x/radio.c ****     SX126xSetStandby( STDBY_RC );
 500:Core/Src/radio/sx126x/radio.c ****     SX126xSetRegulatorMode( USE_DCDC );
 501:Core/Src/radio/sx126x/radio.c **** 
 502:Core/Src/radio/sx126x/radio.c ****     SX126xSetBufferBaseAddress( 0x00, 0x00 );
 503:Core/Src/radio/sx126x/radio.c ****     SX126xSetTxParams( 0, RADIO_RAMP_200_US );
 504:Core/Src/radio/sx126x/radio.c ****     SX126xSetDioIrqParams( IRQ_RADIO_ALL, IRQ_RADIO_ALL, IRQ_RADIO_NONE, IRQ_RADIO_NONE );
 505:Core/Src/radio/sx126x/radio.c **** 
 506:Core/Src/radio/sx126x/radio.c ****     // Initialize driver timeout timers
 507:Core/Src/radio/sx126x/radio.c ****     TimerInit( &TxTimeoutTimer, RadioOnTxTimeoutIrq );
 508:Core/Src/radio/sx126x/radio.c ****     TimerInit( &RxTimeoutTimer, RadioOnRxTimeoutIrq );
 509:Core/Src/radio/sx126x/radio.c **** 
 510:Core/Src/radio/sx126x/radio.c ****     IrqFired = false;
 511:Core/Src/radio/sx126x/radio.c **** }
 512:Core/Src/radio/sx126x/radio.c **** 
 513:Core/Src/radio/sx126x/radio.c **** RadioState_t RadioGetStatus( void )
 514:Core/Src/radio/sx126x/radio.c **** {
 515:Core/Src/radio/sx126x/radio.c ****     switch( SX126xGetOperatingMode( ) )
 516:Core/Src/radio/sx126x/radio.c ****     {
 517:Core/Src/radio/sx126x/radio.c ****         case MODE_TX:
 518:Core/Src/radio/sx126x/radio.c ****             return RF_TX_RUNNING;
 519:Core/Src/radio/sx126x/radio.c ****         case MODE_RX:
 520:Core/Src/radio/sx126x/radio.c ****             return RF_RX_RUNNING;
ARM GAS  C:\Users\andywei\AppData\Local\Temp\cccFfT7V.s 			page 12


 521:Core/Src/radio/sx126x/radio.c ****         case RF_CAD:
 522:Core/Src/radio/sx126x/radio.c ****             return RF_CAD;
 523:Core/Src/radio/sx126x/radio.c ****         default:
 524:Core/Src/radio/sx126x/radio.c ****             return RF_IDLE;
 525:Core/Src/radio/sx126x/radio.c ****     }
 526:Core/Src/radio/sx126x/radio.c **** }
 527:Core/Src/radio/sx126x/radio.c **** 
 528:Core/Src/radio/sx126x/radio.c **** void RadioSetModem( RadioModems_t modem )
 529:Core/Src/radio/sx126x/radio.c **** {
 530:Core/Src/radio/sx126x/radio.c ****     switch( modem )
 531:Core/Src/radio/sx126x/radio.c ****     {
 532:Core/Src/radio/sx126x/radio.c ****     default:
 533:Core/Src/radio/sx126x/radio.c ****     case MODEM_FSK:
 534:Core/Src/radio/sx126x/radio.c ****         SX126xSetPacketType( PACKET_TYPE_GFSK );
 535:Core/Src/radio/sx126x/radio.c ****         // When switching to GFSK mode the LoRa SyncWord register value is reset
 536:Core/Src/radio/sx126x/radio.c ****         // Thus, we also reset the RadioPublicNetwork variable
 537:Core/Src/radio/sx126x/radio.c ****         RadioPublicNetwork.Current = false;
 538:Core/Src/radio/sx126x/radio.c ****         break;
 539:Core/Src/radio/sx126x/radio.c ****     case MODEM_LORA:
 540:Core/Src/radio/sx126x/radio.c ****         SX126xSetPacketType( PACKET_TYPE_LORA );
 541:Core/Src/radio/sx126x/radio.c ****         // Public/Private network register is reset when switching modems
 542:Core/Src/radio/sx126x/radio.c ****         if( RadioPublicNetwork.Current != RadioPublicNetwork.Previous )
 543:Core/Src/radio/sx126x/radio.c ****         {
 544:Core/Src/radio/sx126x/radio.c ****             RadioPublicNetwork.Current = RadioPublicNetwork.Previous;
 545:Core/Src/radio/sx126x/radio.c ****             RadioSetPublicNetwork( RadioPublicNetwork.Current );
 546:Core/Src/radio/sx126x/radio.c ****         }
 547:Core/Src/radio/sx126x/radio.c ****         break;
 548:Core/Src/radio/sx126x/radio.c ****     }
 549:Core/Src/radio/sx126x/radio.c **** }
 550:Core/Src/radio/sx126x/radio.c **** 
 551:Core/Src/radio/sx126x/radio.c **** void RadioSetChannel( uint32_t freq )
 552:Core/Src/radio/sx126x/radio.c **** {
 553:Core/Src/radio/sx126x/radio.c ****     SX126xSetRfFrequency( freq );
 554:Core/Src/radio/sx126x/radio.c **** }
 555:Core/Src/radio/sx126x/radio.c **** 
 556:Core/Src/radio/sx126x/radio.c **** bool RadioIsChannelFree( RadioModems_t modem, uint32_t freq, int16_t rssiThresh, uint32_t maxCarrie
 557:Core/Src/radio/sx126x/radio.c **** {
 558:Core/Src/radio/sx126x/radio.c ****     bool status = true;
 559:Core/Src/radio/sx126x/radio.c ****     int16_t rssi = 0;
 560:Core/Src/radio/sx126x/radio.c ****     uint32_t carrierSenseTime = 0;
 561:Core/Src/radio/sx126x/radio.c **** 
 562:Core/Src/radio/sx126x/radio.c ****     RadioSetModem( modem );
 563:Core/Src/radio/sx126x/radio.c **** 
 564:Core/Src/radio/sx126x/radio.c ****     RadioSetChannel( freq );
 565:Core/Src/radio/sx126x/radio.c **** 
 566:Core/Src/radio/sx126x/radio.c ****     RadioRx( 0 );
 567:Core/Src/radio/sx126x/radio.c **** 
 568:Core/Src/radio/sx126x/radio.c ****     DelayMs( 1 );
 569:Core/Src/radio/sx126x/radio.c **** 
 570:Core/Src/radio/sx126x/radio.c ****     carrierSenseTime = TimerGetCurrentTime( );
 571:Core/Src/radio/sx126x/radio.c **** 
 572:Core/Src/radio/sx126x/radio.c ****     // Perform carrier sense for maxCarrierSenseTime
 573:Core/Src/radio/sx126x/radio.c ****     while( TimerGetElapsedTime( carrierSenseTime ) < maxCarrierSenseTime )
 574:Core/Src/radio/sx126x/radio.c ****     {
 575:Core/Src/radio/sx126x/radio.c ****         rssi = RadioRssi( modem );
 576:Core/Src/radio/sx126x/radio.c **** 
 577:Core/Src/radio/sx126x/radio.c ****         if( rssi > rssiThresh )
ARM GAS  C:\Users\andywei\AppData\Local\Temp\cccFfT7V.s 			page 13


 578:Core/Src/radio/sx126x/radio.c ****         {
 579:Core/Src/radio/sx126x/radio.c ****             status = false;
 580:Core/Src/radio/sx126x/radio.c ****             break;
 581:Core/Src/radio/sx126x/radio.c ****         }
 582:Core/Src/radio/sx126x/radio.c ****     }
 583:Core/Src/radio/sx126x/radio.c ****     RadioSleep( );
 584:Core/Src/radio/sx126x/radio.c ****     return status;
 585:Core/Src/radio/sx126x/radio.c **** }
 586:Core/Src/radio/sx126x/radio.c **** 
 587:Core/Src/radio/sx126x/radio.c **** uint32_t RadioRandom( void )
 588:Core/Src/radio/sx126x/radio.c **** {
 589:Core/Src/radio/sx126x/radio.c ****     uint8_t i;
 590:Core/Src/radio/sx126x/radio.c ****     uint32_t rnd = 0;
 591:Core/Src/radio/sx126x/radio.c **** 
 592:Core/Src/radio/sx126x/radio.c ****     /*
 593:Core/Src/radio/sx126x/radio.c ****      * Radio setup for random number generation
 594:Core/Src/radio/sx126x/radio.c ****      */
 595:Core/Src/radio/sx126x/radio.c ****     // Set LoRa modem ON
 596:Core/Src/radio/sx126x/radio.c ****     RadioSetModem( MODEM_LORA );
 597:Core/Src/radio/sx126x/radio.c **** 
 598:Core/Src/radio/sx126x/radio.c ****     // Set radio in continuous reception
 599:Core/Src/radio/sx126x/radio.c ****     SX126xSetRx( 0 );
 600:Core/Src/radio/sx126x/radio.c **** 
 601:Core/Src/radio/sx126x/radio.c ****     for( i = 0; i < 32; i++ )
 602:Core/Src/radio/sx126x/radio.c ****     {
 603:Core/Src/radio/sx126x/radio.c ****         DelayMs( 1 );
 604:Core/Src/radio/sx126x/radio.c ****         // Unfiltered RSSI value reading. Only takes the LSB value
 605:Core/Src/radio/sx126x/radio.c ****         rnd |= ( ( uint32_t )SX126xGetRssiInst( ) & 0x01 ) << i;
 606:Core/Src/radio/sx126x/radio.c ****     }
 607:Core/Src/radio/sx126x/radio.c **** 
 608:Core/Src/radio/sx126x/radio.c ****     RadioSleep( );
 609:Core/Src/radio/sx126x/radio.c **** 
 610:Core/Src/radio/sx126x/radio.c ****     return rnd;
 611:Core/Src/radio/sx126x/radio.c **** }
 612:Core/Src/radio/sx126x/radio.c **** 
 613:Core/Src/radio/sx126x/radio.c **** void RadioSetRxConfig( RadioModems_t modem, uint32_t bandwidth,
 614:Core/Src/radio/sx126x/radio.c ****                          uint32_t datarate, uint8_t coderate,
 615:Core/Src/radio/sx126x/radio.c ****                          uint32_t bandwidthAfc, uint16_t preambleLen,
 616:Core/Src/radio/sx126x/radio.c ****                          uint16_t symbTimeout, bool fixLen,
 617:Core/Src/radio/sx126x/radio.c ****                          uint8_t payloadLen,
 618:Core/Src/radio/sx126x/radio.c ****                          bool crcOn, bool freqHopOn, uint8_t hopPeriod,
 619:Core/Src/radio/sx126x/radio.c ****                          bool iqInverted, bool rxContinuous )
 620:Core/Src/radio/sx126x/radio.c **** {
 621:Core/Src/radio/sx126x/radio.c **** 
 622:Core/Src/radio/sx126x/radio.c ****     RxContinuous = rxContinuous;
 623:Core/Src/radio/sx126x/radio.c **** 
 624:Core/Src/radio/sx126x/radio.c ****     if( fixLen == true )
 625:Core/Src/radio/sx126x/radio.c ****     {
 626:Core/Src/radio/sx126x/radio.c ****         MaxPayloadLength = payloadLen;
 627:Core/Src/radio/sx126x/radio.c ****     }
 628:Core/Src/radio/sx126x/radio.c ****     else
 629:Core/Src/radio/sx126x/radio.c ****     {
 630:Core/Src/radio/sx126x/radio.c ****         MaxPayloadLength = 0xFF;
 631:Core/Src/radio/sx126x/radio.c ****     }
 632:Core/Src/radio/sx126x/radio.c **** 
 633:Core/Src/radio/sx126x/radio.c ****     switch( modem )
 634:Core/Src/radio/sx126x/radio.c ****     {
ARM GAS  C:\Users\andywei\AppData\Local\Temp\cccFfT7V.s 			page 14


 635:Core/Src/radio/sx126x/radio.c ****         case MODEM_FSK:
 636:Core/Src/radio/sx126x/radio.c ****             SX126xSetStopRxTimerOnPreambleDetect( false );
 637:Core/Src/radio/sx126x/radio.c ****             SX126x.ModulationParams.PacketType = PACKET_TYPE_GFSK;
 638:Core/Src/radio/sx126x/radio.c **** 
 639:Core/Src/radio/sx126x/radio.c ****             SX126x.ModulationParams.Params.Gfsk.BitRate = datarate;
 640:Core/Src/radio/sx126x/radio.c ****             // SX126x.ModulationParams.Params.Gfsk.ModulationShaping = MOD_SHAPING_OFF;
 641:Core/Src/radio/sx126x/radio.c ****             // SX126x.ModulationParams.Params.Gfsk.ModulationShaping = MOD_SHAPING_G_BT_05;
 642:Core/Src/radio/sx126x/radio.c ****             SX126x.ModulationParams.Params.Gfsk.ModulationShaping = MOD_SHAPING_G_BT_1;
 643:Core/Src/radio/sx126x/radio.c ****             SX126x.ModulationParams.Params.Gfsk.Bandwidth = RadioGetFskBandwidthRegValue( bandwidth
 644:Core/Src/radio/sx126x/radio.c **** 
 645:Core/Src/radio/sx126x/radio.c ****             SX126x.PacketParams.PacketType = PACKET_TYPE_GFSK;
 646:Core/Src/radio/sx126x/radio.c ****             SX126x.PacketParams.Params.Gfsk.PreambleLength = ( preambleLen << 3 ); // convert byte 
 647:Core/Src/radio/sx126x/radio.c ****             // SX126x.PacketParams.Params.Gfsk.PreambleMinDetect = RADIO_PREAMBLE_DETECTOR_OFF;//RA
 648:Core/Src/radio/sx126x/radio.c ****             SX126x.PacketParams.Params.Gfsk.PreambleMinDetect = RADIO_PREAMBLE_DETECTOR_08_BITS;//R
 649:Core/Src/radio/sx126x/radio.c ****             // SX126x.PacketParams.Params.Gfsk.PreambleMinDetect = RADIO_PREAMBLE_DETECTOR_32_BITS;
 650:Core/Src/radio/sx126x/radio.c ****             SX126x.PacketParams.Params.Gfsk.SyncWordLength = 3 << 3; // convert byte into bit
 651:Core/Src/radio/sx126x/radio.c ****             SX126x.PacketParams.Params.Gfsk.AddrComp = RADIO_ADDRESSCOMP_FILT_OFF;
 652:Core/Src/radio/sx126x/radio.c ****             SX126x.PacketParams.Params.Gfsk.HeaderType = ( fixLen == true ) ? RADIO_PACKET_FIXED_LE
 653:Core/Src/radio/sx126x/radio.c ****             SX126x.PacketParams.Params.Gfsk.PayloadLength = MaxPayloadLength;
 654:Core/Src/radio/sx126x/radio.c ****             if( crcOn == true )
 655:Core/Src/radio/sx126x/radio.c ****             {
 656:Core/Src/radio/sx126x/radio.c ****                 // SX126x.PacketParams.Params.Gfsk.CrcLength = RADIO_CRC_2_BYTES_CCIT;//RADIO_CRC_2
 657:Core/Src/radio/sx126x/radio.c ****                 SX126x.PacketParams.Params.Gfsk.CrcLength = RADIO_CRC_2_BYTES_IBM;//
 658:Core/Src/radio/sx126x/radio.c ****             }
 659:Core/Src/radio/sx126x/radio.c ****             else
 660:Core/Src/radio/sx126x/radio.c ****             {
 661:Core/Src/radio/sx126x/radio.c ****                 SX126x.PacketParams.Params.Gfsk.CrcLength = RADIO_CRC_OFF;
 662:Core/Src/radio/sx126x/radio.c ****             }
 663:Core/Src/radio/sx126x/radio.c ****             // SX126x.PacketParams.Params.Gfsk.DcFree = RADIO_DC_FREE_OFF;//RADIO_DC_FREEWHITENING;
 664:Core/Src/radio/sx126x/radio.c ****             SX126x.PacketParams.Params.Gfsk.DcFree = RADIO_DC_FREEWHITENING;
 665:Core/Src/radio/sx126x/radio.c **** 
 666:Core/Src/radio/sx126x/radio.c ****             RadioStandby( );
 667:Core/Src/radio/sx126x/radio.c ****             RadioSetModem( ( SX126x.ModulationParams.PacketType == PACKET_TYPE_GFSK ) ? MODEM_FSK :
 668:Core/Src/radio/sx126x/radio.c ****             SX126xSetModulationParams( &SX126x.ModulationParams );
 669:Core/Src/radio/sx126x/radio.c ****             SX126xSetPacketParams( &SX126x.PacketParams );
 670:Core/Src/radio/sx126x/radio.c ****             // SX126xSetSyncWord( ( uint8_t[] ){ 0x2D, 0xD4, 0x00, 0x00, 0x00, 0x00, 0x00, 0x00 } )
 671:Core/Src/radio/sx126x/radio.c ****             SX126xSetSyncWord( ( uint8_t[] ){ 0xC1, 0x94, 0xC1, 0x00, 0x00, 0x00, 0x00, 0x00 } );
 672:Core/Src/radio/sx126x/radio.c ****             SX126xSetWhiteningSeed( 0x01FF );
 673:Core/Src/radio/sx126x/radio.c **** 
 674:Core/Src/radio/sx126x/radio.c ****             RxTimeout = ( uint32_t )( symbTimeout * ( ( 1.0 / ( double )datarate ) * 8.0 ) * 1000 )
 675:Core/Src/radio/sx126x/radio.c ****             break;
 676:Core/Src/radio/sx126x/radio.c **** 
 677:Core/Src/radio/sx126x/radio.c ****         case MODEM_LORA:
 678:Core/Src/radio/sx126x/radio.c ****             SX126xSetStopRxTimerOnPreambleDetect( false );
 679:Core/Src/radio/sx126x/radio.c ****             SX126xSetLoRaSymbNumTimeout( symbTimeout );
 680:Core/Src/radio/sx126x/radio.c ****             SX126x.ModulationParams.PacketType = PACKET_TYPE_LORA;
 681:Core/Src/radio/sx126x/radio.c ****             SX126x.ModulationParams.Params.LoRa.SpreadingFactor = ( RadioLoRaSpreadingFactors_t )da
 682:Core/Src/radio/sx126x/radio.c ****             SX126x.ModulationParams.Params.LoRa.Bandwidth = Bandwidths[bandwidth];
 683:Core/Src/radio/sx126x/radio.c ****             SX126x.ModulationParams.Params.LoRa.CodingRate = ( RadioLoRaCodingRates_t )coderate;
 684:Core/Src/radio/sx126x/radio.c **** 
 685:Core/Src/radio/sx126x/radio.c ****             if( ( ( bandwidth == 0 ) && ( ( datarate == 11 ) || ( datarate == 12 ) ) ) ||
 686:Core/Src/radio/sx126x/radio.c ****             ( ( bandwidth == 1 ) && ( datarate == 12 ) ) )
 687:Core/Src/radio/sx126x/radio.c ****             {
 688:Core/Src/radio/sx126x/radio.c ****                 SX126x.ModulationParams.Params.LoRa.LowDatarateOptimize = 0x01;
 689:Core/Src/radio/sx126x/radio.c ****             }
 690:Core/Src/radio/sx126x/radio.c ****             else
 691:Core/Src/radio/sx126x/radio.c ****             {
ARM GAS  C:\Users\andywei\AppData\Local\Temp\cccFfT7V.s 			page 15


 692:Core/Src/radio/sx126x/radio.c ****                 SX126x.ModulationParams.Params.LoRa.LowDatarateOptimize = 0x00;
 693:Core/Src/radio/sx126x/radio.c ****             }
 694:Core/Src/radio/sx126x/radio.c **** 
 695:Core/Src/radio/sx126x/radio.c ****             SX126x.PacketParams.PacketType = PACKET_TYPE_LORA;
 696:Core/Src/radio/sx126x/radio.c **** 
 697:Core/Src/radio/sx126x/radio.c ****             if( ( SX126x.ModulationParams.Params.LoRa.SpreadingFactor == LORA_SF5 ) ||
 698:Core/Src/radio/sx126x/radio.c ****                 ( SX126x.ModulationParams.Params.LoRa.SpreadingFactor == LORA_SF6 ) )
 699:Core/Src/radio/sx126x/radio.c ****             {
 700:Core/Src/radio/sx126x/radio.c ****                 if( preambleLen < 12 )
 701:Core/Src/radio/sx126x/radio.c ****                 {
 702:Core/Src/radio/sx126x/radio.c ****                     SX126x.PacketParams.Params.LoRa.PreambleLength = 12;
 703:Core/Src/radio/sx126x/radio.c ****                 }
 704:Core/Src/radio/sx126x/radio.c ****                 else
 705:Core/Src/radio/sx126x/radio.c ****                 {
 706:Core/Src/radio/sx126x/radio.c ****                     SX126x.PacketParams.Params.LoRa.PreambleLength = preambleLen;
 707:Core/Src/radio/sx126x/radio.c ****                 }
 708:Core/Src/radio/sx126x/radio.c ****             }
 709:Core/Src/radio/sx126x/radio.c ****             else
 710:Core/Src/radio/sx126x/radio.c ****             {
 711:Core/Src/radio/sx126x/radio.c ****                 SX126x.PacketParams.Params.LoRa.PreambleLength = preambleLen;
 712:Core/Src/radio/sx126x/radio.c ****             }
 713:Core/Src/radio/sx126x/radio.c **** 
 714:Core/Src/radio/sx126x/radio.c ****             SX126x.PacketParams.Params.LoRa.HeaderType = ( RadioLoRaPacketLengthsMode_t )fixLen;
 715:Core/Src/radio/sx126x/radio.c **** 
 716:Core/Src/radio/sx126x/radio.c ****             SX126x.PacketParams.Params.LoRa.PayloadLength = MaxPayloadLength;
 717:Core/Src/radio/sx126x/radio.c ****             SX126x.PacketParams.Params.LoRa.CrcMode = ( RadioLoRaCrcModes_t )crcOn;
 718:Core/Src/radio/sx126x/radio.c ****             SX126x.PacketParams.Params.LoRa.InvertIQ = ( RadioLoRaIQModes_t )iqInverted;
 719:Core/Src/radio/sx126x/radio.c **** 
 720:Core/Src/radio/sx126x/radio.c ****             RadioSetModem( ( SX126x.ModulationParams.PacketType == PACKET_TYPE_GFSK ) ? MODEM_FSK :
 721:Core/Src/radio/sx126x/radio.c ****             SX126xSetModulationParams( &SX126x.ModulationParams );
 722:Core/Src/radio/sx126x/radio.c ****             SX126xSetPacketParams( &SX126x.PacketParams );
 723:Core/Src/radio/sx126x/radio.c **** 
 724:Core/Src/radio/sx126x/radio.c ****             // Timeout Max, Timeout handled directly in SetRx function
 725:Core/Src/radio/sx126x/radio.c ****             RxTimeout = 0xFFFF;
 726:Core/Src/radio/sx126x/radio.c **** 
 727:Core/Src/radio/sx126x/radio.c ****             break;
 728:Core/Src/radio/sx126x/radio.c ****     }
 729:Core/Src/radio/sx126x/radio.c **** }
 730:Core/Src/radio/sx126x/radio.c **** 
 731:Core/Src/radio/sx126x/radio.c **** void RadioSetTxConfig( RadioModems_t modem, int8_t power, uint32_t fdev,
 732:Core/Src/radio/sx126x/radio.c ****                         uint32_t bandwidth, uint32_t datarate,
 733:Core/Src/radio/sx126x/radio.c ****                         uint8_t coderate, uint16_t preambleLen,
 734:Core/Src/radio/sx126x/radio.c ****                         bool fixLen, bool crcOn, bool freqHopOn,
 735:Core/Src/radio/sx126x/radio.c ****                         uint8_t hopPeriod, bool iqInverted, uint32_t timeout )
 736:Core/Src/radio/sx126x/radio.c **** {
 737:Core/Src/radio/sx126x/radio.c **** 
 738:Core/Src/radio/sx126x/radio.c ****     switch( modem )
 739:Core/Src/radio/sx126x/radio.c ****     {
 740:Core/Src/radio/sx126x/radio.c ****         case MODEM_FSK:
 741:Core/Src/radio/sx126x/radio.c ****             SX126x.ModulationParams.PacketType = PACKET_TYPE_GFSK;
 742:Core/Src/radio/sx126x/radio.c ****             SX126x.ModulationParams.Params.Gfsk.BitRate = datarate;
 743:Core/Src/radio/sx126x/radio.c **** 
 744:Core/Src/radio/sx126x/radio.c ****             SX126x.ModulationParams.Params.Gfsk.ModulationShaping = MOD_SHAPING_G_BT_1;
 745:Core/Src/radio/sx126x/radio.c ****             // SX126x.ModulationParams.Params.Gfsk.ModulationShaping = MOD_SHAPING_G_BT_05;
 746:Core/Src/radio/sx126x/radio.c ****             SX126x.ModulationParams.Params.Gfsk.Bandwidth = RadioGetFskBandwidthRegValue( bandwidth
 747:Core/Src/radio/sx126x/radio.c ****             SX126x.ModulationParams.Params.Gfsk.Fdev = fdev;
 748:Core/Src/radio/sx126x/radio.c **** 
ARM GAS  C:\Users\andywei\AppData\Local\Temp\cccFfT7V.s 			page 16


 749:Core/Src/radio/sx126x/radio.c ****             SX126x.PacketParams.PacketType = PACKET_TYPE_GFSK;
 750:Core/Src/radio/sx126x/radio.c ****             SX126x.PacketParams.Params.Gfsk.PreambleLength = ( preambleLen << 3 ); // convert byte 
 751:Core/Src/radio/sx126x/radio.c ****             SX126x.PacketParams.Params.Gfsk.PreambleMinDetect = RADIO_PREAMBLE_DETECTOR_08_BITS;
 752:Core/Src/radio/sx126x/radio.c ****             SX126x.PacketParams.Params.Gfsk.SyncWordLength = 2 << 3 ; // convert byte into bit
 753:Core/Src/radio/sx126x/radio.c ****             SX126x.PacketParams.Params.Gfsk.AddrComp = RADIO_ADDRESSCOMP_FILT_OFF;
 754:Core/Src/radio/sx126x/radio.c ****             SX126x.PacketParams.Params.Gfsk.HeaderType = ( fixLen == true ) ? RADIO_PACKET_FIXED_LE
 755:Core/Src/radio/sx126x/radio.c **** 
 756:Core/Src/radio/sx126x/radio.c ****             if( crcOn == true )
 757:Core/Src/radio/sx126x/radio.c ****             {
 758:Core/Src/radio/sx126x/radio.c ****                 // SX126x.PacketParams.Params.Gfsk.CrcLength = RADIO_CRC_2_BYTES_CCIT;
 759:Core/Src/radio/sx126x/radio.c ****                 SX126x.PacketParams.Params.Gfsk.CrcLength = RADIO_CRC_2_BYTES_IBM;
 760:Core/Src/radio/sx126x/radio.c ****             }
 761:Core/Src/radio/sx126x/radio.c ****             else
 762:Core/Src/radio/sx126x/radio.c ****             {
 763:Core/Src/radio/sx126x/radio.c ****                 SX126x.PacketParams.Params.Gfsk.CrcLength = RADIO_CRC_OFF;
 764:Core/Src/radio/sx126x/radio.c ****             }
 765:Core/Src/radio/sx126x/radio.c ****             SX126x.PacketParams.Params.Gfsk.DcFree = RADIO_DC_FREE_OFF;
 766:Core/Src/radio/sx126x/radio.c ****             // SX126x.PacketParams.Params.Gfsk.DcFree = RADIO_DC_FREEWHITENING;
 767:Core/Src/radio/sx126x/radio.c **** 
 768:Core/Src/radio/sx126x/radio.c ****             RadioStandby( );
 769:Core/Src/radio/sx126x/radio.c ****             RadioSetModem( ( SX126x.ModulationParams.PacketType == PACKET_TYPE_GFSK ) ? MODEM_FSK :
 770:Core/Src/radio/sx126x/radio.c ****             SX126xSetModulationParams( &SX126x.ModulationParams );
 771:Core/Src/radio/sx126x/radio.c ****             SX126xSetPacketParams( &SX126x.PacketParams );
 772:Core/Src/radio/sx126x/radio.c ****             SX126xSetSyncWord( ( uint8_t[] ){ 0x2D, 0xD4, 0xC1, 0x00, 0x00, 0x00, 0x00, 0x00 } );
 773:Core/Src/radio/sx126x/radio.c ****             SX126xSetWhiteningSeed( 0x01FF );
 774:Core/Src/radio/sx126x/radio.c ****             // SX126xSetWhiteningSeed( 0x0000 );
 775:Core/Src/radio/sx126x/radio.c ****             break;
 776:Core/Src/radio/sx126x/radio.c **** 
 777:Core/Src/radio/sx126x/radio.c ****         case MODEM_LORA:
 778:Core/Src/radio/sx126x/radio.c ****             SX126x.ModulationParams.PacketType = PACKET_TYPE_LORA;
 779:Core/Src/radio/sx126x/radio.c ****             SX126x.ModulationParams.Params.LoRa.SpreadingFactor = ( RadioLoRaSpreadingFactors_t ) d
 780:Core/Src/radio/sx126x/radio.c ****             SX126x.ModulationParams.Params.LoRa.Bandwidth =  Bandwidths[bandwidth];
 781:Core/Src/radio/sx126x/radio.c ****             SX126x.ModulationParams.Params.LoRa.CodingRate= ( RadioLoRaCodingRates_t )coderate;
 782:Core/Src/radio/sx126x/radio.c **** 
 783:Core/Src/radio/sx126x/radio.c ****             if( ( ( bandwidth == 0 ) && ( ( datarate == 11 ) || ( datarate == 12 ) ) ) ||
 784:Core/Src/radio/sx126x/radio.c ****             ( ( bandwidth == 1 ) && ( datarate == 12 ) ) )
 785:Core/Src/radio/sx126x/radio.c ****             {
 786:Core/Src/radio/sx126x/radio.c ****                 SX126x.ModulationParams.Params.LoRa.LowDatarateOptimize = 0x01;
 787:Core/Src/radio/sx126x/radio.c ****             }
 788:Core/Src/radio/sx126x/radio.c ****             else
 789:Core/Src/radio/sx126x/radio.c ****             {
 790:Core/Src/radio/sx126x/radio.c ****                 SX126x.ModulationParams.Params.LoRa.LowDatarateOptimize = 0x00;
 791:Core/Src/radio/sx126x/radio.c ****             }
 792:Core/Src/radio/sx126x/radio.c **** 
 793:Core/Src/radio/sx126x/radio.c ****             SX126x.PacketParams.PacketType = PACKET_TYPE_LORA;
 794:Core/Src/radio/sx126x/radio.c **** 
 795:Core/Src/radio/sx126x/radio.c ****             if( ( SX126x.ModulationParams.Params.LoRa.SpreadingFactor == LORA_SF5 ) ||
 796:Core/Src/radio/sx126x/radio.c ****                 ( SX126x.ModulationParams.Params.LoRa.SpreadingFactor == LORA_SF6 ) )
 797:Core/Src/radio/sx126x/radio.c ****             {
 798:Core/Src/radio/sx126x/radio.c ****                 if( preambleLen < 12 )
 799:Core/Src/radio/sx126x/radio.c ****                 {
 800:Core/Src/radio/sx126x/radio.c ****                     SX126x.PacketParams.Params.LoRa.PreambleLength = 12;
 801:Core/Src/radio/sx126x/radio.c ****                 }
 802:Core/Src/radio/sx126x/radio.c ****                 else
 803:Core/Src/radio/sx126x/radio.c ****                 {
 804:Core/Src/radio/sx126x/radio.c ****                     SX126x.PacketParams.Params.LoRa.PreambleLength = preambleLen;
 805:Core/Src/radio/sx126x/radio.c ****                 }
ARM GAS  C:\Users\andywei\AppData\Local\Temp\cccFfT7V.s 			page 17


 806:Core/Src/radio/sx126x/radio.c ****             }
 807:Core/Src/radio/sx126x/radio.c ****             else
 808:Core/Src/radio/sx126x/radio.c ****             {
 809:Core/Src/radio/sx126x/radio.c ****                 SX126x.PacketParams.Params.LoRa.PreambleLength = preambleLen;
 810:Core/Src/radio/sx126x/radio.c ****             }
 811:Core/Src/radio/sx126x/radio.c **** 
 812:Core/Src/radio/sx126x/radio.c ****             SX126x.PacketParams.Params.LoRa.HeaderType = ( RadioLoRaPacketLengthsMode_t )fixLen;
 813:Core/Src/radio/sx126x/radio.c ****             SX126x.PacketParams.Params.LoRa.PayloadLength = MaxPayloadLength;
 814:Core/Src/radio/sx126x/radio.c ****             SX126x.PacketParams.Params.LoRa.CrcMode = ( RadioLoRaCrcModes_t )crcOn;
 815:Core/Src/radio/sx126x/radio.c ****             SX126x.PacketParams.Params.LoRa.InvertIQ = ( RadioLoRaIQModes_t )iqInverted;
 816:Core/Src/radio/sx126x/radio.c **** 
 817:Core/Src/radio/sx126x/radio.c ****             RadioStandby( );
 818:Core/Src/radio/sx126x/radio.c ****             RadioSetModem( ( SX126x.ModulationParams.PacketType == PACKET_TYPE_GFSK ) ? MODEM_FSK :
 819:Core/Src/radio/sx126x/radio.c ****             SX126xSetModulationParams( &SX126x.ModulationParams );
 820:Core/Src/radio/sx126x/radio.c ****             SX126xSetPacketParams( &SX126x.PacketParams );
 821:Core/Src/radio/sx126x/radio.c ****             break;
 822:Core/Src/radio/sx126x/radio.c ****     }
 823:Core/Src/radio/sx126x/radio.c ****     SX126xSetRfTxPower( power );
 824:Core/Src/radio/sx126x/radio.c ****     TxTimeout = timeout;
 825:Core/Src/radio/sx126x/radio.c **** }
 826:Core/Src/radio/sx126x/radio.c **** 
 827:Core/Src/radio/sx126x/radio.c **** bool RadioCheckRfFrequency( uint32_t frequency )
 828:Core/Src/radio/sx126x/radio.c **** {
 110              		.loc 1 828 1 is_stmt 1 view -0
 111              		.cfi_startproc
 112              		@ args = 0, pretend = 0, frame = 0
 113              		@ frame_needed = 0, uses_anonymous_args = 0
 114              		@ link register save eliminated.
 829:Core/Src/radio/sx126x/radio.c ****     return true;
 115              		.loc 1 829 5 view .LVU25
 830:Core/Src/radio/sx126x/radio.c **** }
 116              		.loc 1 830 1 is_stmt 0 view .LVU26
 117 0000 0120     		movs	r0, #1
 118              	.LVL9:
 119              		.loc 1 830 1 view .LVU27
 120 0002 7047     		bx	lr
 121              		.cfi_endproc
 122              	.LFE144:
 124              		.section	.text.RadioGetWakeupTime,"ax",%progbits
 125              		.align	1
 126              		.global	RadioGetWakeupTime
 127              		.syntax unified
 128              		.thumb
 129              		.thumb_func
 130              		.fpu fpv4-sp-d16
 132              	RadioGetWakeupTime:
 133              	.LFB164:
 831:Core/Src/radio/sx126x/radio.c **** 
 832:Core/Src/radio/sx126x/radio.c **** uint32_t RadioTimeOnAir( RadioModems_t modem, uint8_t pktLen )
 833:Core/Src/radio/sx126x/radio.c **** {
 834:Core/Src/radio/sx126x/radio.c ****     uint32_t airTime = 0;
 835:Core/Src/radio/sx126x/radio.c **** 
 836:Core/Src/radio/sx126x/radio.c ****     switch( modem )
 837:Core/Src/radio/sx126x/radio.c ****     {
 838:Core/Src/radio/sx126x/radio.c ****     case MODEM_FSK:
 839:Core/Src/radio/sx126x/radio.c ****         {
 840:Core/Src/radio/sx126x/radio.c ****            airTime = rint( ( 8 * ( SX126x.PacketParams.Params.Gfsk.PreambleLength +
ARM GAS  C:\Users\andywei\AppData\Local\Temp\cccFfT7V.s 			page 18


 841:Core/Src/radio/sx126x/radio.c ****                                      ( SX126x.PacketParams.Params.Gfsk.SyncWordLength >> 3 ) +
 842:Core/Src/radio/sx126x/radio.c ****                                      ( ( SX126x.PacketParams.Params.Gfsk.HeaderType == RADIO_PACKET
 843:Core/Src/radio/sx126x/radio.c ****                                      pktLen +
 844:Core/Src/radio/sx126x/radio.c ****                                      ( ( SX126x.PacketParams.Params.Gfsk.CrcLength == RADIO_CRC_2_B
 845:Core/Src/radio/sx126x/radio.c ****                                      SX126x.ModulationParams.Params.Gfsk.BitRate ) * 1e3 );
 846:Core/Src/radio/sx126x/radio.c ****         }
 847:Core/Src/radio/sx126x/radio.c ****         break;
 848:Core/Src/radio/sx126x/radio.c ****     case MODEM_LORA:
 849:Core/Src/radio/sx126x/radio.c ****         {
 850:Core/Src/radio/sx126x/radio.c ****             double ts = RadioLoRaSymbTime[SX126x.ModulationParams.Params.LoRa.Bandwidth - 4][12 - S
 851:Core/Src/radio/sx126x/radio.c ****             // time of preamble
 852:Core/Src/radio/sx126x/radio.c ****             double tPreamble = ( SX126x.PacketParams.Params.LoRa.PreambleLength + 4.25 ) * ts;
 853:Core/Src/radio/sx126x/radio.c ****             // Symbol length of payload and time
 854:Core/Src/radio/sx126x/radio.c ****             double tmp = ceil( ( 8 * pktLen - 4 * SX126x.ModulationParams.Params.LoRa.SpreadingFact
 855:Core/Src/radio/sx126x/radio.c ****                                  28 + 16 * SX126x.PacketParams.Params.LoRa.CrcMode -
 856:Core/Src/radio/sx126x/radio.c ****                                  ( ( SX126x.PacketParams.Params.LoRa.HeaderType == LORA_PACKET_FIXE
 857:Core/Src/radio/sx126x/radio.c ****                                  ( double )( 4 * ( SX126x.ModulationParams.Params.LoRa.SpreadingFac
 858:Core/Src/radio/sx126x/radio.c ****                                  ( ( SX126x.ModulationParams.Params.LoRa.LowDatarateOptimize > 0 ) 
 859:Core/Src/radio/sx126x/radio.c ****                                  ( ( SX126x.ModulationParams.Params.LoRa.CodingRate % 4 ) + 4 );
 860:Core/Src/radio/sx126x/radio.c ****             double nPayload = 8 + ( ( tmp > 0 ) ? tmp : 0 );
 861:Core/Src/radio/sx126x/radio.c ****             double tPayload = nPayload * ts;
 862:Core/Src/radio/sx126x/radio.c ****             // Time on air
 863:Core/Src/radio/sx126x/radio.c ****             double tOnAir = tPreamble + tPayload;
 864:Core/Src/radio/sx126x/radio.c ****             // return milli seconds
 865:Core/Src/radio/sx126x/radio.c ****             airTime = floor( tOnAir + 0.999 );
 866:Core/Src/radio/sx126x/radio.c ****         }
 867:Core/Src/radio/sx126x/radio.c ****         break;
 868:Core/Src/radio/sx126x/radio.c ****     }
 869:Core/Src/radio/sx126x/radio.c ****     return airTime;
 870:Core/Src/radio/sx126x/radio.c **** }
 871:Core/Src/radio/sx126x/radio.c **** 
 872:Core/Src/radio/sx126x/radio.c **** void RadioSend( uint8_t *buffer, uint8_t size )
 873:Core/Src/radio/sx126x/radio.c **** {
 874:Core/Src/radio/sx126x/radio.c ****     SX126xSetDioIrqParams( IRQ_TX_DONE | IRQ_RX_TX_TIMEOUT,
 875:Core/Src/radio/sx126x/radio.c ****                            IRQ_TX_DONE | IRQ_RX_TX_TIMEOUT,
 876:Core/Src/radio/sx126x/radio.c ****                            IRQ_RADIO_NONE,
 877:Core/Src/radio/sx126x/radio.c ****                            IRQ_RADIO_NONE );
 878:Core/Src/radio/sx126x/radio.c **** 
 879:Core/Src/radio/sx126x/radio.c ****     if( SX126xGetPacketType( ) == PACKET_TYPE_LORA )
 880:Core/Src/radio/sx126x/radio.c ****     {
 881:Core/Src/radio/sx126x/radio.c ****         SX126x.PacketParams.Params.LoRa.PayloadLength = size;
 882:Core/Src/radio/sx126x/radio.c ****     }
 883:Core/Src/radio/sx126x/radio.c ****     else
 884:Core/Src/radio/sx126x/radio.c ****     {
 885:Core/Src/radio/sx126x/radio.c ****         SX126x.PacketParams.Params.Gfsk.PayloadLength = size;
 886:Core/Src/radio/sx126x/radio.c ****     }
 887:Core/Src/radio/sx126x/radio.c ****     SX126xSetPacketParams( &SX126x.PacketParams );
 888:Core/Src/radio/sx126x/radio.c **** 
 889:Core/Src/radio/sx126x/radio.c ****     SX126xSendPayload( buffer, size, 0 );
 890:Core/Src/radio/sx126x/radio.c ****     TimerSetValue( &TxTimeoutTimer, TxTimeout );
 891:Core/Src/radio/sx126x/radio.c ****     TimerStart( &TxTimeoutTimer );
 892:Core/Src/radio/sx126x/radio.c **** }
 893:Core/Src/radio/sx126x/radio.c **** 
 894:Core/Src/radio/sx126x/radio.c **** void RadioSleep( void )
 895:Core/Src/radio/sx126x/radio.c **** {
 896:Core/Src/radio/sx126x/radio.c ****     SleepParams_t params = { 0 };
 897:Core/Src/radio/sx126x/radio.c **** 
ARM GAS  C:\Users\andywei\AppData\Local\Temp\cccFfT7V.s 			page 19


 898:Core/Src/radio/sx126x/radio.c ****     params.Fields.WarmStart = 1;
 899:Core/Src/radio/sx126x/radio.c ****     SX126xSetSleep( params );
 900:Core/Src/radio/sx126x/radio.c **** 
 901:Core/Src/radio/sx126x/radio.c ****     DelayMs( 2 );
 902:Core/Src/radio/sx126x/radio.c **** }
 903:Core/Src/radio/sx126x/radio.c **** 
 904:Core/Src/radio/sx126x/radio.c **** void RadioStandby( void )
 905:Core/Src/radio/sx126x/radio.c **** {
 906:Core/Src/radio/sx126x/radio.c ****     SX126xSetStandby( STDBY_RC );
 907:Core/Src/radio/sx126x/radio.c **** }
 908:Core/Src/radio/sx126x/radio.c **** 
 909:Core/Src/radio/sx126x/radio.c **** void RadioRx( uint32_t timeout )
 910:Core/Src/radio/sx126x/radio.c **** {
 911:Core/Src/radio/sx126x/radio.c ****     SX126xSetDioIrqParams( IRQ_RADIO_ALL, //IRQ_RX_DONE | IRQ_RX_TX_TIMEOUT,
 912:Core/Src/radio/sx126x/radio.c ****                            IRQ_RADIO_ALL, //IRQ_RX_DONE | IRQ_RX_TX_TIMEOUT,
 913:Core/Src/radio/sx126x/radio.c ****                            IRQ_RADIO_NONE,
 914:Core/Src/radio/sx126x/radio.c ****                            IRQ_RADIO_NONE );
 915:Core/Src/radio/sx126x/radio.c **** 
 916:Core/Src/radio/sx126x/radio.c ****     if( timeout != 0 )
 917:Core/Src/radio/sx126x/radio.c ****     {
 918:Core/Src/radio/sx126x/radio.c ****         TimerSetValue( &RxTimeoutTimer, timeout );
 919:Core/Src/radio/sx126x/radio.c ****         TimerStart( &RxTimeoutTimer );
 920:Core/Src/radio/sx126x/radio.c ****     }
 921:Core/Src/radio/sx126x/radio.c **** 
 922:Core/Src/radio/sx126x/radio.c ****     if( RxContinuous == true )
 923:Core/Src/radio/sx126x/radio.c ****     {
 924:Core/Src/radio/sx126x/radio.c ****         SX126xSetRx( 0xFFFFFF ); // Rx Continuous
 925:Core/Src/radio/sx126x/radio.c ****     }
 926:Core/Src/radio/sx126x/radio.c ****     else
 927:Core/Src/radio/sx126x/radio.c ****     {
 928:Core/Src/radio/sx126x/radio.c ****         SX126xSetRx( RxTimeout << 6 );
 929:Core/Src/radio/sx126x/radio.c ****     }
 930:Core/Src/radio/sx126x/radio.c **** }
 931:Core/Src/radio/sx126x/radio.c **** 
 932:Core/Src/radio/sx126x/radio.c **** void RadioRxBoosted( uint32_t timeout )
 933:Core/Src/radio/sx126x/radio.c **** {
 934:Core/Src/radio/sx126x/radio.c ****     SX126xSetDioIrqParams( IRQ_RADIO_ALL, //IRQ_RX_DONE | IRQ_RX_TX_TIMEOUT,
 935:Core/Src/radio/sx126x/radio.c ****                            IRQ_RADIO_ALL, //IRQ_RX_DONE | IRQ_RX_TX_TIMEOUT,
 936:Core/Src/radio/sx126x/radio.c ****                            IRQ_RADIO_NONE,
 937:Core/Src/radio/sx126x/radio.c ****                            IRQ_RADIO_NONE );
 938:Core/Src/radio/sx126x/radio.c **** 
 939:Core/Src/radio/sx126x/radio.c ****     if( timeout != 0 )
 940:Core/Src/radio/sx126x/radio.c ****     {    
 941:Core/Src/radio/sx126x/radio.c ****         TimerSetValue( &RxTimeoutTimer, timeout );
 942:Core/Src/radio/sx126x/radio.c ****         TimerStart( &RxTimeoutTimer );
 943:Core/Src/radio/sx126x/radio.c ****     }
 944:Core/Src/radio/sx126x/radio.c **** 
 945:Core/Src/radio/sx126x/radio.c ****     if( RxContinuous == true )
 946:Core/Src/radio/sx126x/radio.c ****     {
 947:Core/Src/radio/sx126x/radio.c ****         SX126xSetRxBoosted( 0xFFFFFF ); // Rx Continuous
 948:Core/Src/radio/sx126x/radio.c ****     }
 949:Core/Src/radio/sx126x/radio.c ****     else
 950:Core/Src/radio/sx126x/radio.c ****     {
 951:Core/Src/radio/sx126x/radio.c ****         SX126xSetRxBoosted( RxTimeout << 6 );
 952:Core/Src/radio/sx126x/radio.c ****     }
 953:Core/Src/radio/sx126x/radio.c **** }
 954:Core/Src/radio/sx126x/radio.c **** 
ARM GAS  C:\Users\andywei\AppData\Local\Temp\cccFfT7V.s 			page 20


 955:Core/Src/radio/sx126x/radio.c **** void RadioSetRxDutyCycle( uint32_t rxTime, uint32_t sleepTime )
 956:Core/Src/radio/sx126x/radio.c **** {
 957:Core/Src/radio/sx126x/radio.c ****     SX126xSetRxDutyCycle( rxTime, sleepTime );
 958:Core/Src/radio/sx126x/radio.c **** }
 959:Core/Src/radio/sx126x/radio.c **** 
 960:Core/Src/radio/sx126x/radio.c **** void RadioStartCad( void )
 961:Core/Src/radio/sx126x/radio.c **** {
 962:Core/Src/radio/sx126x/radio.c ****     SX126xSetCad( );
 963:Core/Src/radio/sx126x/radio.c **** }
 964:Core/Src/radio/sx126x/radio.c **** 
 965:Core/Src/radio/sx126x/radio.c **** void RadioTx( uint32_t timeout )
 966:Core/Src/radio/sx126x/radio.c **** {
 967:Core/Src/radio/sx126x/radio.c ****     SX126xSetTx( timeout << 6 );
 968:Core/Src/radio/sx126x/radio.c **** }
 969:Core/Src/radio/sx126x/radio.c **** 
 970:Core/Src/radio/sx126x/radio.c **** void RadioSetTxContinuousWave( uint32_t freq, int8_t power, uint16_t time )
 971:Core/Src/radio/sx126x/radio.c **** {
 972:Core/Src/radio/sx126x/radio.c ****     SX126xSetRfFrequency( freq );
 973:Core/Src/radio/sx126x/radio.c ****     SX126xSetRfTxPower( power );
 974:Core/Src/radio/sx126x/radio.c ****     SX126xSetTxContinuousWave( );
 975:Core/Src/radio/sx126x/radio.c **** 
 976:Core/Src/radio/sx126x/radio.c ****     TimerSetValue( &RxTimeoutTimer, time  * 1e3 );
 977:Core/Src/radio/sx126x/radio.c ****     TimerStart( &RxTimeoutTimer );
 978:Core/Src/radio/sx126x/radio.c **** }
 979:Core/Src/radio/sx126x/radio.c **** 
 980:Core/Src/radio/sx126x/radio.c **** int16_t RadioRssi( RadioModems_t modem )
 981:Core/Src/radio/sx126x/radio.c **** {
 982:Core/Src/radio/sx126x/radio.c ****     return SX126xGetRssiInst( );
 983:Core/Src/radio/sx126x/radio.c **** }
 984:Core/Src/radio/sx126x/radio.c **** 
 985:Core/Src/radio/sx126x/radio.c **** void RadioWrite( uint16_t addr, uint8_t data )
 986:Core/Src/radio/sx126x/radio.c **** {
 987:Core/Src/radio/sx126x/radio.c ****     SX126xWriteRegister( addr, data );
 988:Core/Src/radio/sx126x/radio.c **** }
 989:Core/Src/radio/sx126x/radio.c **** 
 990:Core/Src/radio/sx126x/radio.c **** uint8_t RadioRead( uint16_t addr )
 991:Core/Src/radio/sx126x/radio.c **** {
 992:Core/Src/radio/sx126x/radio.c ****     return SX126xReadRegister( addr );
 993:Core/Src/radio/sx126x/radio.c **** }
 994:Core/Src/radio/sx126x/radio.c **** 
 995:Core/Src/radio/sx126x/radio.c **** void RadioWriteBuffer( uint16_t addr, uint8_t *buffer, uint8_t size )
 996:Core/Src/radio/sx126x/radio.c **** {
 997:Core/Src/radio/sx126x/radio.c ****     SX126xWriteRegisters( addr, buffer, size );
 998:Core/Src/radio/sx126x/radio.c **** }
 999:Core/Src/radio/sx126x/radio.c **** 
1000:Core/Src/radio/sx126x/radio.c **** void RadioReadBuffer( uint16_t addr, uint8_t *buffer, uint8_t size )
1001:Core/Src/radio/sx126x/radio.c **** {
1002:Core/Src/radio/sx126x/radio.c ****     SX126xReadRegisters( addr, buffer, size );
1003:Core/Src/radio/sx126x/radio.c **** }
1004:Core/Src/radio/sx126x/radio.c **** 
1005:Core/Src/radio/sx126x/radio.c **** void RadioWriteFifo( uint8_t *buffer, uint8_t size )
1006:Core/Src/radio/sx126x/radio.c **** {
1007:Core/Src/radio/sx126x/radio.c ****     SX126xWriteBuffer( 0, buffer, size );
1008:Core/Src/radio/sx126x/radio.c **** }
1009:Core/Src/radio/sx126x/radio.c **** 
1010:Core/Src/radio/sx126x/radio.c **** void RadioReadFifo( uint8_t *buffer, uint8_t size )
1011:Core/Src/radio/sx126x/radio.c **** {
ARM GAS  C:\Users\andywei\AppData\Local\Temp\cccFfT7V.s 			page 21


1012:Core/Src/radio/sx126x/radio.c ****     SX126xReadBuffer( 0, buffer, size );
1013:Core/Src/radio/sx126x/radio.c **** }
1014:Core/Src/radio/sx126x/radio.c **** 
1015:Core/Src/radio/sx126x/radio.c **** void RadioSetMaxPayloadLength( RadioModems_t modem, uint8_t max )
1016:Core/Src/radio/sx126x/radio.c **** {
1017:Core/Src/radio/sx126x/radio.c ****     if( modem == MODEM_LORA )
1018:Core/Src/radio/sx126x/radio.c ****     {
1019:Core/Src/radio/sx126x/radio.c ****         SX126x.PacketParams.Params.LoRa.PayloadLength = MaxPayloadLength = max;
1020:Core/Src/radio/sx126x/radio.c ****         SX126xSetPacketParams( &SX126x.PacketParams );
1021:Core/Src/radio/sx126x/radio.c ****     }
1022:Core/Src/radio/sx126x/radio.c ****     else
1023:Core/Src/radio/sx126x/radio.c ****     {
1024:Core/Src/radio/sx126x/radio.c ****         if( SX126x.PacketParams.Params.Gfsk.HeaderType == RADIO_PACKET_VARIABLE_LENGTH )
1025:Core/Src/radio/sx126x/radio.c ****         {
1026:Core/Src/radio/sx126x/radio.c ****             SX126x.PacketParams.Params.Gfsk.PayloadLength = MaxPayloadLength = max;
1027:Core/Src/radio/sx126x/radio.c ****             SX126xSetPacketParams( &SX126x.PacketParams );
1028:Core/Src/radio/sx126x/radio.c ****         }
1029:Core/Src/radio/sx126x/radio.c ****     }
1030:Core/Src/radio/sx126x/radio.c **** }
1031:Core/Src/radio/sx126x/radio.c **** 
1032:Core/Src/radio/sx126x/radio.c **** void RadioSetPublicNetwork( bool enable )
1033:Core/Src/radio/sx126x/radio.c **** {
1034:Core/Src/radio/sx126x/radio.c ****     RadioPublicNetwork.Current = RadioPublicNetwork.Previous = enable;
1035:Core/Src/radio/sx126x/radio.c **** 
1036:Core/Src/radio/sx126x/radio.c ****     RadioSetModem( MODEM_LORA );
1037:Core/Src/radio/sx126x/radio.c ****     if( enable == true )
1038:Core/Src/radio/sx126x/radio.c ****     {
1039:Core/Src/radio/sx126x/radio.c ****         // Change LoRa modem SyncWord
1040:Core/Src/radio/sx126x/radio.c ****         SX126xWriteRegister( REG_LR_SYNCWORD, ( LORA_MAC_PUBLIC_SYNCWORD >> 8 ) & 0xFF );
1041:Core/Src/radio/sx126x/radio.c ****         SX126xWriteRegister( REG_LR_SYNCWORD + 1, LORA_MAC_PUBLIC_SYNCWORD & 0xFF );
1042:Core/Src/radio/sx126x/radio.c ****     }
1043:Core/Src/radio/sx126x/radio.c ****     else
1044:Core/Src/radio/sx126x/radio.c ****     {
1045:Core/Src/radio/sx126x/radio.c ****         // Change LoRa modem SyncWord
1046:Core/Src/radio/sx126x/radio.c ****         SX126xWriteRegister( REG_LR_SYNCWORD, ( LORA_MAC_PRIVATE_SYNCWORD >> 8 ) & 0xFF );
1047:Core/Src/radio/sx126x/radio.c ****         SX126xWriteRegister( REG_LR_SYNCWORD + 1, LORA_MAC_PRIVATE_SYNCWORD & 0xFF );
1048:Core/Src/radio/sx126x/radio.c ****     }
1049:Core/Src/radio/sx126x/radio.c **** }
1050:Core/Src/radio/sx126x/radio.c **** 
1051:Core/Src/radio/sx126x/radio.c **** uint32_t RadioGetWakeupTime( void )
1052:Core/Src/radio/sx126x/radio.c **** {
 134              		.loc 1 1052 1 is_stmt 1 view -0
 135              		.cfi_startproc
 136              		@ args = 0, pretend = 0, frame = 0
 137              		@ frame_needed = 0, uses_anonymous_args = 0
 138              		@ link register save eliminated.
1053:Core/Src/radio/sx126x/radio.c ****     return( RADIO_TCXO_SETUP_TIME + RADIO_WAKEUP_TIME );
 139              		.loc 1 1053 5 view .LVU29
1054:Core/Src/radio/sx126x/radio.c **** }
 140              		.loc 1 1054 1 is_stmt 0 view .LVU30
 141 0000 0320     		movs	r0, #3
 142 0002 7047     		bx	lr
 143              		.cfi_endproc
 144              	.LFE164:
 146              		.section	.text.RadioOnTxTimeoutIrq,"ax",%progbits
 147              		.align	1
 148              		.global	RadioOnTxTimeoutIrq
ARM GAS  C:\Users\andywei\AppData\Local\Temp\cccFfT7V.s 			page 22


 149              		.syntax unified
 150              		.thumb
 151              		.thumb_func
 152              		.fpu fpv4-sp-d16
 154              	RadioOnTxTimeoutIrq:
 155              	.LFB165:
1055:Core/Src/radio/sx126x/radio.c **** 
1056:Core/Src/radio/sx126x/radio.c **** void RadioOnTxTimeoutIrq( void )
1057:Core/Src/radio/sx126x/radio.c **** {
 156              		.loc 1 1057 1 is_stmt 1 view -0
 157              		.cfi_startproc
 158              		@ args = 0, pretend = 0, frame = 0
 159              		@ frame_needed = 0, uses_anonymous_args = 0
 160 0000 08B5     		push	{r3, lr}
 161              	.LCFI0:
 162              		.cfi_def_cfa_offset 8
 163              		.cfi_offset 3, -8
 164              		.cfi_offset 14, -4
1058:Core/Src/radio/sx126x/radio.c ****     if( ( RadioEvents != NULL ) && ( RadioEvents->TxTimeout != NULL ) )
 165              		.loc 1 1058 5 view .LVU32
 166              		.loc 1 1058 23 is_stmt 0 view .LVU33
 167 0002 034B     		ldr	r3, .L15
 168 0004 1B68     		ldr	r3, [r3]
 169              		.loc 1 1058 7 view .LVU34
 170 0006 13B1     		cbz	r3, .L12
 171              		.loc 1 1058 49 discriminator 1 view .LVU35
 172 0008 5B68     		ldr	r3, [r3, #4]
 173              		.loc 1 1058 33 discriminator 1 view .LVU36
 174 000a 03B1     		cbz	r3, .L12
1059:Core/Src/radio/sx126x/radio.c ****     {
1060:Core/Src/radio/sx126x/radio.c ****         RadioEvents->TxTimeout( );
 175              		.loc 1 1060 9 is_stmt 1 view .LVU37
 176 000c 9847     		blx	r3
 177              	.LVL10:
 178              	.L12:
1061:Core/Src/radio/sx126x/radio.c ****     }
1062:Core/Src/radio/sx126x/radio.c **** }
 179              		.loc 1 1062 1 is_stmt 0 view .LVU38
 180 000e 08BD     		pop	{r3, pc}
 181              	.L16:
 182              		.align	2
 183              	.L15:
 184 0010 00000000 		.word	.LANCHOR1
 185              		.cfi_endproc
 186              	.LFE165:
 188              		.section	.text.RadioOnRxTimeoutIrq,"ax",%progbits
 189              		.align	1
 190              		.global	RadioOnRxTimeoutIrq
 191              		.syntax unified
 192              		.thumb
 193              		.thumb_func
 194              		.fpu fpv4-sp-d16
 196              	RadioOnRxTimeoutIrq:
 197              	.LFB166:
1063:Core/Src/radio/sx126x/radio.c **** 
1064:Core/Src/radio/sx126x/radio.c **** void RadioOnRxTimeoutIrq( void )
1065:Core/Src/radio/sx126x/radio.c **** {
ARM GAS  C:\Users\andywei\AppData\Local\Temp\cccFfT7V.s 			page 23


 198              		.loc 1 1065 1 is_stmt 1 view -0
 199              		.cfi_startproc
 200              		@ args = 0, pretend = 0, frame = 0
 201              		@ frame_needed = 0, uses_anonymous_args = 0
 202 0000 08B5     		push	{r3, lr}
 203              	.LCFI1:
 204              		.cfi_def_cfa_offset 8
 205              		.cfi_offset 3, -8
 206              		.cfi_offset 14, -4
1066:Core/Src/radio/sx126x/radio.c ****     if( ( RadioEvents != NULL ) && ( RadioEvents->RxTimeout != NULL ) )
 207              		.loc 1 1066 5 view .LVU40
 208              		.loc 1 1066 23 is_stmt 0 view .LVU41
 209 0002 034B     		ldr	r3, .L20
 210 0004 1B68     		ldr	r3, [r3]
 211              		.loc 1 1066 7 view .LVU42
 212 0006 13B1     		cbz	r3, .L17
 213              		.loc 1 1066 49 discriminator 1 view .LVU43
 214 0008 DB68     		ldr	r3, [r3, #12]
 215              		.loc 1 1066 33 discriminator 1 view .LVU44
 216 000a 03B1     		cbz	r3, .L17
1067:Core/Src/radio/sx126x/radio.c ****     {
1068:Core/Src/radio/sx126x/radio.c ****         RadioEvents->RxTimeout( );
 217              		.loc 1 1068 9 is_stmt 1 view .LVU45
 218 000c 9847     		blx	r3
 219              	.LVL11:
 220              	.L17:
1069:Core/Src/radio/sx126x/radio.c ****     }
1070:Core/Src/radio/sx126x/radio.c **** }
 221              		.loc 1 1070 1 is_stmt 0 view .LVU46
 222 000e 08BD     		pop	{r3, pc}
 223              	.L21:
 224              		.align	2
 225              	.L20:
 226 0010 00000000 		.word	.LANCHOR1
 227              		.cfi_endproc
 228              	.LFE166:
 230              		.section	.text.RadioOnDioIrq,"ax",%progbits
 231              		.align	1
 232              		.global	RadioOnDioIrq
 233              		.syntax unified
 234              		.thumb
 235              		.thumb_func
 236              		.fpu fpv4-sp-d16
 238              	RadioOnDioIrq:
 239              	.LFB167:
1071:Core/Src/radio/sx126x/radio.c **** 
1072:Core/Src/radio/sx126x/radio.c **** void RadioOnDioIrq( void )
1073:Core/Src/radio/sx126x/radio.c **** {
 240              		.loc 1 1073 1 is_stmt 1 view -0
 241              		.cfi_startproc
 242              		@ args = 0, pretend = 0, frame = 0
 243              		@ frame_needed = 0, uses_anonymous_args = 0
 244              		@ link register save eliminated.
1074:Core/Src/radio/sx126x/radio.c ****     IrqFired = true;
 245              		.loc 1 1074 5 view .LVU48
 246              		.loc 1 1074 14 is_stmt 0 view .LVU49
 247 0000 014B     		ldr	r3, .L23
ARM GAS  C:\Users\andywei\AppData\Local\Temp\cccFfT7V.s 			page 24


 248 0002 0122     		movs	r2, #1
 249 0004 1A70     		strb	r2, [r3]
1075:Core/Src/radio/sx126x/radio.c **** }
 250              		.loc 1 1075 1 view .LVU50
 251 0006 7047     		bx	lr
 252              	.L24:
 253              		.align	2
 254              	.L23:
 255 0008 00000000 		.word	.LANCHOR2
 256              		.cfi_endproc
 257              	.LFE167:
 259              		.section	.text.RadioStandby,"ax",%progbits
 260              		.align	1
 261              		.global	RadioStandby
 262              		.syntax unified
 263              		.thumb
 264              		.thumb_func
 265              		.fpu fpv4-sp-d16
 267              	RadioStandby:
 268              	.LFB148:
 905:Core/Src/radio/sx126x/radio.c ****     SX126xSetStandby( STDBY_RC );
 269              		.loc 1 905 1 is_stmt 1 view -0
 270              		.cfi_startproc
 271              		@ args = 0, pretend = 0, frame = 0
 272              		@ frame_needed = 0, uses_anonymous_args = 0
 273 0000 08B5     		push	{r3, lr}
 274              	.LCFI2:
 275              		.cfi_def_cfa_offset 8
 276              		.cfi_offset 3, -8
 277              		.cfi_offset 14, -4
 906:Core/Src/radio/sx126x/radio.c **** }
 278              		.loc 1 906 5 view .LVU52
 279 0002 0020     		movs	r0, #0
 280 0004 FFF7FEFF 		bl	SX126xSetStandby
 281              	.LVL12:
 907:Core/Src/radio/sx126x/radio.c **** 
 282              		.loc 1 907 1 is_stmt 0 view .LVU53
 283 0008 08BD     		pop	{r3, pc}
 284              		.cfi_endproc
 285              	.LFE148:
 287              		.section	.text.RadioInit,"ax",%progbits
 288              		.align	1
 289              		.global	RadioInit
 290              		.syntax unified
 291              		.thumb
 292              		.thumb_func
 293              		.fpu fpv4-sp-d16
 295              	RadioInit:
 296              	.LVL13:
 297              	.LFB136:
 495:Core/Src/radio/sx126x/radio.c ****     RadioEvents = events;
 298              		.loc 1 495 1 is_stmt 1 view -0
 299              		.cfi_startproc
 300              		@ args = 0, pretend = 0, frame = 0
 301              		@ frame_needed = 0, uses_anonymous_args = 0
 495:Core/Src/radio/sx126x/radio.c ****     RadioEvents = events;
 302              		.loc 1 495 1 is_stmt 0 view .LVU55
ARM GAS  C:\Users\andywei\AppData\Local\Temp\cccFfT7V.s 			page 25


 303 0000 08B5     		push	{r3, lr}
 304              	.LCFI3:
 305              		.cfi_def_cfa_offset 8
 306              		.cfi_offset 3, -8
 307              		.cfi_offset 14, -4
 496:Core/Src/radio/sx126x/radio.c **** 
 308              		.loc 1 496 5 is_stmt 1 view .LVU56
 496:Core/Src/radio/sx126x/radio.c **** 
 309              		.loc 1 496 17 is_stmt 0 view .LVU57
 310 0002 134B     		ldr	r3, .L29
 311 0004 1860     		str	r0, [r3]
 498:Core/Src/radio/sx126x/radio.c ****     SX126xSetStandby( STDBY_RC );
 312              		.loc 1 498 5 is_stmt 1 view .LVU58
 313 0006 1348     		ldr	r0, .L29+4
 314              	.LVL14:
 498:Core/Src/radio/sx126x/radio.c ****     SX126xSetStandby( STDBY_RC );
 315              		.loc 1 498 5 is_stmt 0 view .LVU59
 316 0008 FFF7FEFF 		bl	SX126xInit
 317              	.LVL15:
 499:Core/Src/radio/sx126x/radio.c ****     SX126xSetRegulatorMode( USE_DCDC );
 318              		.loc 1 499 5 is_stmt 1 view .LVU60
 319 000c 0020     		movs	r0, #0
 320 000e FFF7FEFF 		bl	SX126xSetStandby
 321              	.LVL16:
 500:Core/Src/radio/sx126x/radio.c **** 
 322              		.loc 1 500 5 view .LVU61
 323 0012 0120     		movs	r0, #1
 324 0014 FFF7FEFF 		bl	SX126xSetRegulatorMode
 325              	.LVL17:
 502:Core/Src/radio/sx126x/radio.c ****     SX126xSetTxParams( 0, RADIO_RAMP_200_US );
 326              		.loc 1 502 5 view .LVU62
 327 0018 0021     		movs	r1, #0
 328 001a 0846     		mov	r0, r1
 329 001c FFF7FEFF 		bl	SX126xSetBufferBaseAddress
 330              	.LVL18:
 503:Core/Src/radio/sx126x/radio.c ****     SX126xSetDioIrqParams( IRQ_RADIO_ALL, IRQ_RADIO_ALL, IRQ_RADIO_NONE, IRQ_RADIO_NONE );
 331              		.loc 1 503 5 view .LVU63
 332 0020 0421     		movs	r1, #4
 333 0022 0020     		movs	r0, #0
 334 0024 FFF7FEFF 		bl	SX126xSetTxParams
 335              	.LVL19:
 504:Core/Src/radio/sx126x/radio.c **** 
 336              		.loc 1 504 5 view .LVU64
 337 0028 0023     		movs	r3, #0
 338 002a 1A46     		mov	r2, r3
 339 002c 4FF6FF71 		movw	r1, #65535
 340 0030 0846     		mov	r0, r1
 341 0032 FFF7FEFF 		bl	SX126xSetDioIrqParams
 342              	.LVL20:
 507:Core/Src/radio/sx126x/radio.c ****     TimerInit( &RxTimeoutTimer, RadioOnRxTimeoutIrq );
 343              		.loc 1 507 5 view .LVU65
 344 0036 0849     		ldr	r1, .L29+8
 345 0038 0848     		ldr	r0, .L29+12
 346 003a FFF7FEFF 		bl	TimerInit
 347              	.LVL21:
 508:Core/Src/radio/sx126x/radio.c **** 
 348              		.loc 1 508 5 view .LVU66
ARM GAS  C:\Users\andywei\AppData\Local\Temp\cccFfT7V.s 			page 26


 349 003e 0849     		ldr	r1, .L29+16
 350 0040 0848     		ldr	r0, .L29+20
 351 0042 FFF7FEFF 		bl	TimerInit
 352              	.LVL22:
 510:Core/Src/radio/sx126x/radio.c **** }
 353              		.loc 1 510 5 view .LVU67
 510:Core/Src/radio/sx126x/radio.c **** }
 354              		.loc 1 510 14 is_stmt 0 view .LVU68
 355 0046 084B     		ldr	r3, .L29+24
 356 0048 0022     		movs	r2, #0
 357 004a 1A70     		strb	r2, [r3]
 511:Core/Src/radio/sx126x/radio.c **** 
 358              		.loc 1 511 1 view .LVU69
 359 004c 08BD     		pop	{r3, pc}
 360              	.L30:
 361 004e 00BF     		.align	2
 362              	.L29:
 363 0050 00000000 		.word	.LANCHOR1
 364 0054 00000000 		.word	RadioOnDioIrq
 365 0058 00000000 		.word	RadioOnTxTimeoutIrq
 366 005c 00000000 		.word	.LANCHOR3
 367 0060 00000000 		.word	RadioOnRxTimeoutIrq
 368 0064 00000000 		.word	.LANCHOR4
 369 0068 00000000 		.word	.LANCHOR2
 370              		.cfi_endproc
 371              	.LFE136:
 373              		.section	.text.RadioGetStatus,"ax",%progbits
 374              		.align	1
 375              		.global	RadioGetStatus
 376              		.syntax unified
 377              		.thumb
 378              		.thumb_func
 379              		.fpu fpv4-sp-d16
 381              	RadioGetStatus:
 382              	.LFB137:
 514:Core/Src/radio/sx126x/radio.c ****     switch( SX126xGetOperatingMode( ) )
 383              		.loc 1 514 1 is_stmt 1 view -0
 384              		.cfi_startproc
 385              		@ args = 0, pretend = 0, frame = 0
 386              		@ frame_needed = 0, uses_anonymous_args = 0
 387 0000 08B5     		push	{r3, lr}
 388              	.LCFI4:
 389              		.cfi_def_cfa_offset 8
 390              		.cfi_offset 3, -8
 391              		.cfi_offset 14, -4
 515:Core/Src/radio/sx126x/radio.c ****     {
 392              		.loc 1 515 5 view .LVU71
 515:Core/Src/radio/sx126x/radio.c ****     {
 393              		.loc 1 515 13 is_stmt 0 view .LVU72
 394 0002 FFF7FEFF 		bl	SX126xGetOperatingMode
 395              	.LVL23:
 515:Core/Src/radio/sx126x/radio.c ****     {
 396              		.loc 1 515 5 view .LVU73
 397 0006 0428     		cmp	r0, #4
 398 0008 05D0     		beq	.L33
 399 000a 0528     		cmp	r0, #5
 400 000c 05D0     		beq	.L34
ARM GAS  C:\Users\andywei\AppData\Local\Temp\cccFfT7V.s 			page 27


 401 000e 0328     		cmp	r0, #3
 402 0010 00D0     		beq	.L32
 524:Core/Src/radio/sx126x/radio.c ****     }
 403              		.loc 1 524 20 view .LVU74
 404 0012 0020     		movs	r0, #0
 405              	.L32:
 526:Core/Src/radio/sx126x/radio.c **** 
 406              		.loc 1 526 1 view .LVU75
 407 0014 08BD     		pop	{r3, pc}
 408              	.L33:
 515:Core/Src/radio/sx126x/radio.c ****     {
 409              		.loc 1 515 5 view .LVU76
 410 0016 0220     		movs	r0, #2
 411 0018 FCE7     		b	.L32
 412              	.L34:
 520:Core/Src/radio/sx126x/radio.c ****         case RF_CAD:
 413              		.loc 1 520 20 view .LVU77
 414 001a 0120     		movs	r0, #1
 415 001c FAE7     		b	.L32
 416              		.cfi_endproc
 417              	.LFE137:
 419              		.section	.text.RadioSetChannel,"ax",%progbits
 420              		.align	1
 421              		.global	RadioSetChannel
 422              		.syntax unified
 423              		.thumb
 424              		.thumb_func
 425              		.fpu fpv4-sp-d16
 427              	RadioSetChannel:
 428              	.LVL24:
 429              	.LFB139:
 552:Core/Src/radio/sx126x/radio.c ****     SX126xSetRfFrequency( freq );
 430              		.loc 1 552 1 is_stmt 1 view -0
 431              		.cfi_startproc
 432              		@ args = 0, pretend = 0, frame = 0
 433              		@ frame_needed = 0, uses_anonymous_args = 0
 552:Core/Src/radio/sx126x/radio.c ****     SX126xSetRfFrequency( freq );
 434              		.loc 1 552 1 is_stmt 0 view .LVU79
 435 0000 08B5     		push	{r3, lr}
 436              	.LCFI5:
 437              		.cfi_def_cfa_offset 8
 438              		.cfi_offset 3, -8
 439              		.cfi_offset 14, -4
 553:Core/Src/radio/sx126x/radio.c **** }
 440              		.loc 1 553 5 is_stmt 1 view .LVU80
 441 0002 FFF7FEFF 		bl	SX126xSetRfFrequency
 442              	.LVL25:
 554:Core/Src/radio/sx126x/radio.c **** 
 443              		.loc 1 554 1 is_stmt 0 view .LVU81
 444 0006 08BD     		pop	{r3, pc}
 445              		.cfi_endproc
 446              	.LFE139:
 448              		.section	.text.RadioRssi,"ax",%progbits
 449              		.align	1
 450              		.global	RadioRssi
 451              		.syntax unified
 452              		.thumb
ARM GAS  C:\Users\andywei\AppData\Local\Temp\cccFfT7V.s 			page 28


 453              		.thumb_func
 454              		.fpu fpv4-sp-d16
 456              	RadioRssi:
 457              	.LVL26:
 458              	.LFB155:
 981:Core/Src/radio/sx126x/radio.c ****     return SX126xGetRssiInst( );
 459              		.loc 1 981 1 is_stmt 1 view -0
 460              		.cfi_startproc
 461              		@ args = 0, pretend = 0, frame = 0
 462              		@ frame_needed = 0, uses_anonymous_args = 0
 981:Core/Src/radio/sx126x/radio.c ****     return SX126xGetRssiInst( );
 463              		.loc 1 981 1 is_stmt 0 view .LVU83
 464 0000 08B5     		push	{r3, lr}
 465              	.LCFI6:
 466              		.cfi_def_cfa_offset 8
 467              		.cfi_offset 3, -8
 468              		.cfi_offset 14, -4
 982:Core/Src/radio/sx126x/radio.c **** }
 469              		.loc 1 982 5 is_stmt 1 view .LVU84
 982:Core/Src/radio/sx126x/radio.c **** }
 470              		.loc 1 982 12 is_stmt 0 view .LVU85
 471 0002 FFF7FEFF 		bl	SX126xGetRssiInst
 472              	.LVL27:
 983:Core/Src/radio/sx126x/radio.c **** 
 473              		.loc 1 983 1 view .LVU86
 474 0006 00B2     		sxth	r0, r0
 475 0008 08BD     		pop	{r3, pc}
 476              		.cfi_endproc
 477              	.LFE155:
 479              		.section	.text.RadioSetMaxPayloadLength,"ax",%progbits
 480              		.align	1
 481              		.global	RadioSetMaxPayloadLength
 482              		.syntax unified
 483              		.thumb
 484              		.thumb_func
 485              		.fpu fpv4-sp-d16
 487              	RadioSetMaxPayloadLength:
 488              	.LVL28:
 489              	.LFB162:
1016:Core/Src/radio/sx126x/radio.c ****     if( modem == MODEM_LORA )
 490              		.loc 1 1016 1 is_stmt 1 view -0
 491              		.cfi_startproc
 492              		@ args = 0, pretend = 0, frame = 0
 493              		@ frame_needed = 0, uses_anonymous_args = 0
1016:Core/Src/radio/sx126x/radio.c ****     if( modem == MODEM_LORA )
 494              		.loc 1 1016 1 is_stmt 0 view .LVU88
 495 0000 08B5     		push	{r3, lr}
 496              	.LCFI7:
 497              		.cfi_def_cfa_offset 8
 498              		.cfi_offset 3, -8
 499              		.cfi_offset 14, -4
1017:Core/Src/radio/sx126x/radio.c ****     {
 500              		.loc 1 1017 5 is_stmt 1 view .LVU89
1017:Core/Src/radio/sx126x/radio.c ****     {
 501              		.loc 1 1017 7 is_stmt 0 view .LVU90
 502 0002 0128     		cmp	r0, #1
 503 0004 05D0     		beq	.L45
ARM GAS  C:\Users\andywei\AppData\Local\Temp\cccFfT7V.s 			page 29


1024:Core/Src/radio/sx126x/radio.c ****         {
 504              		.loc 1 1024 9 is_stmt 1 view .LVU91
1024:Core/Src/radio/sx126x/radio.c ****         {
 505              		.loc 1 1024 44 is_stmt 0 view .LVU92
 506 0006 0C4B     		ldr	r3, .L47
 507 0008 93F8D730 		ldrb	r3, [r3, #215]	@ zero_extendqisi2
1024:Core/Src/radio/sx126x/radio.c ****         {
 508              		.loc 1 1024 11 view .LVU93
 509 000c 012B     		cmp	r3, #1
 510 000e 09D0     		beq	.L46
 511              	.LVL29:
 512              	.L41:
1030:Core/Src/radio/sx126x/radio.c **** 
 513              		.loc 1 1030 1 view .LVU94
 514 0010 08BD     		pop	{r3, pc}
 515              	.LVL30:
 516              	.L45:
1019:Core/Src/radio/sx126x/radio.c ****         SX126xSetPacketParams( &SX126x.PacketParams );
 517              		.loc 1 1019 9 is_stmt 1 view .LVU95
1019:Core/Src/radio/sx126x/radio.c ****         SX126xSetPacketParams( &SX126x.PacketParams );
 518              		.loc 1 1019 74 is_stmt 0 view .LVU96
 519 0012 0A4B     		ldr	r3, .L47+4
 520 0014 1970     		strb	r1, [r3]
1019:Core/Src/radio/sx126x/radio.c ****         SX126xSetPacketParams( &SX126x.PacketParams );
 521              		.loc 1 1019 55 view .LVU97
 522 0016 0848     		ldr	r0, .L47
 523              	.LVL31:
1019:Core/Src/radio/sx126x/radio.c ****         SX126xSetPacketParams( &SX126x.PacketParams );
 524              		.loc 1 1019 55 view .LVU98
 525 0018 80F8DF10 		strb	r1, [r0, #223]
1020:Core/Src/radio/sx126x/radio.c ****     }
 526              		.loc 1 1020 9 is_stmt 1 view .LVU99
 527 001c D030     		adds	r0, r0, #208
 528 001e FFF7FEFF 		bl	SX126xSetPacketParams
 529              	.LVL32:
1020:Core/Src/radio/sx126x/radio.c ****     }
 530              		.loc 1 1020 9 is_stmt 0 view .LVU100
 531 0022 F5E7     		b	.L41
 532              	.LVL33:
 533              	.L46:
1026:Core/Src/radio/sx126x/radio.c ****             SX126xSetPacketParams( &SX126x.PacketParams );
 534              		.loc 1 1026 13 is_stmt 1 view .LVU101
1026:Core/Src/radio/sx126x/radio.c ****             SX126xSetPacketParams( &SX126x.PacketParams );
 535              		.loc 1 1026 78 is_stmt 0 view .LVU102
 536 0024 054B     		ldr	r3, .L47+4
 537 0026 1970     		strb	r1, [r3]
1026:Core/Src/radio/sx126x/radio.c ****             SX126xSetPacketParams( &SX126x.PacketParams );
 538              		.loc 1 1026 59 view .LVU103
 539 0028 0348     		ldr	r0, .L47
 540              	.LVL34:
1026:Core/Src/radio/sx126x/radio.c ****             SX126xSetPacketParams( &SX126x.PacketParams );
 541              		.loc 1 1026 59 view .LVU104
 542 002a 80F8D810 		strb	r1, [r0, #216]
1027:Core/Src/radio/sx126x/radio.c ****         }
 543              		.loc 1 1027 13 is_stmt 1 view .LVU105
 544 002e D030     		adds	r0, r0, #208
 545 0030 FFF7FEFF 		bl	SX126xSetPacketParams
ARM GAS  C:\Users\andywei\AppData\Local\Temp\cccFfT7V.s 			page 30


 546              	.LVL35:
1030:Core/Src/radio/sx126x/radio.c **** 
 547              		.loc 1 1030 1 is_stmt 0 view .LVU106
 548 0034 ECE7     		b	.L41
 549              	.L48:
 550 0036 00BF     		.align	2
 551              	.L47:
 552 0038 00000000 		.word	.LANCHOR6
 553 003c 00000000 		.word	.LANCHOR5
 554              		.cfi_endproc
 555              	.LFE162:
 557              		.global	__aeabi_i2d
 558              		.global	__aeabi_dadd
 559              		.global	__aeabi_dmul
 560              		.global	__aeabi_ui2d
 561              		.global	__aeabi_ddiv
 562              		.global	__aeabi_d2uiz
 563              		.global	__aeabi_dcmpgt
 564              		.section	.text.RadioTimeOnAir,"ax",%progbits
 565              		.align	1
 566              		.global	RadioTimeOnAir
 567              		.syntax unified
 568              		.thumb
 569              		.thumb_func
 570              		.fpu fpv4-sp-d16
 572              	RadioTimeOnAir:
 573              	.LVL36:
 574              	.LFB145:
 833:Core/Src/radio/sx126x/radio.c ****     uint32_t airTime = 0;
 575              		.loc 1 833 1 is_stmt 1 view -0
 576              		.cfi_startproc
 577              		@ args = 0, pretend = 0, frame = 0
 578              		@ frame_needed = 0, uses_anonymous_args = 0
 833:Core/Src/radio/sx126x/radio.c ****     uint32_t airTime = 0;
 579              		.loc 1 833 1 is_stmt 0 view .LVU108
 580 0000 2DE9F84F 		push	{r3, r4, r5, r6, r7, r8, r9, r10, fp, lr}
 581              	.LCFI8:
 582              		.cfi_def_cfa_offset 40
 583              		.cfi_offset 3, -40
 584              		.cfi_offset 4, -36
 585              		.cfi_offset 5, -32
 586              		.cfi_offset 6, -28
 587              		.cfi_offset 7, -24
 588              		.cfi_offset 8, -20
 589              		.cfi_offset 9, -16
 590              		.cfi_offset 10, -12
 591              		.cfi_offset 11, -8
 592              		.cfi_offset 14, -4
 593 0004 0C46     		mov	r4, r1
 834:Core/Src/radio/sx126x/radio.c **** 
 594              		.loc 1 834 5 is_stmt 1 view .LVU109
 595              	.LVL37:
 836:Core/Src/radio/sx126x/radio.c ****     {
 596              		.loc 1 836 5 view .LVU110
 597 0006 20B1     		cbz	r0, .L50
 598 0008 0128     		cmp	r0, #1
 599 000a 49D0     		beq	.L51
ARM GAS  C:\Users\andywei\AppData\Local\Temp\cccFfT7V.s 			page 31


 600 000c 0020     		movs	r0, #0
 601              	.LVL38:
 602              	.L49:
 870:Core/Src/radio/sx126x/radio.c **** 
 603              		.loc 1 870 1 is_stmt 0 view .LVU111
 604 000e BDE8F88F 		pop	{r3, r4, r5, r6, r7, r8, r9, r10, fp, pc}
 605              	.LVL39:
 606              	.L50:
 840:Core/Src/radio/sx126x/radio.c ****                                      ( SX126x.PacketParams.Params.Gfsk.SyncWordLength >> 3 ) +
 607              		.loc 1 840 12 is_stmt 1 view .LVU112
 840:Core/Src/radio/sx126x/radio.c ****                                      ( SX126x.PacketParams.Params.Gfsk.SyncWordLength >> 3 ) +
 608              		.loc 1 840 67 is_stmt 0 view .LVU113
 609 0012 674D     		ldr	r5, .L68+8
 610 0014 B5F8D230 		ldrh	r3, [r5, #210]
 841:Core/Src/radio/sx126x/radio.c ****                                      ( ( SX126x.PacketParams.Params.Gfsk.HeaderType == RADIO_PACKET
 611              		.loc 1 841 71 view .LVU114
 612 0018 95F8D500 		ldrb	r0, [r5, #213]	@ zero_extendqisi2
 613              	.LVL40:
 841:Core/Src/radio/sx126x/radio.c ****                                      ( ( SX126x.PacketParams.Params.Gfsk.HeaderType == RADIO_PACKET
 614              		.loc 1 841 94 view .LVU115
 615 001c 03EBD000 		add	r0, r3, r0, lsr #3
 616 0020 FFF7FEFF 		bl	__aeabi_i2d
 617              	.LVL41:
 842:Core/Src/radio/sx126x/radio.c ****                                      pktLen +
 618              		.loc 1 842 73 view .LVU116
 619 0024 95F8D730 		ldrb	r3, [r5, #215]	@ zero_extendqisi2
 842:Core/Src/radio/sx126x/radio.c ****                                      pktLen +
 620              		.loc 1 842 122 view .LVU117
 621 0028 9BBB     		cbnz	r3, .L59
 622 002a 0022     		movs	r2, #0
 623 002c 0023     		movs	r3, #0
 624              	.L53:
 841:Core/Src/radio/sx126x/radio.c ****                                      ( ( SX126x.PacketParams.Params.Gfsk.HeaderType == RADIO_PACKET
 625              		.loc 1 841 94 view .LVU118
 626 002e FFF7FEFF 		bl	__aeabi_dadd
 627              	.LVL42:
 628 0032 0646     		mov	r6, r0
 629 0034 0F46     		mov	r7, r1
 842:Core/Src/radio/sx126x/radio.c ****                                      pktLen +
 630              		.loc 1 842 130 view .LVU119
 631 0036 2046     		mov	r0, r4
 632 0038 FFF7FEFF 		bl	__aeabi_i2d
 633              	.LVL43:
 634 003c 3246     		mov	r2, r6
 635 003e 3B46     		mov	r3, r7
 636 0040 FFF7FEFF 		bl	__aeabi_dadd
 637              	.LVL44:
 844:Core/Src/radio/sx126x/radio.c ****                                      SX126x.ModulationParams.Params.Gfsk.BitRate ) * 1e3 );
 638              		.loc 1 844 73 view .LVU120
 639 0044 5A4B     		ldr	r3, .L68+8
 640 0046 93F8D930 		ldrb	r3, [r3, #217]	@ zero_extendqisi2
 844:Core/Src/radio/sx126x/radio.c ****                                      SX126x.ModulationParams.Params.Gfsk.BitRate ) * 1e3 );
 641              		.loc 1 844 113 view .LVU121
 642 004a 022B     		cmp	r3, #2
 643 004c 24D0     		beq	.L65
 644 004e 0022     		movs	r2, #0
 645 0050 0023     		movs	r3, #0
ARM GAS  C:\Users\andywei\AppData\Local\Temp\cccFfT7V.s 			page 32


 646              	.L54:
 843:Core/Src/radio/sx126x/radio.c ****                                      ( ( SX126x.PacketParams.Params.Gfsk.CrcLength == RADIO_CRC_2_B
 647              		.loc 1 843 45 view .LVU122
 648 0052 FFF7FEFF 		bl	__aeabi_dadd
 649              	.LVL45:
 840:Core/Src/radio/sx126x/radio.c ****                                      ( SX126x.PacketParams.Params.Gfsk.SyncWordLength >> 3 ) +
 650              		.loc 1 840 32 view .LVU123
 651 0056 0022     		movs	r2, #0
 652 0058 564B     		ldr	r3, .L68+12
 653 005a FFF7FEFF 		bl	__aeabi_dmul
 654              	.LVL46:
 655 005e 0446     		mov	r4, r0
 656 0060 0D46     		mov	r5, r1
 844:Core/Src/radio/sx126x/radio.c ****                                      SX126x.ModulationParams.Params.Gfsk.BitRate ) * 1e3 );
 657              		.loc 1 844 121 view .LVU124
 658 0062 534B     		ldr	r3, .L68+8
 659 0064 D3F8FC00 		ldr	r0, [r3, #252]
 660 0068 FFF7FEFF 		bl	__aeabi_ui2d
 661              	.LVL47:
 662 006c 0246     		mov	r2, r0
 663 006e 0B46     		mov	r3, r1
 664 0070 2046     		mov	r0, r4
 665 0072 2946     		mov	r1, r5
 666 0074 FFF7FEFF 		bl	__aeabi_ddiv
 667              	.LVL48:
 840:Core/Src/radio/sx126x/radio.c ****                                      ( SX126x.PacketParams.Params.Gfsk.SyncWordLength >> 3 ) +
 668              		.loc 1 840 22 view .LVU125
 669 0078 0022     		movs	r2, #0
 670 007a 4F4B     		ldr	r3, .L68+16
 671 007c FFF7FEFF 		bl	__aeabi_dmul
 672              	.LVL49:
 673 0080 41EC100B 		vmov	d0, r0, r1
 674 0084 FFF7FEFF 		bl	rint
 675              	.LVL50:
 676 0088 51EC100B 		vmov	r0, r1, d0
 840:Core/Src/radio/sx126x/radio.c ****                                      ( SX126x.PacketParams.Params.Gfsk.SyncWordLength >> 3 ) +
 677              		.loc 1 840 20 view .LVU126
 678 008c FFF7FEFF 		bl	__aeabi_d2uiz
 679              	.LVL51:
 847:Core/Src/radio/sx126x/radio.c ****     case MODEM_LORA:
 680              		.loc 1 847 9 is_stmt 1 view .LVU127
 681 0090 BDE7     		b	.L49
 682              	.LVL52:
 683              	.L59:
 842:Core/Src/radio/sx126x/radio.c ****                                      pktLen +
 684              		.loc 1 842 122 is_stmt 0 view .LVU128
 685 0092 0022     		movs	r2, #0
 686 0094 494B     		ldr	r3, .L68+20
 687 0096 CAE7     		b	.L53
 688              	.L65:
 844:Core/Src/radio/sx126x/radio.c ****                                      SX126x.ModulationParams.Params.Gfsk.BitRate ) * 1e3 );
 689              		.loc 1 844 113 view .LVU129
 690 0098 0022     		movs	r2, #0
 691 009a 4FF08043 		mov	r3, #1073741824
 692 009e D8E7     		b	.L54
 693              	.LVL53:
 694              	.L51:
ARM GAS  C:\Users\andywei\AppData\Local\Temp\cccFfT7V.s 			page 33


 695              	.LBB2:
 850:Core/Src/radio/sx126x/radio.c ****             // time of preamble
 696              		.loc 1 850 13 is_stmt 1 view .LVU130
 850:Core/Src/radio/sx126x/radio.c ****             // time of preamble
 697              		.loc 1 850 78 is_stmt 0 view .LVU131
 698 00a0 DFF80C81 		ldr	r8, .L68+8
 699 00a4 98F80931 		ldrb	r3, [r8, #265]	@ zero_extendqisi2
 850:Core/Src/radio/sx126x/radio.c ****             // time of preamble
 700              		.loc 1 850 89 view .LVU132
 701 00a8 043B     		subs	r3, r3, #4
 850:Core/Src/radio/sx126x/radio.c ****             // time of preamble
 702              		.loc 1 850 134 view .LVU133
 703 00aa 98F80851 		ldrb	r5, [r8, #264]	@ zero_extendqisi2
 850:Core/Src/radio/sx126x/radio.c ****             // time of preamble
 704              		.loc 1 850 97 view .LVU134
 705 00ae C5F10C02 		rsb	r2, r5, #12
 850:Core/Src/radio/sx126x/radio.c ****             // time of preamble
 706              		.loc 1 850 20 view .LVU135
 707 00b2 03EB4303 		add	r3, r3, r3, lsl #1
 708 00b6 02EB4302 		add	r2, r2, r3, lsl #1
 709 00ba 414B     		ldr	r3, .L68+24
 710 00bc 03EBC203 		add	r3, r3, r2, lsl #3
 711 00c0 D3E900AB 		ldrd	r10, [r3]
 712              	.LVL54:
 852:Core/Src/radio/sx126x/radio.c ****             // Symbol length of payload and time
 713              		.loc 1 852 13 is_stmt 1 view .LVU136
 852:Core/Src/radio/sx126x/radio.c ****             // Symbol length of payload and time
 714              		.loc 1 852 81 is_stmt 0 view .LVU137
 715 00c4 B8F8DC00 		ldrh	r0, [r8, #220]
 716              	.LVL55:
 852:Core/Src/radio/sx126x/radio.c ****             // Symbol length of payload and time
 717              		.loc 1 852 81 view .LVU138
 718 00c8 FFF7FEFF 		bl	__aeabi_i2d
 719              	.LVL56:
 852:Core/Src/radio/sx126x/radio.c ****             // Symbol length of payload and time
 720              		.loc 1 852 81 view .LVU139
 721 00cc 0022     		movs	r2, #0
 722 00ce 3D4B     		ldr	r3, .L68+28
 723 00d0 FFF7FEFF 		bl	__aeabi_dadd
 724              	.LVL57:
 852:Core/Src/radio/sx126x/radio.c ****             // Symbol length of payload and time
 725              		.loc 1 852 20 view .LVU140
 726 00d4 5246     		mov	r2, r10
 727 00d6 5B46     		mov	r3, fp
 728 00d8 FFF7FEFF 		bl	__aeabi_dmul
 729              	.LVL58:
 730 00dc 0646     		mov	r6, r0
 731 00de 0F46     		mov	r7, r1
 732              	.LVL59:
 854:Core/Src/radio/sx126x/radio.c ****                                  28 + 16 * SX126x.PacketParams.Params.LoRa.CrcMode -
 733              		.loc 1 854 13 is_stmt 1 view .LVU141
 854:Core/Src/radio/sx126x/radio.c ****                                  28 + 16 * SX126x.PacketParams.Params.LoRa.CrcMode -
 734              		.loc 1 854 45 is_stmt 0 view .LVU142
 735 00e0 C5EB4404 		rsb	r4, r5, r4, lsl #1
 854:Core/Src/radio/sx126x/radio.c ****                                  28 + 16 * SX126x.PacketParams.Params.LoRa.CrcMode -
 736              		.loc 1 854 103 view .LVU143
 737 00e4 0734     		adds	r4, r4, #7
ARM GAS  C:\Users\andywei\AppData\Local\Temp\cccFfT7V.s 			page 34


 855:Core/Src/radio/sx126x/radio.c ****                                  ( ( SX126x.PacketParams.Params.LoRa.HeaderType == LORA_PACKET_FIXE
 738              		.loc 1 855 75 view .LVU144
 739 00e6 98F8E000 		ldrb	r0, [r8, #224]	@ zero_extendqisi2
 855:Core/Src/radio/sx126x/radio.c ****                                  ( ( SX126x.PacketParams.Params.LoRa.HeaderType == LORA_PACKET_FIXE
 740              		.loc 1 855 37 view .LVU145
 741 00ea 04EB8004 		add	r4, r4, r0, lsl #2
 742 00ee A400     		lsls	r4, r4, #2
 856:Core/Src/radio/sx126x/radio.c ****                                  ( double )( 4 * ( SX126x.ModulationParams.Params.LoRa.SpreadingFac
 743              		.loc 1 856 69 view .LVU146
 744 00f0 98F8DE30 		ldrb	r3, [r8, #222]	@ zero_extendqisi2
 856:Core/Src/radio/sx126x/radio.c ****                                  ( double )( 4 * ( SX126x.ModulationParams.Params.LoRa.SpreadingFac
 745              		.loc 1 856 116 view .LVU147
 746 00f4 012B     		cmp	r3, #1
 747 00f6 50D0     		beq	.L66
 748 00f8 0020     		movs	r0, #0
 749              	.L55:
 854:Core/Src/radio/sx126x/radio.c ****                                  28 + 16 * SX126x.PacketParams.Params.LoRa.CrcMode -
 750              		.loc 1 854 26 view .LVU148
 751 00fa 201A     		subs	r0, r4, r0
 752 00fc FFF7FEFF 		bl	__aeabi_i2d
 753              	.LVL60:
 754 0100 8046     		mov	r8, r0
 755 0102 8946     		mov	r9, r1
 858:Core/Src/radio/sx126x/radio.c ****                                  ( ( SX126x.ModulationParams.Params.LoRa.CodingRate % 4 ) + 4 );
 756              		.loc 1 858 73 view .LVU149
 757 0104 2A4B     		ldr	r3, .L68+8
 758 0106 93F80B31 		ldrb	r3, [r3, #267]	@ zero_extendqisi2
 858:Core/Src/radio/sx126x/radio.c ****                                  ( ( SX126x.ModulationParams.Params.LoRa.CodingRate % 4 ) + 4 );
 759              		.loc 1 858 104 view .LVU150
 760 010a 002B     		cmp	r3, #0
 761 010c 47D0     		beq	.L62
 762 010e 0220     		movs	r0, #2
 763              	.L56:
 857:Core/Src/radio/sx126x/radio.c ****                                  ( ( SX126x.ModulationParams.Params.LoRa.LowDatarateOptimize > 0 ) 
 764              		.loc 1 857 104 view .LVU151
 765 0110 281A     		subs	r0, r5, r0
 857:Core/Src/radio/sx126x/radio.c ****                                  ( ( SX126x.ModulationParams.Params.LoRa.LowDatarateOptimize > 0 ) 
 766              		.loc 1 857 34 view .LVU152
 767 0112 8000     		lsls	r0, r0, #2
 768 0114 FFF7FEFF 		bl	__aeabi_i2d
 769              	.LVL61:
 770 0118 0246     		mov	r2, r0
 771 011a 0B46     		mov	r3, r1
 854:Core/Src/radio/sx126x/radio.c ****                                  28 + 16 * SX126x.PacketParams.Params.LoRa.CrcMode -
 772              		.loc 1 854 26 view .LVU153
 773 011c 4046     		mov	r0, r8
 774 011e 4946     		mov	r1, r9
 775 0120 FFF7FEFF 		bl	__aeabi_ddiv
 776              	.LVL62:
 777 0124 41EC100B 		vmov	d0, r0, r1
 778 0128 FFF7FEFF 		bl	ceil
 779              	.LVL63:
 780 012c 55EC104B 		vmov	r4, r5, d0
 859:Core/Src/radio/sx126x/radio.c ****             double nPayload = 8 + ( ( tmp > 0 ) ? tmp : 0 );
 781              		.loc 1 859 73 view .LVU154
 782 0130 1F4B     		ldr	r3, .L68+8
 783 0132 93F80A01 		ldrb	r0, [r3, #266]	@ zero_extendqisi2
ARM GAS  C:\Users\andywei\AppData\Local\Temp\cccFfT7V.s 			page 35


 859:Core/Src/radio/sx126x/radio.c ****             double nPayload = 8 + ( ( tmp > 0 ) ? tmp : 0 );
 784              		.loc 1 859 85 view .LVU155
 785 0136 00F00300 		and	r0, r0, #3
 858:Core/Src/radio/sx126x/radio.c ****                                  ( ( SX126x.ModulationParams.Params.LoRa.CodingRate % 4 ) + 4 );
 786              		.loc 1 858 116 view .LVU156
 787 013a 0430     		adds	r0, r0, #4
 788 013c FFF7FEFF 		bl	__aeabi_i2d
 789              	.LVL64:
 790 0140 0246     		mov	r2, r0
 791 0142 0B46     		mov	r3, r1
 854:Core/Src/radio/sx126x/radio.c ****                                  28 + 16 * SX126x.PacketParams.Params.LoRa.CrcMode -
 792              		.loc 1 854 20 view .LVU157
 793 0144 2046     		mov	r0, r4
 794 0146 2946     		mov	r1, r5
 795 0148 FFF7FEFF 		bl	__aeabi_dmul
 796              	.LVL65:
 797 014c 0446     		mov	r4, r0
 798 014e 0D46     		mov	r5, r1
 799              	.LVL66:
 860:Core/Src/radio/sx126x/radio.c ****             double tPayload = nPayload * ts;
 800              		.loc 1 860 13 is_stmt 1 view .LVU158
 860:Core/Src/radio/sx126x/radio.c ****             double tPayload = nPayload * ts;
 801              		.loc 1 860 55 is_stmt 0 view .LVU159
 802 0150 0022     		movs	r2, #0
 803 0152 0023     		movs	r3, #0
 804 0154 FFF7FEFF 		bl	__aeabi_dcmpgt
 805              	.LVL67:
 806 0158 18B3     		cbz	r0, .L67
 807              	.LVL68:
 808              	.L57:
 860:Core/Src/radio/sx126x/radio.c ****             double tPayload = nPayload * ts;
 809              		.loc 1 860 20 discriminator 4 view .LVU160
 810 015a 0022     		movs	r2, #0
 811 015c 154B     		ldr	r3, .L68+12
 812 015e 2046     		mov	r0, r4
 813 0160 2946     		mov	r1, r5
 814 0162 FFF7FEFF 		bl	__aeabi_dadd
 815              	.LVL69:
 816 0166 0246     		mov	r2, r0
 817 0168 0B46     		mov	r3, r1
 818              	.LVL70:
 861:Core/Src/radio/sx126x/radio.c ****             // Time on air
 819              		.loc 1 861 13 is_stmt 1 discriminator 4 view .LVU161
 861:Core/Src/radio/sx126x/radio.c ****             // Time on air
 820              		.loc 1 861 20 is_stmt 0 discriminator 4 view .LVU162
 821 016a 5046     		mov	r0, r10
 822 016c 5946     		mov	r1, fp
 823 016e FFF7FEFF 		bl	__aeabi_dmul
 824              	.LVL71:
 861:Core/Src/radio/sx126x/radio.c ****             // Time on air
 825              		.loc 1 861 20 discriminator 4 view .LVU163
 826 0172 0246     		mov	r2, r0
 827 0174 0B46     		mov	r3, r1
 828              	.LVL72:
 863:Core/Src/radio/sx126x/radio.c ****             // return milli seconds
 829              		.loc 1 863 13 is_stmt 1 discriminator 4 view .LVU164
 863:Core/Src/radio/sx126x/radio.c ****             // return milli seconds
ARM GAS  C:\Users\andywei\AppData\Local\Temp\cccFfT7V.s 			page 36


 830              		.loc 1 863 20 is_stmt 0 discriminator 4 view .LVU165
 831 0176 3046     		mov	r0, r6
 832 0178 3946     		mov	r1, r7
 833 017a FFF7FEFF 		bl	__aeabi_dadd
 834              	.LVL73:
 865:Core/Src/radio/sx126x/radio.c ****         }
 835              		.loc 1 865 13 is_stmt 1 discriminator 4 view .LVU166
 865:Core/Src/radio/sx126x/radio.c ****         }
 836              		.loc 1 865 23 is_stmt 0 discriminator 4 view .LVU167
 837 017e 0AA3     		adr	r3, .L68
 838 0180 D3E90023 		ldrd	r2, [r3]
 839 0184 FFF7FEFF 		bl	__aeabi_dadd
 840              	.LVL74:
 865:Core/Src/radio/sx126x/radio.c ****         }
 841              		.loc 1 865 23 discriminator 4 view .LVU168
 842 0188 41EC100B 		vmov	d0, r0, r1
 843 018c FFF7FEFF 		bl	floor
 844              	.LVL75:
 845 0190 51EC100B 		vmov	r0, r1, d0
 865:Core/Src/radio/sx126x/radio.c ****         }
 846              		.loc 1 865 21 discriminator 4 view .LVU169
 847 0194 FFF7FEFF 		bl	__aeabi_d2uiz
 848              	.LVL76:
 865:Core/Src/radio/sx126x/radio.c ****         }
 849              		.loc 1 865 21 discriminator 4 view .LVU170
 850              	.LBE2:
 867:Core/Src/radio/sx126x/radio.c ****     }
 851              		.loc 1 867 9 is_stmt 1 discriminator 4 view .LVU171
 869:Core/Src/radio/sx126x/radio.c **** }
 852              		.loc 1 869 5 discriminator 4 view .LVU172
 869:Core/Src/radio/sx126x/radio.c **** }
 853              		.loc 1 869 12 is_stmt 0 discriminator 4 view .LVU173
 854 0198 39E7     		b	.L49
 855              	.LVL77:
 856              	.L66:
 857              	.LBB3:
 856:Core/Src/radio/sx126x/radio.c ****                                  ( double )( 4 * ( SX126x.ModulationParams.Params.LoRa.SpreadingFac
 858              		.loc 1 856 116 view .LVU174
 859 019a 1420     		movs	r0, #20
 860 019c ADE7     		b	.L55
 861              	.L62:
 858:Core/Src/radio/sx126x/radio.c ****                                  ( ( SX126x.ModulationParams.Params.LoRa.CodingRate % 4 ) + 4 );
 862              		.loc 1 858 104 view .LVU175
 863 019e 0020     		movs	r0, #0
 864 01a0 B6E7     		b	.L56
 865              	.LVL78:
 866              	.L67:
 860:Core/Src/radio/sx126x/radio.c ****             double tPayload = nPayload * ts;
 867              		.loc 1 860 55 view .LVU176
 868 01a2 0024     		movs	r4, #0
 869              	.LVL79:
 860:Core/Src/radio/sx126x/radio.c ****             double tPayload = nPayload * ts;
 870              		.loc 1 860 55 view .LVU177
 871 01a4 0025     		movs	r5, #0
 872 01a6 D8E7     		b	.L57
 873              	.L69:
 874              		.align	3
ARM GAS  C:\Users\andywei\AppData\Local\Temp\cccFfT7V.s 			page 37


 875              	.L68:
 876 01a8 2B8716D9 		.word	-652835029
 877 01ac CEF7EF3F 		.word	1072691150
 878 01b0 00000000 		.word	.LANCHOR6
 879 01b4 00002040 		.word	1075838976
 880 01b8 00408F40 		.word	1083129856
 881 01bc 0000F03F 		.word	1072693248
 882 01c0 00000000 		.word	.LANCHOR7
 883 01c4 00001140 		.word	1074855936
 884              	.LBE3:
 885              		.cfi_endproc
 886              	.LFE145:
 888              		.section	.text.RadioSend,"ax",%progbits
 889              		.align	1
 890              		.global	RadioSend
 891              		.syntax unified
 892              		.thumb
 893              		.thumb_func
 894              		.fpu fpv4-sp-d16
 896              	RadioSend:
 897              	.LVL80:
 898              	.LFB146:
 873:Core/Src/radio/sx126x/radio.c ****     SX126xSetDioIrqParams( IRQ_TX_DONE | IRQ_RX_TX_TIMEOUT,
 899              		.loc 1 873 1 is_stmt 1 view -0
 900              		.cfi_startproc
 901              		@ args = 0, pretend = 0, frame = 0
 902              		@ frame_needed = 0, uses_anonymous_args = 0
 873:Core/Src/radio/sx126x/radio.c ****     SX126xSetDioIrqParams( IRQ_TX_DONE | IRQ_RX_TX_TIMEOUT,
 903              		.loc 1 873 1 is_stmt 0 view .LVU179
 904 0000 38B5     		push	{r3, r4, r5, lr}
 905              	.LCFI9:
 906              		.cfi_def_cfa_offset 16
 907              		.cfi_offset 3, -16
 908              		.cfi_offset 4, -12
 909              		.cfi_offset 5, -8
 910              		.cfi_offset 14, -4
 911 0002 0546     		mov	r5, r0
 912 0004 0C46     		mov	r4, r1
 874:Core/Src/radio/sx126x/radio.c ****                            IRQ_TX_DONE | IRQ_RX_TX_TIMEOUT,
 913              		.loc 1 874 5 is_stmt 1 view .LVU180
 914 0006 0023     		movs	r3, #0
 915 0008 1A46     		mov	r2, r3
 916 000a 40F20121 		movw	r1, #513
 917              	.LVL81:
 874:Core/Src/radio/sx126x/radio.c ****                            IRQ_TX_DONE | IRQ_RX_TX_TIMEOUT,
 918              		.loc 1 874 5 is_stmt 0 view .LVU181
 919 000e 0846     		mov	r0, r1
 920              	.LVL82:
 874:Core/Src/radio/sx126x/radio.c ****                            IRQ_TX_DONE | IRQ_RX_TX_TIMEOUT,
 921              		.loc 1 874 5 view .LVU182
 922 0010 FFF7FEFF 		bl	SX126xSetDioIrqParams
 923              	.LVL83:
 879:Core/Src/radio/sx126x/radio.c ****     {
 924              		.loc 1 879 5 is_stmt 1 view .LVU183
 879:Core/Src/radio/sx126x/radio.c ****     {
 925              		.loc 1 879 9 is_stmt 0 view .LVU184
 926 0014 FFF7FEFF 		bl	SX126xGetPacketType
ARM GAS  C:\Users\andywei\AppData\Local\Temp\cccFfT7V.s 			page 38


 927              	.LVL84:
 879:Core/Src/radio/sx126x/radio.c ****     {
 928              		.loc 1 879 7 view .LVU185
 929 0018 0128     		cmp	r0, #1
 930 001a 14D0     		beq	.L74
 885:Core/Src/radio/sx126x/radio.c ****     }
 931              		.loc 1 885 9 is_stmt 1 view .LVU186
 885:Core/Src/radio/sx126x/radio.c ****     }
 932              		.loc 1 885 55 is_stmt 0 view .LVU187
 933 001c 0C4B     		ldr	r3, .L75
 934 001e 83F8D840 		strb	r4, [r3, #216]
 935              	.L72:
 887:Core/Src/radio/sx126x/radio.c **** 
 936              		.loc 1 887 5 is_stmt 1 view .LVU188
 937 0022 0C48     		ldr	r0, .L75+4
 938 0024 FFF7FEFF 		bl	SX126xSetPacketParams
 939              	.LVL85:
 889:Core/Src/radio/sx126x/radio.c ****     TimerSetValue( &TxTimeoutTimer, TxTimeout );
 940              		.loc 1 889 5 view .LVU189
 941 0028 0022     		movs	r2, #0
 942 002a 2146     		mov	r1, r4
 943 002c 2846     		mov	r0, r5
 944 002e FFF7FEFF 		bl	SX126xSendPayload
 945              	.LVL86:
 890:Core/Src/radio/sx126x/radio.c ****     TimerStart( &TxTimeoutTimer );
 946              		.loc 1 890 5 view .LVU190
 947 0032 094C     		ldr	r4, .L75+8
 948 0034 094B     		ldr	r3, .L75+12
 949 0036 1968     		ldr	r1, [r3]
 950 0038 2046     		mov	r0, r4
 951 003a FFF7FEFF 		bl	TimerSetValue
 952              	.LVL87:
 891:Core/Src/radio/sx126x/radio.c **** }
 953              		.loc 1 891 5 view .LVU191
 954 003e 2046     		mov	r0, r4
 955 0040 FFF7FEFF 		bl	TimerStart
 956              	.LVL88:
 892:Core/Src/radio/sx126x/radio.c **** 
 957              		.loc 1 892 1 is_stmt 0 view .LVU192
 958 0044 38BD     		pop	{r3, r4, r5, pc}
 959              	.LVL89:
 960              	.L74:
 881:Core/Src/radio/sx126x/radio.c ****     }
 961              		.loc 1 881 9 is_stmt 1 view .LVU193
 881:Core/Src/radio/sx126x/radio.c ****     }
 962              		.loc 1 881 55 is_stmt 0 view .LVU194
 963 0046 024B     		ldr	r3, .L75
 964 0048 83F8DF40 		strb	r4, [r3, #223]
 965 004c E9E7     		b	.L72
 966              	.L76:
 967 004e 00BF     		.align	2
 968              	.L75:
 969 0050 00000000 		.word	.LANCHOR6
 970 0054 D0000000 		.word	.LANCHOR6+208
 971 0058 00000000 		.word	.LANCHOR3
 972 005c 00000000 		.word	.LANCHOR8
 973              		.cfi_endproc
ARM GAS  C:\Users\andywei\AppData\Local\Temp\cccFfT7V.s 			page 39


 974              	.LFE146:
 976              		.section	.text.RadioRx,"ax",%progbits
 977              		.align	1
 978              		.global	RadioRx
 979              		.syntax unified
 980              		.thumb
 981              		.thumb_func
 982              		.fpu fpv4-sp-d16
 984              	RadioRx:
 985              	.LVL90:
 986              	.LFB149:
 910:Core/Src/radio/sx126x/radio.c ****     SX126xSetDioIrqParams( IRQ_RADIO_ALL, //IRQ_RX_DONE | IRQ_RX_TX_TIMEOUT,
 987              		.loc 1 910 1 is_stmt 1 view -0
 988              		.cfi_startproc
 989              		@ args = 0, pretend = 0, frame = 0
 990              		@ frame_needed = 0, uses_anonymous_args = 0
 910:Core/Src/radio/sx126x/radio.c ****     SX126xSetDioIrqParams( IRQ_RADIO_ALL, //IRQ_RX_DONE | IRQ_RX_TX_TIMEOUT,
 991              		.loc 1 910 1 is_stmt 0 view .LVU196
 992 0000 38B5     		push	{r3, r4, r5, lr}
 993              	.LCFI10:
 994              		.cfi_def_cfa_offset 16
 995              		.cfi_offset 3, -16
 996              		.cfi_offset 4, -12
 997              		.cfi_offset 5, -8
 998              		.cfi_offset 14, -4
 999 0002 0446     		mov	r4, r0
 911:Core/Src/radio/sx126x/radio.c ****                            IRQ_RADIO_ALL, //IRQ_RX_DONE | IRQ_RX_TX_TIMEOUT,
 1000              		.loc 1 911 5 is_stmt 1 view .LVU197
 1001 0004 0023     		movs	r3, #0
 1002 0006 1A46     		mov	r2, r3
 1003 0008 4FF6FF71 		movw	r1, #65535
 1004 000c 0846     		mov	r0, r1
 1005              	.LVL91:
 911:Core/Src/radio/sx126x/radio.c ****                            IRQ_RADIO_ALL, //IRQ_RX_DONE | IRQ_RX_TX_TIMEOUT,
 1006              		.loc 1 911 5 is_stmt 0 view .LVU198
 1007 000e FFF7FEFF 		bl	SX126xSetDioIrqParams
 1008              	.LVL92:
 916:Core/Src/radio/sx126x/radio.c ****     {
 1009              		.loc 1 916 5 is_stmt 1 view .LVU199
 916:Core/Src/radio/sx126x/radio.c ****     {
 1010              		.loc 1 916 7 is_stmt 0 view .LVU200
 1011 0012 3CB9     		cbnz	r4, .L82
 1012              	.L78:
 922:Core/Src/radio/sx126x/radio.c ****     {
 1013              		.loc 1 922 5 is_stmt 1 view .LVU201
 922:Core/Src/radio/sx126x/radio.c ****     {
 1014              		.loc 1 922 22 is_stmt 0 view .LVU202
 1015 0014 0B4B     		ldr	r3, .L83
 1016 0016 1B78     		ldrb	r3, [r3]	@ zero_extendqisi2
 922:Core/Src/radio/sx126x/radio.c ****     {
 1017              		.loc 1 922 7 view .LVU203
 1018 0018 6BB1     		cbz	r3, .L79
 924:Core/Src/radio/sx126x/radio.c ****     }
 1019              		.loc 1 924 9 is_stmt 1 view .LVU204
 1020 001a 6FF07F40 		mvn	r0, #-16777216
 1021 001e FFF7FEFF 		bl	SX126xSetRx
 1022              	.LVL93:
ARM GAS  C:\Users\andywei\AppData\Local\Temp\cccFfT7V.s 			page 40


 1023              	.L77:
 930:Core/Src/radio/sx126x/radio.c **** 
 1024              		.loc 1 930 1 is_stmt 0 view .LVU205
 1025 0022 38BD     		pop	{r3, r4, r5, pc}
 1026              	.LVL94:
 1027              	.L82:
 918:Core/Src/radio/sx126x/radio.c ****         TimerStart( &RxTimeoutTimer );
 1028              		.loc 1 918 9 is_stmt 1 view .LVU206
 1029 0024 084D     		ldr	r5, .L83+4
 1030 0026 2146     		mov	r1, r4
 1031 0028 2846     		mov	r0, r5
 1032 002a FFF7FEFF 		bl	TimerSetValue
 1033              	.LVL95:
 919:Core/Src/radio/sx126x/radio.c ****     }
 1034              		.loc 1 919 9 view .LVU207
 1035 002e 2846     		mov	r0, r5
 1036 0030 FFF7FEFF 		bl	TimerStart
 1037              	.LVL96:
 1038 0034 EEE7     		b	.L78
 1039              	.L79:
 928:Core/Src/radio/sx126x/radio.c ****     }
 1040              		.loc 1 928 9 view .LVU208
 1041 0036 054B     		ldr	r3, .L83+8
 1042 0038 1868     		ldr	r0, [r3]
 1043 003a 8001     		lsls	r0, r0, #6
 1044 003c FFF7FEFF 		bl	SX126xSetRx
 1045              	.LVL97:
 930:Core/Src/radio/sx126x/radio.c **** 
 1046              		.loc 1 930 1 is_stmt 0 view .LVU209
 1047 0040 EFE7     		b	.L77
 1048              	.L84:
 1049 0042 00BF     		.align	2
 1050              	.L83:
 1051 0044 00000000 		.word	.LANCHOR9
 1052 0048 00000000 		.word	.LANCHOR4
 1053 004c 00000000 		.word	.LANCHOR10
 1054              		.cfi_endproc
 1055              	.LFE149:
 1057              		.section	.text.RadioSleep,"ax",%progbits
 1058              		.align	1
 1059              		.global	RadioSleep
 1060              		.syntax unified
 1061              		.thumb
 1062              		.thumb_func
 1063              		.fpu fpv4-sp-d16
 1065              	RadioSleep:
 1066              	.LFB147:
 895:Core/Src/radio/sx126x/radio.c ****     SleepParams_t params = { 0 };
 1067              		.loc 1 895 1 is_stmt 1 view -0
 1068              		.cfi_startproc
 1069              		@ args = 0, pretend = 0, frame = 0
 1070              		@ frame_needed = 0, uses_anonymous_args = 0
 1071 0000 08B5     		push	{r3, lr}
 1072              	.LCFI11:
 1073              		.cfi_def_cfa_offset 8
 1074              		.cfi_offset 3, -8
 1075              		.cfi_offset 14, -4
ARM GAS  C:\Users\andywei\AppData\Local\Temp\cccFfT7V.s 			page 41


 896:Core/Src/radio/sx126x/radio.c **** 
 1076              		.loc 1 896 5 view .LVU211
 898:Core/Src/radio/sx126x/radio.c ****     SX126xSetSleep( params );
 1077              		.loc 1 898 5 view .LVU212
 899:Core/Src/radio/sx126x/radio.c **** 
 1078              		.loc 1 899 5 view .LVU213
 1079 0002 4FF00400 		mov	r0, #4
 1080 0006 FFF7FEFF 		bl	SX126xSetSleep
 1081              	.LVL98:
 901:Core/Src/radio/sx126x/radio.c **** }
 1082              		.loc 1 901 5 view .LVU214
 1083 000a 0220     		movs	r0, #2
 1084 000c FFF7FEFF 		bl	DelayMs
 1085              	.LVL99:
 902:Core/Src/radio/sx126x/radio.c **** 
 1086              		.loc 1 902 1 is_stmt 0 view .LVU215
 1087 0010 08BD     		pop	{r3, pc}
 1088              		.cfi_endproc
 1089              	.LFE147:
 1091              		.section	.text.RadioRxBoosted,"ax",%progbits
 1092              		.align	1
 1093              		.global	RadioRxBoosted
 1094              		.syntax unified
 1095              		.thumb
 1096              		.thumb_func
 1097              		.fpu fpv4-sp-d16
 1099              	RadioRxBoosted:
 1100              	.LVL100:
 1101              	.LFB150:
 933:Core/Src/radio/sx126x/radio.c ****     SX126xSetDioIrqParams( IRQ_RADIO_ALL, //IRQ_RX_DONE | IRQ_RX_TX_TIMEOUT,
 1102              		.loc 1 933 1 is_stmt 1 view -0
 1103              		.cfi_startproc
 1104              		@ args = 0, pretend = 0, frame = 0
 1105              		@ frame_needed = 0, uses_anonymous_args = 0
 933:Core/Src/radio/sx126x/radio.c ****     SX126xSetDioIrqParams( IRQ_RADIO_ALL, //IRQ_RX_DONE | IRQ_RX_TX_TIMEOUT,
 1106              		.loc 1 933 1 is_stmt 0 view .LVU217
 1107 0000 38B5     		push	{r3, r4, r5, lr}
 1108              	.LCFI12:
 1109              		.cfi_def_cfa_offset 16
 1110              		.cfi_offset 3, -16
 1111              		.cfi_offset 4, -12
 1112              		.cfi_offset 5, -8
 1113              		.cfi_offset 14, -4
 1114 0002 0446     		mov	r4, r0
 934:Core/Src/radio/sx126x/radio.c ****                            IRQ_RADIO_ALL, //IRQ_RX_DONE | IRQ_RX_TX_TIMEOUT,
 1115              		.loc 1 934 5 is_stmt 1 view .LVU218
 1116 0004 0023     		movs	r3, #0
 1117 0006 1A46     		mov	r2, r3
 1118 0008 4FF6FF71 		movw	r1, #65535
 1119 000c 0846     		mov	r0, r1
 1120              	.LVL101:
 934:Core/Src/radio/sx126x/radio.c ****                            IRQ_RADIO_ALL, //IRQ_RX_DONE | IRQ_RX_TX_TIMEOUT,
 1121              		.loc 1 934 5 is_stmt 0 view .LVU219
 1122 000e FFF7FEFF 		bl	SX126xSetDioIrqParams
 1123              	.LVL102:
 939:Core/Src/radio/sx126x/radio.c ****     {    
 1124              		.loc 1 939 5 is_stmt 1 view .LVU220
ARM GAS  C:\Users\andywei\AppData\Local\Temp\cccFfT7V.s 			page 42


 939:Core/Src/radio/sx126x/radio.c ****     {    
 1125              		.loc 1 939 7 is_stmt 0 view .LVU221
 1126 0012 3CB9     		cbnz	r4, .L92
 1127              	.L88:
 945:Core/Src/radio/sx126x/radio.c ****     {
 1128              		.loc 1 945 5 is_stmt 1 view .LVU222
 945:Core/Src/radio/sx126x/radio.c ****     {
 1129              		.loc 1 945 22 is_stmt 0 view .LVU223
 1130 0014 0B4B     		ldr	r3, .L93
 1131 0016 1B78     		ldrb	r3, [r3]	@ zero_extendqisi2
 945:Core/Src/radio/sx126x/radio.c ****     {
 1132              		.loc 1 945 7 view .LVU224
 1133 0018 6BB1     		cbz	r3, .L89
 947:Core/Src/radio/sx126x/radio.c ****     }
 1134              		.loc 1 947 9 is_stmt 1 view .LVU225
 1135 001a 6FF07F40 		mvn	r0, #-16777216
 1136 001e FFF7FEFF 		bl	SX126xSetRxBoosted
 1137              	.LVL103:
 1138              	.L87:
 953:Core/Src/radio/sx126x/radio.c **** 
 1139              		.loc 1 953 1 is_stmt 0 view .LVU226
 1140 0022 38BD     		pop	{r3, r4, r5, pc}
 1141              	.LVL104:
 1142              	.L92:
 941:Core/Src/radio/sx126x/radio.c ****         TimerStart( &RxTimeoutTimer );
 1143              		.loc 1 941 9 is_stmt 1 view .LVU227
 1144 0024 084D     		ldr	r5, .L93+4
 1145 0026 2146     		mov	r1, r4
 1146 0028 2846     		mov	r0, r5
 1147 002a FFF7FEFF 		bl	TimerSetValue
 1148              	.LVL105:
 942:Core/Src/radio/sx126x/radio.c ****     }
 1149              		.loc 1 942 9 view .LVU228
 1150 002e 2846     		mov	r0, r5
 1151 0030 FFF7FEFF 		bl	TimerStart
 1152              	.LVL106:
 1153 0034 EEE7     		b	.L88
 1154              	.L89:
 951:Core/Src/radio/sx126x/radio.c ****     }
 1155              		.loc 1 951 9 view .LVU229
 1156 0036 054B     		ldr	r3, .L93+8
 1157 0038 1868     		ldr	r0, [r3]
 1158 003a 8001     		lsls	r0, r0, #6
 1159 003c FFF7FEFF 		bl	SX126xSetRxBoosted
 1160              	.LVL107:
 953:Core/Src/radio/sx126x/radio.c **** 
 1161              		.loc 1 953 1 is_stmt 0 view .LVU230
 1162 0040 EFE7     		b	.L87
 1163              	.L94:
 1164 0042 00BF     		.align	2
 1165              	.L93:
 1166 0044 00000000 		.word	.LANCHOR9
 1167 0048 00000000 		.word	.LANCHOR4
 1168 004c 00000000 		.word	.LANCHOR10
 1169              		.cfi_endproc
 1170              	.LFE150:
 1172              		.section	.text.RadioSetRxDutyCycle,"ax",%progbits
ARM GAS  C:\Users\andywei\AppData\Local\Temp\cccFfT7V.s 			page 43


 1173              		.align	1
 1174              		.global	RadioSetRxDutyCycle
 1175              		.syntax unified
 1176              		.thumb
 1177              		.thumb_func
 1178              		.fpu fpv4-sp-d16
 1180              	RadioSetRxDutyCycle:
 1181              	.LVL108:
 1182              	.LFB151:
 956:Core/Src/radio/sx126x/radio.c ****     SX126xSetRxDutyCycle( rxTime, sleepTime );
 1183              		.loc 1 956 1 is_stmt 1 view -0
 1184              		.cfi_startproc
 1185              		@ args = 0, pretend = 0, frame = 0
 1186              		@ frame_needed = 0, uses_anonymous_args = 0
 956:Core/Src/radio/sx126x/radio.c ****     SX126xSetRxDutyCycle( rxTime, sleepTime );
 1187              		.loc 1 956 1 is_stmt 0 view .LVU232
 1188 0000 08B5     		push	{r3, lr}
 1189              	.LCFI13:
 1190              		.cfi_def_cfa_offset 8
 1191              		.cfi_offset 3, -8
 1192              		.cfi_offset 14, -4
 957:Core/Src/radio/sx126x/radio.c **** }
 1193              		.loc 1 957 5 is_stmt 1 view .LVU233
 1194 0002 FFF7FEFF 		bl	SX126xSetRxDutyCycle
 1195              	.LVL109:
 958:Core/Src/radio/sx126x/radio.c **** 
 1196              		.loc 1 958 1 is_stmt 0 view .LVU234
 1197 0006 08BD     		pop	{r3, pc}
 1198              		.cfi_endproc
 1199              	.LFE151:
 1201              		.section	.text.RadioStartCad,"ax",%progbits
 1202              		.align	1
 1203              		.global	RadioStartCad
 1204              		.syntax unified
 1205              		.thumb
 1206              		.thumb_func
 1207              		.fpu fpv4-sp-d16
 1209              	RadioStartCad:
 1210              	.LFB152:
 961:Core/Src/radio/sx126x/radio.c ****     SX126xSetCad( );
 1211              		.loc 1 961 1 is_stmt 1 view -0
 1212              		.cfi_startproc
 1213              		@ args = 0, pretend = 0, frame = 0
 1214              		@ frame_needed = 0, uses_anonymous_args = 0
 1215 0000 08B5     		push	{r3, lr}
 1216              	.LCFI14:
 1217              		.cfi_def_cfa_offset 8
 1218              		.cfi_offset 3, -8
 1219              		.cfi_offset 14, -4
 962:Core/Src/radio/sx126x/radio.c **** }
 1220              		.loc 1 962 5 view .LVU236
 1221 0002 FFF7FEFF 		bl	SX126xSetCad
 1222              	.LVL110:
 963:Core/Src/radio/sx126x/radio.c **** 
 1223              		.loc 1 963 1 is_stmt 0 view .LVU237
 1224 0006 08BD     		pop	{r3, pc}
 1225              		.cfi_endproc
ARM GAS  C:\Users\andywei\AppData\Local\Temp\cccFfT7V.s 			page 44


 1226              	.LFE152:
 1228              		.section	.text.RadioSetTxContinuousWave,"ax",%progbits
 1229              		.align	1
 1230              		.global	RadioSetTxContinuousWave
 1231              		.syntax unified
 1232              		.thumb
 1233              		.thumb_func
 1234              		.fpu fpv4-sp-d16
 1236              	RadioSetTxContinuousWave:
 1237              	.LVL111:
 1238              	.LFB154:
 971:Core/Src/radio/sx126x/radio.c ****     SX126xSetRfFrequency( freq );
 1239              		.loc 1 971 1 is_stmt 1 view -0
 1240              		.cfi_startproc
 1241              		@ args = 0, pretend = 0, frame = 0
 1242              		@ frame_needed = 0, uses_anonymous_args = 0
 971:Core/Src/radio/sx126x/radio.c ****     SX126xSetRfFrequency( freq );
 1243              		.loc 1 971 1 is_stmt 0 view .LVU239
 1244 0000 38B5     		push	{r3, r4, r5, lr}
 1245              	.LCFI15:
 1246              		.cfi_def_cfa_offset 16
 1247              		.cfi_offset 3, -16
 1248              		.cfi_offset 4, -12
 1249              		.cfi_offset 5, -8
 1250              		.cfi_offset 14, -4
 1251 0002 0D46     		mov	r5, r1
 1252 0004 1446     		mov	r4, r2
 972:Core/Src/radio/sx126x/radio.c ****     SX126xSetRfTxPower( power );
 1253              		.loc 1 972 5 is_stmt 1 view .LVU240
 1254 0006 FFF7FEFF 		bl	SX126xSetRfFrequency
 1255              	.LVL112:
 973:Core/Src/radio/sx126x/radio.c ****     SX126xSetTxContinuousWave( );
 1256              		.loc 1 973 5 view .LVU241
 1257 000a 2846     		mov	r0, r5
 1258 000c FFF7FEFF 		bl	SX126xSetRfTxPower
 1259              	.LVL113:
 974:Core/Src/radio/sx126x/radio.c **** 
 1260              		.loc 1 974 5 view .LVU242
 1261 0010 FFF7FEFF 		bl	SX126xSetTxContinuousWave
 1262              	.LVL114:
 976:Core/Src/radio/sx126x/radio.c ****     TimerStart( &RxTimeoutTimer );
 1263              		.loc 1 976 5 view .LVU243
 976:Core/Src/radio/sx126x/radio.c ****     TimerStart( &RxTimeoutTimer );
 1264              		.loc 1 976 43 is_stmt 0 view .LVU244
 1265 0014 2046     		mov	r0, r4
 1266 0016 FFF7FEFF 		bl	__aeabi_i2d
 1267              	.LVL115:
 1268 001a 0022     		movs	r2, #0
 1269 001c 064B     		ldr	r3, .L101
 1270 001e FFF7FEFF 		bl	__aeabi_dmul
 1271              	.LVL116:
 976:Core/Src/radio/sx126x/radio.c ****     TimerStart( &RxTimeoutTimer );
 1272              		.loc 1 976 5 view .LVU245
 1273 0022 FFF7FEFF 		bl	__aeabi_d2uiz
 1274              	.LVL117:
 1275 0026 0146     		mov	r1, r0
 1276 0028 044C     		ldr	r4, .L101+4
ARM GAS  C:\Users\andywei\AppData\Local\Temp\cccFfT7V.s 			page 45


 1277 002a 2046     		mov	r0, r4
 1278 002c FFF7FEFF 		bl	TimerSetValue
 1279              	.LVL118:
 977:Core/Src/radio/sx126x/radio.c **** }
 1280              		.loc 1 977 5 is_stmt 1 view .LVU246
 1281 0030 2046     		mov	r0, r4
 1282 0032 FFF7FEFF 		bl	TimerStart
 1283              	.LVL119:
 978:Core/Src/radio/sx126x/radio.c **** 
 1284              		.loc 1 978 1 is_stmt 0 view .LVU247
 1285 0036 38BD     		pop	{r3, r4, r5, pc}
 1286              	.L102:
 1287              		.align	2
 1288              	.L101:
 1289 0038 00408F40 		.word	1083129856
 1290 003c 00000000 		.word	.LANCHOR4
 1291              		.cfi_endproc
 1292              	.LFE154:
 1294              		.section	.text.RadioWrite,"ax",%progbits
 1295              		.align	1
 1296              		.global	RadioWrite
 1297              		.syntax unified
 1298              		.thumb
 1299              		.thumb_func
 1300              		.fpu fpv4-sp-d16
 1302              	RadioWrite:
 1303              	.LVL120:
 1304              	.LFB156:
 986:Core/Src/radio/sx126x/radio.c ****     SX126xWriteRegister( addr, data );
 1305              		.loc 1 986 1 is_stmt 1 view -0
 1306              		.cfi_startproc
 1307              		@ args = 0, pretend = 0, frame = 0
 1308              		@ frame_needed = 0, uses_anonymous_args = 0
 986:Core/Src/radio/sx126x/radio.c ****     SX126xWriteRegister( addr, data );
 1309              		.loc 1 986 1 is_stmt 0 view .LVU249
 1310 0000 08B5     		push	{r3, lr}
 1311              	.LCFI16:
 1312              		.cfi_def_cfa_offset 8
 1313              		.cfi_offset 3, -8
 1314              		.cfi_offset 14, -4
 987:Core/Src/radio/sx126x/radio.c **** }
 1315              		.loc 1 987 5 is_stmt 1 view .LVU250
 1316 0002 FFF7FEFF 		bl	SX126xWriteRegister
 1317              	.LVL121:
 988:Core/Src/radio/sx126x/radio.c **** 
 1318              		.loc 1 988 1 is_stmt 0 view .LVU251
 1319 0006 08BD     		pop	{r3, pc}
 1320              		.cfi_endproc
 1321              	.LFE156:
 1323              		.section	.text.RadioSetPublicNetwork,"ax",%progbits
 1324              		.align	1
 1325              		.global	RadioSetPublicNetwork
 1326              		.syntax unified
 1327              		.thumb
 1328              		.thumb_func
 1329              		.fpu fpv4-sp-d16
 1331              	RadioSetPublicNetwork:
ARM GAS  C:\Users\andywei\AppData\Local\Temp\cccFfT7V.s 			page 46


 1332              	.LVL122:
 1333              	.LFB163:
1033:Core/Src/radio/sx126x/radio.c ****     RadioPublicNetwork.Current = RadioPublicNetwork.Previous = enable;
 1334              		.loc 1 1033 1 is_stmt 1 view -0
 1335              		.cfi_startproc
 1336              		@ args = 0, pretend = 0, frame = 0
 1337              		@ frame_needed = 0, uses_anonymous_args = 0
1033:Core/Src/radio/sx126x/radio.c ****     RadioPublicNetwork.Current = RadioPublicNetwork.Previous = enable;
 1338              		.loc 1 1033 1 is_stmt 0 view .LVU253
 1339 0000 10B5     		push	{r4, lr}
 1340              	.LCFI17:
 1341              		.cfi_def_cfa_offset 8
 1342              		.cfi_offset 4, -8
 1343              		.cfi_offset 14, -4
 1344 0002 0446     		mov	r4, r0
1034:Core/Src/radio/sx126x/radio.c **** 
 1345              		.loc 1 1034 5 is_stmt 1 view .LVU254
1034:Core/Src/radio/sx126x/radio.c **** 
 1346              		.loc 1 1034 62 is_stmt 0 view .LVU255
 1347 0004 0E4B     		ldr	r3, .L109
 1348 0006 1870     		strb	r0, [r3]
1034:Core/Src/radio/sx126x/radio.c **** 
 1349              		.loc 1 1034 32 view .LVU256
 1350 0008 5870     		strb	r0, [r3, #1]
1036:Core/Src/radio/sx126x/radio.c ****     if( enable == true )
 1351              		.loc 1 1036 5 is_stmt 1 view .LVU257
 1352 000a 0120     		movs	r0, #1
 1353              	.LVL123:
1036:Core/Src/radio/sx126x/radio.c ****     if( enable == true )
 1354              		.loc 1 1036 5 is_stmt 0 view .LVU258
 1355 000c FFF7FEFF 		bl	RadioSetModem
 1356              	.LVL124:
1037:Core/Src/radio/sx126x/radio.c ****     {
 1357              		.loc 1 1037 5 is_stmt 1 view .LVU259
1037:Core/Src/radio/sx126x/radio.c ****     {
 1358              		.loc 1 1037 7 is_stmt 0 view .LVU260
 1359 0010 54B1     		cbz	r4, .L106
1040:Core/Src/radio/sx126x/radio.c ****         SX126xWriteRegister( REG_LR_SYNCWORD + 1, LORA_MAC_PUBLIC_SYNCWORD & 0xFF );
 1360              		.loc 1 1040 9 is_stmt 1 view .LVU261
 1361 0012 3421     		movs	r1, #52
 1362 0014 4FF4E860 		mov	r0, #1856
 1363 0018 FFF7FEFF 		bl	SX126xWriteRegister
 1364              	.LVL125:
1041:Core/Src/radio/sx126x/radio.c ****     }
 1365              		.loc 1 1041 9 view .LVU262
 1366 001c 4421     		movs	r1, #68
 1367 001e 40F24170 		movw	r0, #1857
 1368 0022 FFF7FEFF 		bl	SX126xWriteRegister
 1369              	.LVL126:
 1370              	.L105:
1049:Core/Src/radio/sx126x/radio.c **** 
 1371              		.loc 1 1049 1 is_stmt 0 view .LVU263
 1372 0026 10BD     		pop	{r4, pc}
 1373              	.L106:
1046:Core/Src/radio/sx126x/radio.c ****         SX126xWriteRegister( REG_LR_SYNCWORD + 1, LORA_MAC_PRIVATE_SYNCWORD & 0xFF );
 1374              		.loc 1 1046 9 is_stmt 1 view .LVU264
 1375 0028 1421     		movs	r1, #20
ARM GAS  C:\Users\andywei\AppData\Local\Temp\cccFfT7V.s 			page 47


 1376 002a 4FF4E860 		mov	r0, #1856
 1377 002e FFF7FEFF 		bl	SX126xWriteRegister
 1378              	.LVL127:
1047:Core/Src/radio/sx126x/radio.c ****     }
 1379              		.loc 1 1047 9 view .LVU265
 1380 0032 2421     		movs	r1, #36
 1381 0034 40F24170 		movw	r0, #1857
 1382 0038 FFF7FEFF 		bl	SX126xWriteRegister
 1383              	.LVL128:
1049:Core/Src/radio/sx126x/radio.c **** 
 1384              		.loc 1 1049 1 is_stmt 0 view .LVU266
 1385 003c F3E7     		b	.L105
 1386              	.L110:
 1387 003e 00BF     		.align	2
 1388              	.L109:
 1389 0040 00000000 		.word	.LANCHOR11
 1390              		.cfi_endproc
 1391              	.LFE163:
 1393              		.section	.text.RadioSetModem,"ax",%progbits
 1394              		.align	1
 1395              		.global	RadioSetModem
 1396              		.syntax unified
 1397              		.thumb
 1398              		.thumb_func
 1399              		.fpu fpv4-sp-d16
 1401              	RadioSetModem:
 1402              	.LVL129:
 1403              	.LFB138:
 529:Core/Src/radio/sx126x/radio.c ****     switch( modem )
 1404              		.loc 1 529 1 is_stmt 1 view -0
 1405              		.cfi_startproc
 1406              		@ args = 0, pretend = 0, frame = 0
 1407              		@ frame_needed = 0, uses_anonymous_args = 0
 529:Core/Src/radio/sx126x/radio.c ****     switch( modem )
 1408              		.loc 1 529 1 is_stmt 0 view .LVU268
 1409 0000 08B5     		push	{r3, lr}
 1410              	.LCFI18:
 1411              		.cfi_def_cfa_offset 8
 1412              		.cfi_offset 3, -8
 1413              		.cfi_offset 14, -4
 530:Core/Src/radio/sx126x/radio.c ****     {
 1414              		.loc 1 530 5 is_stmt 1 view .LVU269
 1415 0002 0128     		cmp	r0, #1
 1416 0004 06D0     		beq	.L112
 534:Core/Src/radio/sx126x/radio.c ****         // When switching to GFSK mode the LoRa SyncWord register value is reset
 1417              		.loc 1 534 9 view .LVU270
 1418 0006 0020     		movs	r0, #0
 1419              	.LVL130:
 534:Core/Src/radio/sx126x/radio.c ****         // When switching to GFSK mode the LoRa SyncWord register value is reset
 1420              		.loc 1 534 9 is_stmt 0 view .LVU271
 1421 0008 FFF7FEFF 		bl	SX126xSetPacketType
 1422              	.LVL131:
 537:Core/Src/radio/sx126x/radio.c ****         break;
 1423              		.loc 1 537 9 is_stmt 1 view .LVU272
 537:Core/Src/radio/sx126x/radio.c ****         break;
 1424              		.loc 1 537 36 is_stmt 0 view .LVU273
 1425 000c 074B     		ldr	r3, .L115
ARM GAS  C:\Users\andywei\AppData\Local\Temp\cccFfT7V.s 			page 48


 1426 000e 0022     		movs	r2, #0
 1427 0010 5A70     		strb	r2, [r3, #1]
 538:Core/Src/radio/sx126x/radio.c ****     case MODEM_LORA:
 1428              		.loc 1 538 9 is_stmt 1 view .LVU274
 1429              	.L111:
 549:Core/Src/radio/sx126x/radio.c **** 
 1430              		.loc 1 549 1 is_stmt 0 view .LVU275
 1431 0012 08BD     		pop	{r3, pc}
 1432              	.LVL132:
 1433              	.L112:
 540:Core/Src/radio/sx126x/radio.c ****         // Public/Private network register is reset when switching modems
 1434              		.loc 1 540 9 is_stmt 1 view .LVU276
 1435 0014 0120     		movs	r0, #1
 1436              	.LVL133:
 540:Core/Src/radio/sx126x/radio.c ****         // Public/Private network register is reset when switching modems
 1437              		.loc 1 540 9 is_stmt 0 view .LVU277
 1438 0016 FFF7FEFF 		bl	SX126xSetPacketType
 1439              	.LVL134:
 542:Core/Src/radio/sx126x/radio.c ****         {
 1440              		.loc 1 542 9 is_stmt 1 view .LVU278
 542:Core/Src/radio/sx126x/radio.c ****         {
 1441              		.loc 1 542 31 is_stmt 0 view .LVU279
 1442 001a 044B     		ldr	r3, .L115
 1443 001c 5A78     		ldrb	r2, [r3, #1]	@ zero_extendqisi2
 542:Core/Src/radio/sx126x/radio.c ****         {
 1444              		.loc 1 542 61 view .LVU280
 1445 001e 1878     		ldrb	r0, [r3]	@ zero_extendqisi2
 542:Core/Src/radio/sx126x/radio.c ****         {
 1446              		.loc 1 542 11 view .LVU281
 1447 0020 8242     		cmp	r2, r0
 1448 0022 F6D0     		beq	.L111
 544:Core/Src/radio/sx126x/radio.c ****             RadioSetPublicNetwork( RadioPublicNetwork.Current );
 1449              		.loc 1 544 13 is_stmt 1 view .LVU282
 544:Core/Src/radio/sx126x/radio.c ****             RadioSetPublicNetwork( RadioPublicNetwork.Current );
 1450              		.loc 1 544 40 is_stmt 0 view .LVU283
 1451 0024 5870     		strb	r0, [r3, #1]
 545:Core/Src/radio/sx126x/radio.c ****         }
 1452              		.loc 1 545 13 is_stmt 1 view .LVU284
 1453 0026 FFF7FEFF 		bl	RadioSetPublicNetwork
 1454              	.LVL135:
 549:Core/Src/radio/sx126x/radio.c **** 
 1455              		.loc 1 549 1 is_stmt 0 view .LVU285
 1456 002a F2E7     		b	.L111
 1457              	.L116:
 1458              		.align	2
 1459              	.L115:
 1460 002c 00000000 		.word	.LANCHOR11
 1461              		.cfi_endproc
 1462              	.LFE138:
 1464              		.section	.text.RadioIsChannelFree,"ax",%progbits
 1465              		.align	1
 1466              		.global	RadioIsChannelFree
 1467              		.syntax unified
 1468              		.thumb
 1469              		.thumb_func
 1470              		.fpu fpv4-sp-d16
 1472              	RadioIsChannelFree:
ARM GAS  C:\Users\andywei\AppData\Local\Temp\cccFfT7V.s 			page 49


 1473              	.LVL136:
 1474              	.LFB140:
 557:Core/Src/radio/sx126x/radio.c ****     bool status = true;
 1475              		.loc 1 557 1 is_stmt 1 view -0
 1476              		.cfi_startproc
 1477              		@ args = 0, pretend = 0, frame = 0
 1478              		@ frame_needed = 0, uses_anonymous_args = 0
 557:Core/Src/radio/sx126x/radio.c ****     bool status = true;
 1479              		.loc 1 557 1 is_stmt 0 view .LVU287
 1480 0000 F8B5     		push	{r3, r4, r5, r6, r7, lr}
 1481              	.LCFI19:
 1482              		.cfi_def_cfa_offset 24
 1483              		.cfi_offset 3, -24
 1484              		.cfi_offset 4, -20
 1485              		.cfi_offset 5, -16
 1486              		.cfi_offset 6, -12
 1487              		.cfi_offset 7, -8
 1488              		.cfi_offset 14, -4
 1489 0002 0746     		mov	r7, r0
 1490 0004 0C46     		mov	r4, r1
 1491 0006 1646     		mov	r6, r2
 1492 0008 1D46     		mov	r5, r3
 558:Core/Src/radio/sx126x/radio.c ****     int16_t rssi = 0;
 1493              		.loc 1 558 5 is_stmt 1 view .LVU288
 1494              	.LVL137:
 559:Core/Src/radio/sx126x/radio.c ****     uint32_t carrierSenseTime = 0;
 1495              		.loc 1 559 5 view .LVU289
 560:Core/Src/radio/sx126x/radio.c **** 
 1496              		.loc 1 560 5 view .LVU290
 562:Core/Src/radio/sx126x/radio.c **** 
 1497              		.loc 1 562 5 view .LVU291
 1498 000a FFF7FEFF 		bl	RadioSetModem
 1499              	.LVL138:
 564:Core/Src/radio/sx126x/radio.c **** 
 1500              		.loc 1 564 5 view .LVU292
 1501 000e 2046     		mov	r0, r4
 1502 0010 FFF7FEFF 		bl	RadioSetChannel
 1503              	.LVL139:
 566:Core/Src/radio/sx126x/radio.c **** 
 1504              		.loc 1 566 5 view .LVU293
 1505 0014 0020     		movs	r0, #0
 1506 0016 FFF7FEFF 		bl	RadioRx
 1507              	.LVL140:
 568:Core/Src/radio/sx126x/radio.c **** 
 1508              		.loc 1 568 5 view .LVU294
 1509 001a 0120     		movs	r0, #1
 1510 001c FFF7FEFF 		bl	DelayMs
 1511              	.LVL141:
 570:Core/Src/radio/sx126x/radio.c **** 
 1512              		.loc 1 570 5 view .LVU295
 570:Core/Src/radio/sx126x/radio.c **** 
 1513              		.loc 1 570 24 is_stmt 0 view .LVU296
 1514 0020 FFF7FEFF 		bl	TimerGetCurrentTime
 1515              	.LVL142:
 1516 0024 0446     		mov	r4, r0
 1517              	.LVL143:
 573:Core/Src/radio/sx126x/radio.c ****     {
ARM GAS  C:\Users\andywei\AppData\Local\Temp\cccFfT7V.s 			page 50


 1518              		.loc 1 573 5 is_stmt 1 view .LVU297
 1519              	.L118:
 573:Core/Src/radio/sx126x/radio.c ****     {
 1520              		.loc 1 573 10 view .LVU298
 573:Core/Src/radio/sx126x/radio.c ****     {
 1521              		.loc 1 573 12 is_stmt 0 view .LVU299
 1522 0026 2046     		mov	r0, r4
 1523 0028 FFF7FEFF 		bl	TimerGetElapsedTime
 1524              	.LVL144:
 573:Core/Src/radio/sx126x/radio.c ****     {
 1525              		.loc 1 573 10 view .LVU300
 1526 002c A842     		cmp	r0, r5
 1527 002e 06D2     		bcs	.L123
 575:Core/Src/radio/sx126x/radio.c **** 
 1528              		.loc 1 575 9 is_stmt 1 view .LVU301
 575:Core/Src/radio/sx126x/radio.c **** 
 1529              		.loc 1 575 16 is_stmt 0 view .LVU302
 1530 0030 3846     		mov	r0, r7
 1531 0032 FFF7FEFF 		bl	RadioRssi
 1532              	.LVL145:
 577:Core/Src/radio/sx126x/radio.c ****         {
 1533              		.loc 1 577 9 is_stmt 1 view .LVU303
 577:Core/Src/radio/sx126x/radio.c ****         {
 1534              		.loc 1 577 11 is_stmt 0 view .LVU304
 1535 0036 B042     		cmp	r0, r6
 1536 0038 F5DD     		ble	.L118
 579:Core/Src/radio/sx126x/radio.c ****             break;
 1537              		.loc 1 579 20 view .LVU305
 1538 003a 0024     		movs	r4, #0
 1539              	.LVL146:
 579:Core/Src/radio/sx126x/radio.c ****             break;
 1540              		.loc 1 579 20 view .LVU306
 1541 003c 00E0     		b	.L119
 1542              	.LVL147:
 1543              	.L123:
 558:Core/Src/radio/sx126x/radio.c ****     int16_t rssi = 0;
 1544              		.loc 1 558 10 view .LVU307
 1545 003e 0124     		movs	r4, #1
 1546              	.LVL148:
 1547              	.L119:
 583:Core/Src/radio/sx126x/radio.c ****     return status;
 1548              		.loc 1 583 5 is_stmt 1 view .LVU308
 1549 0040 FFF7FEFF 		bl	RadioSleep
 1550              	.LVL149:
 584:Core/Src/radio/sx126x/radio.c **** }
 1551              		.loc 1 584 5 view .LVU309
 585:Core/Src/radio/sx126x/radio.c **** 
 1552              		.loc 1 585 1 is_stmt 0 view .LVU310
 1553 0044 2046     		mov	r0, r4
 1554 0046 F8BD     		pop	{r3, r4, r5, r6, r7, pc}
 585:Core/Src/radio/sx126x/radio.c **** 
 1555              		.loc 1 585 1 view .LVU311
 1556              		.cfi_endproc
 1557              	.LFE140:
 1559              		.section	.text.RadioRandom,"ax",%progbits
 1560              		.align	1
 1561              		.global	RadioRandom
ARM GAS  C:\Users\andywei\AppData\Local\Temp\cccFfT7V.s 			page 51


 1562              		.syntax unified
 1563              		.thumb
 1564              		.thumb_func
 1565              		.fpu fpv4-sp-d16
 1567              	RadioRandom:
 1568              	.LFB141:
 588:Core/Src/radio/sx126x/radio.c ****     uint8_t i;
 1569              		.loc 1 588 1 is_stmt 1 view -0
 1570              		.cfi_startproc
 1571              		@ args = 0, pretend = 0, frame = 0
 1572              		@ frame_needed = 0, uses_anonymous_args = 0
 1573 0000 38B5     		push	{r3, r4, r5, lr}
 1574              	.LCFI20:
 1575              		.cfi_def_cfa_offset 16
 1576              		.cfi_offset 3, -16
 1577              		.cfi_offset 4, -12
 1578              		.cfi_offset 5, -8
 1579              		.cfi_offset 14, -4
 589:Core/Src/radio/sx126x/radio.c ****     uint32_t rnd = 0;
 1580              		.loc 1 589 5 view .LVU313
 590:Core/Src/radio/sx126x/radio.c **** 
 1581              		.loc 1 590 5 view .LVU314
 1582              	.LVL150:
 596:Core/Src/radio/sx126x/radio.c **** 
 1583              		.loc 1 596 5 view .LVU315
 1584 0002 0120     		movs	r0, #1
 1585 0004 FFF7FEFF 		bl	RadioSetModem
 1586              	.LVL151:
 599:Core/Src/radio/sx126x/radio.c **** 
 1587              		.loc 1 599 5 view .LVU316
 1588 0008 0020     		movs	r0, #0
 1589 000a FFF7FEFF 		bl	SX126xSetRx
 1590              	.LVL152:
 601:Core/Src/radio/sx126x/radio.c ****     {
 1591              		.loc 1 601 5 view .LVU317
 590:Core/Src/radio/sx126x/radio.c **** 
 1592              		.loc 1 590 14 is_stmt 0 view .LVU318
 1593 000e 0025     		movs	r5, #0
 601:Core/Src/radio/sx126x/radio.c ****     {
 1594              		.loc 1 601 12 view .LVU319
 1595 0010 2C46     		mov	r4, r5
 601:Core/Src/radio/sx126x/radio.c ****     {
 1596              		.loc 1 601 5 view .LVU320
 1597 0012 0AE0     		b	.L125
 1598              	.LVL153:
 1599              	.L126:
 603:Core/Src/radio/sx126x/radio.c ****         // Unfiltered RSSI value reading. Only takes the LSB value
 1600              		.loc 1 603 9 is_stmt 1 discriminator 3 view .LVU321
 1601 0014 0120     		movs	r0, #1
 1602 0016 FFF7FEFF 		bl	DelayMs
 1603              	.LVL154:
 605:Core/Src/radio/sx126x/radio.c ****     }
 1604              		.loc 1 605 9 discriminator 3 view .LVU322
 605:Core/Src/radio/sx126x/radio.c ****     }
 1605              		.loc 1 605 30 is_stmt 0 discriminator 3 view .LVU323
 1606 001a FFF7FEFF 		bl	SX126xGetRssiInst
 1607              	.LVL155:
ARM GAS  C:\Users\andywei\AppData\Local\Temp\cccFfT7V.s 			page 52


 605:Core/Src/radio/sx126x/radio.c ****     }
 1608              		.loc 1 605 51 discriminator 3 view .LVU324
 1609 001e 00F00100 		and	r0, r0, #1
 605:Core/Src/radio/sx126x/radio.c ****     }
 1610              		.loc 1 605 60 discriminator 3 view .LVU325
 1611 0022 A040     		lsls	r0, r0, r4
 605:Core/Src/radio/sx126x/radio.c ****     }
 1612              		.loc 1 605 13 discriminator 3 view .LVU326
 1613 0024 0543     		orrs	r5, r5, r0
 1614              	.LVL156:
 601:Core/Src/radio/sx126x/radio.c ****     {
 1615              		.loc 1 601 25 is_stmt 1 discriminator 3 view .LVU327
 601:Core/Src/radio/sx126x/radio.c ****     {
 1616              		.loc 1 601 26 is_stmt 0 discriminator 3 view .LVU328
 1617 0026 0134     		adds	r4, r4, #1
 1618              	.LVL157:
 601:Core/Src/radio/sx126x/radio.c ****     {
 1619              		.loc 1 601 26 discriminator 3 view .LVU329
 1620 0028 E4B2     		uxtb	r4, r4
 1621              	.LVL158:
 1622              	.L125:
 601:Core/Src/radio/sx126x/radio.c ****     {
 1623              		.loc 1 601 17 is_stmt 1 discriminator 1 view .LVU330
 601:Core/Src/radio/sx126x/radio.c ****     {
 1624              		.loc 1 601 5 is_stmt 0 discriminator 1 view .LVU331
 1625 002a 1F2C     		cmp	r4, #31
 1626 002c F2D9     		bls	.L126
 608:Core/Src/radio/sx126x/radio.c **** 
 1627              		.loc 1 608 5 is_stmt 1 view .LVU332
 1628 002e FFF7FEFF 		bl	RadioSleep
 1629              	.LVL159:
 610:Core/Src/radio/sx126x/radio.c **** }
 1630              		.loc 1 610 5 view .LVU333
 611:Core/Src/radio/sx126x/radio.c **** 
 1631              		.loc 1 611 1 is_stmt 0 view .LVU334
 1632 0032 2846     		mov	r0, r5
 1633 0034 38BD     		pop	{r3, r4, r5, pc}
 611:Core/Src/radio/sx126x/radio.c **** 
 1634              		.loc 1 611 1 view .LVU335
 1635              		.cfi_endproc
 1636              	.LFE141:
 1638              		.section	.text.RadioSetRxConfig,"ax",%progbits
 1639              		.align	1
 1640              		.global	RadioSetRxConfig
 1641              		.syntax unified
 1642              		.thumb
 1643              		.thumb_func
 1644              		.fpu fpv4-sp-d16
 1646              	RadioSetRxConfig:
 1647              	.LVL160:
 1648              	.LFB142:
 620:Core/Src/radio/sx126x/radio.c **** 
 1649              		.loc 1 620 1 is_stmt 1 view -0
 1650              		.cfi_startproc
 1651              		@ args = 40, pretend = 0, frame = 8
 1652              		@ frame_needed = 0, uses_anonymous_args = 0
 620:Core/Src/radio/sx126x/radio.c **** 
ARM GAS  C:\Users\andywei\AppData\Local\Temp\cccFfT7V.s 			page 53


 1653              		.loc 1 620 1 is_stmt 0 view .LVU337
 1654 0000 2DE9F04F 		push	{r4, r5, r6, r7, r8, r9, r10, fp, lr}
 1655              	.LCFI21:
 1656              		.cfi_def_cfa_offset 36
 1657              		.cfi_offset 4, -36
 1658              		.cfi_offset 5, -32
 1659              		.cfi_offset 6, -28
 1660              		.cfi_offset 7, -24
 1661              		.cfi_offset 8, -20
 1662              		.cfi_offset 9, -16
 1663              		.cfi_offset 10, -12
 1664              		.cfi_offset 11, -8
 1665              		.cfi_offset 14, -4
 1666 0004 83B0     		sub	sp, sp, #12
 1667              	.LCFI22:
 1668              		.cfi_def_cfa_offset 48
 1669 0006 0C46     		mov	r4, r1
 1670 0008 1546     		mov	r5, r2
 1671 000a 1E46     		mov	r6, r3
 1672 000c BDF83480 		ldrh	r8, [sp, #52]
 1673 0010 BDF838A0 		ldrh	r10, [sp, #56]
 1674 0014 9DF83C70 		ldrb	r7, [sp, #60]	@ zero_extendqisi2
 1675 0018 9DF84490 		ldrb	r9, [sp, #68]	@ zero_extendqisi2
 622:Core/Src/radio/sx126x/radio.c **** 
 1676              		.loc 1 622 5 is_stmt 1 view .LVU338
 622:Core/Src/radio/sx126x/radio.c **** 
 1677              		.loc 1 622 18 is_stmt 0 view .LVU339
 1678 001c 9DF85420 		ldrb	r2, [sp, #84]	@ zero_extendqisi2
 1679              	.LVL161:
 622:Core/Src/radio/sx126x/radio.c **** 
 1680              		.loc 1 622 18 view .LVU340
 1681 0020 6F4B     		ldr	r3, .L147
 1682              	.LVL162:
 622:Core/Src/radio/sx126x/radio.c **** 
 1683              		.loc 1 622 18 view .LVU341
 1684 0022 1A70     		strb	r2, [r3]
 624:Core/Src/radio/sx126x/radio.c ****     {
 1685              		.loc 1 624 5 is_stmt 1 view .LVU342
 624:Core/Src/radio/sx126x/radio.c ****     {
 1686              		.loc 1 624 7 is_stmt 0 view .LVU343
 1687 0024 4FB1     		cbz	r7, .L129
 626:Core/Src/radio/sx126x/radio.c ****     }
 1688              		.loc 1 626 9 is_stmt 1 view .LVU344
 626:Core/Src/radio/sx126x/radio.c ****     }
 1689              		.loc 1 626 26 is_stmt 0 view .LVU345
 1690 0026 9DF84020 		ldrb	r2, [sp, #64]	@ zero_extendqisi2
 1691 002a 6E4B     		ldr	r3, .L147+4
 1692 002c 1A70     		strb	r2, [r3]
 1693              	.L130:
 633:Core/Src/radio/sx126x/radio.c ****     {
 1694              		.loc 1 633 5 is_stmt 1 view .LVU346
 1695 002e 40B1     		cbz	r0, .L131
 1696 0030 0128     		cmp	r0, #1
 1697 0032 7AD0     		beq	.L132
 1698              	.LVL163:
 1699              	.L128:
 729:Core/Src/radio/sx126x/radio.c **** 
ARM GAS  C:\Users\andywei\AppData\Local\Temp\cccFfT7V.s 			page 54


 1700              		.loc 1 729 1 is_stmt 0 view .LVU347
 1701 0034 03B0     		add	sp, sp, #12
 1702              	.LCFI23:
 1703              		.cfi_remember_state
 1704              		.cfi_def_cfa_offset 36
 1705              		@ sp needed
 1706 0036 BDE8F08F 		pop	{r4, r5, r6, r7, r8, r9, r10, fp, pc}
 1707              	.LVL164:
 1708              	.L129:
 1709              	.LCFI24:
 1710              		.cfi_restore_state
 630:Core/Src/radio/sx126x/radio.c ****     }
 1711              		.loc 1 630 9 is_stmt 1 view .LVU348
 630:Core/Src/radio/sx126x/radio.c ****     }
 1712              		.loc 1 630 26 is_stmt 0 view .LVU349
 1713 003a 6A4B     		ldr	r3, .L147+4
 1714 003c FF22     		movs	r2, #255
 1715 003e 1A70     		strb	r2, [r3]
 1716 0040 F5E7     		b	.L130
 1717              	.L131:
 1718              	.LBB4:
 636:Core/Src/radio/sx126x/radio.c ****             SX126x.ModulationParams.PacketType = PACKET_TYPE_GFSK;
 1719              		.loc 1 636 13 is_stmt 1 view .LVU350
 1720 0042 0020     		movs	r0, #0
 1721              	.LVL165:
 636:Core/Src/radio/sx126x/radio.c ****             SX126x.ModulationParams.PacketType = PACKET_TYPE_GFSK;
 1722              		.loc 1 636 13 is_stmt 0 view .LVU351
 1723 0044 FFF7FEFF 		bl	SX126xSetStopRxTimerOnPreambleDetect
 1724              	.LVL166:
 637:Core/Src/radio/sx126x/radio.c **** 
 1725              		.loc 1 637 13 is_stmt 1 view .LVU352
 637:Core/Src/radio/sx126x/radio.c **** 
 1726              		.loc 1 637 48 is_stmt 0 view .LVU353
 1727 0048 674E     		ldr	r6, .L147+8
 1728 004a 4FF0000B 		mov	fp, #0
 1729 004e 86F8F8B0 		strb	fp, [r6, #248]
 639:Core/Src/radio/sx126x/radio.c ****             // SX126x.ModulationParams.Params.Gfsk.ModulationShaping = MOD_SHAPING_OFF;
 1730              		.loc 1 639 13 is_stmt 1 view .LVU354
 639:Core/Src/radio/sx126x/radio.c ****             // SX126x.ModulationParams.Params.Gfsk.ModulationShaping = MOD_SHAPING_OFF;
 1731              		.loc 1 639 57 is_stmt 0 view .LVU355
 1732 0052 C6F8FC50 		str	r5, [r6, #252]
 642:Core/Src/radio/sx126x/radio.c ****             SX126x.ModulationParams.Params.Gfsk.Bandwidth = RadioGetFskBandwidthRegValue( bandwidth
 1733              		.loc 1 642 13 is_stmt 1 view .LVU356
 642:Core/Src/radio/sx126x/radio.c ****             SX126x.ModulationParams.Params.Gfsk.Bandwidth = RadioGetFskBandwidthRegValue( bandwidth
 1734              		.loc 1 642 67 is_stmt 0 view .LVU357
 1735 0056 0B23     		movs	r3, #11
 1736 0058 86F80431 		strb	r3, [r6, #260]
 643:Core/Src/radio/sx126x/radio.c **** 
 1737              		.loc 1 643 13 is_stmt 1 view .LVU358
 643:Core/Src/radio/sx126x/radio.c **** 
 1738              		.loc 1 643 61 is_stmt 0 view .LVU359
 1739 005c 2046     		mov	r0, r4
 1740 005e FFF7FEFF 		bl	RadioGetFskBandwidthRegValue
 1741              	.LVL167:
 643:Core/Src/radio/sx126x/radio.c **** 
 1742              		.loc 1 643 59 view .LVU360
 1743 0062 86F80501 		strb	r0, [r6, #261]
ARM GAS  C:\Users\andywei\AppData\Local\Temp\cccFfT7V.s 			page 55


 645:Core/Src/radio/sx126x/radio.c ****             SX126x.PacketParams.Params.Gfsk.PreambleLength = ( preambleLen << 3 ); // convert byte 
 1744              		.loc 1 645 13 is_stmt 1 view .LVU361
 645:Core/Src/radio/sx126x/radio.c ****             SX126x.PacketParams.Params.Gfsk.PreambleLength = ( preambleLen << 3 ); // convert byte 
 1745              		.loc 1 645 44 is_stmt 0 view .LVU362
 1746 0066 86F8D0B0 		strb	fp, [r6, #208]
 646:Core/Src/radio/sx126x/radio.c ****             // SX126x.PacketParams.Params.Gfsk.PreambleMinDetect = RADIO_PREAMBLE_DETECTOR_OFF;//RA
 1747              		.loc 1 646 13 is_stmt 1 view .LVU363
 646:Core/Src/radio/sx126x/radio.c ****             // SX126x.PacketParams.Params.Gfsk.PreambleMinDetect = RADIO_PREAMBLE_DETECTOR_OFF;//RA
 1748              		.loc 1 646 76 is_stmt 0 view .LVU364
 1749 006a 4FEAC808 		lsl	r8, r8, #3
 646:Core/Src/radio/sx126x/radio.c ****             // SX126x.PacketParams.Params.Gfsk.PreambleMinDetect = RADIO_PREAMBLE_DETECTOR_OFF;//RA
 1750              		.loc 1 646 60 view .LVU365
 1751 006e A6F8D280 		strh	r8, [r6, #210]	@ movhi
 648:Core/Src/radio/sx126x/radio.c ****             // SX126x.PacketParams.Params.Gfsk.PreambleMinDetect = RADIO_PREAMBLE_DETECTOR_32_BITS;
 1752              		.loc 1 648 13 is_stmt 1 view .LVU366
 648:Core/Src/radio/sx126x/radio.c ****             // SX126x.PacketParams.Params.Gfsk.PreambleMinDetect = RADIO_PREAMBLE_DETECTOR_32_BITS;
 1753              		.loc 1 648 63 is_stmt 0 view .LVU367
 1754 0072 0423     		movs	r3, #4
 1755 0074 86F8D430 		strb	r3, [r6, #212]
 650:Core/Src/radio/sx126x/radio.c ****             SX126x.PacketParams.Params.Gfsk.AddrComp = RADIO_ADDRESSCOMP_FILT_OFF;
 1756              		.loc 1 650 13 is_stmt 1 view .LVU368
 650:Core/Src/radio/sx126x/radio.c ****             SX126x.PacketParams.Params.Gfsk.AddrComp = RADIO_ADDRESSCOMP_FILT_OFF;
 1757              		.loc 1 650 60 is_stmt 0 view .LVU369
 1758 0078 1823     		movs	r3, #24
 1759 007a 86F8D530 		strb	r3, [r6, #213]
 651:Core/Src/radio/sx126x/radio.c ****             SX126x.PacketParams.Params.Gfsk.HeaderType = ( fixLen == true ) ? RADIO_PACKET_FIXED_LE
 1760              		.loc 1 651 13 is_stmt 1 view .LVU370
 651:Core/Src/radio/sx126x/radio.c ****             SX126x.PacketParams.Params.Gfsk.HeaderType = ( fixLen == true ) ? RADIO_PACKET_FIXED_LE
 1761              		.loc 1 651 54 is_stmt 0 view .LVU371
 1762 007e 86F8D6B0 		strb	fp, [r6, #214]
 652:Core/Src/radio/sx126x/radio.c ****             SX126x.PacketParams.Params.Gfsk.PayloadLength = MaxPayloadLength;
 1763              		.loc 1 652 13 is_stmt 1 view .LVU372
 652:Core/Src/radio/sx126x/radio.c ****             SX126x.PacketParams.Params.Gfsk.PayloadLength = MaxPayloadLength;
 1764              		.loc 1 652 105 is_stmt 0 view .LVU373
 1765 0082 87F00107 		eor	r7, r7, #1
 652:Core/Src/radio/sx126x/radio.c ****             SX126x.PacketParams.Params.Gfsk.PayloadLength = MaxPayloadLength;
 1766              		.loc 1 652 56 view .LVU374
 1767 0086 86F8D770 		strb	r7, [r6, #215]
 653:Core/Src/radio/sx126x/radio.c ****             if( crcOn == true )
 1768              		.loc 1 653 13 is_stmt 1 view .LVU375
 653:Core/Src/radio/sx126x/radio.c ****             if( crcOn == true )
 1769              		.loc 1 653 59 is_stmt 0 view .LVU376
 1770 008a 564B     		ldr	r3, .L147+4
 1771 008c 1B78     		ldrb	r3, [r3]	@ zero_extendqisi2
 1772 008e 86F8D830 		strb	r3, [r6, #216]
 654:Core/Src/radio/sx126x/radio.c ****             {
 1773              		.loc 1 654 13 is_stmt 1 view .LVU377
 654:Core/Src/radio/sx126x/radio.c ****             {
 1774              		.loc 1 654 15 is_stmt 0 view .LVU378
 1775 0092 B9F1000F 		cmp	r9, #0
 1776 0096 43D0     		beq	.L134
 657:Core/Src/radio/sx126x/radio.c ****             }
 1777              		.loc 1 657 17 is_stmt 1 view .LVU379
 657:Core/Src/radio/sx126x/radio.c ****             }
 1778              		.loc 1 657 59 is_stmt 0 view .LVU380
 1779 0098 F122     		movs	r2, #241
 1780 009a 86F8D920 		strb	r2, [r6, #217]
ARM GAS  C:\Users\andywei\AppData\Local\Temp\cccFfT7V.s 			page 56


 1781              	.L135:
 664:Core/Src/radio/sx126x/radio.c **** 
 1782              		.loc 1 664 13 is_stmt 1 view .LVU381
 664:Core/Src/radio/sx126x/radio.c **** 
 1783              		.loc 1 664 52 is_stmt 0 view .LVU382
 1784 009e 524C     		ldr	r4, .L147+8
 1785              	.LVL168:
 664:Core/Src/radio/sx126x/radio.c **** 
 1786              		.loc 1 664 52 view .LVU383
 1787 00a0 0123     		movs	r3, #1
 1788 00a2 84F8DA30 		strb	r3, [r4, #218]
 666:Core/Src/radio/sx126x/radio.c ****             RadioSetModem( ( SX126x.ModulationParams.PacketType == PACKET_TYPE_GFSK ) ? MODEM_FSK :
 1789              		.loc 1 666 13 is_stmt 1 view .LVU384
 1790 00a6 FFF7FEFF 		bl	RadioStandby
 1791              	.LVL169:
 667:Core/Src/radio/sx126x/radio.c ****             SX126xSetModulationParams( &SX126x.ModulationParams );
 1792              		.loc 1 667 13 view .LVU385
 667:Core/Src/radio/sx126x/radio.c ****             SX126xSetModulationParams( &SX126x.ModulationParams );
 1793              		.loc 1 667 53 is_stmt 0 view .LVU386
 1794 00aa 2646     		mov	r6, r4
 1795 00ac 16F8F80F 		ldrb	r0, [r6, #248]!	@ zero_extendqisi2
 667:Core/Src/radio/sx126x/radio.c ****             SX126xSetModulationParams( &SX126x.ModulationParams );
 1796              		.loc 1 667 13 view .LVU387
 1797 00b0 0038     		subs	r0, r0, #0
 1798 00b2 18BF     		it	ne
 1799 00b4 0120     		movne	r0, #1
 1800 00b6 FFF7FEFF 		bl	RadioSetModem
 1801              	.LVL170:
 668:Core/Src/radio/sx126x/radio.c ****             SX126xSetPacketParams( &SX126x.PacketParams );
 1802              		.loc 1 668 13 is_stmt 1 view .LVU388
 1803 00ba 3046     		mov	r0, r6
 1804 00bc FFF7FEFF 		bl	SX126xSetModulationParams
 1805              	.LVL171:
 669:Core/Src/radio/sx126x/radio.c ****             // SX126xSetSyncWord( ( uint8_t[] ){ 0x2D, 0xD4, 0x00, 0x00, 0x00, 0x00, 0x00, 0x00 } )
 1806              		.loc 1 669 13 view .LVU389
 1807 00c0 04F1D000 		add	r0, r4, #208
 1808 00c4 FFF7FEFF 		bl	SX126xSetPacketParams
 1809              	.LVL172:
 671:Core/Src/radio/sx126x/radio.c ****             SX126xSetWhiteningSeed( 0x01FF );
 1810              		.loc 1 671 13 view .LVU390
 671:Core/Src/radio/sx126x/radio.c ****             SX126xSetWhiteningSeed( 0x01FF );
 1811              		.loc 1 671 45 is_stmt 0 view .LVU391
 1812 00c8 484A     		ldr	r2, .L147+12
 1813 00ca 6B46     		mov	r3, sp
 1814 00cc 92E80300 		ldm	r2, {r0, r1}
 1815 00d0 83E80300 		stm	r3, {r0, r1}
 671:Core/Src/radio/sx126x/radio.c ****             SX126xSetWhiteningSeed( 0x01FF );
 1816              		.loc 1 671 13 view .LVU392
 1817 00d4 1846     		mov	r0, r3
 1818 00d6 FFF7FEFF 		bl	SX126xSetSyncWord
 1819              	.LVL173:
 672:Core/Src/radio/sx126x/radio.c **** 
 1820              		.loc 1 672 13 is_stmt 1 view .LVU393
 1821 00da 40F2FF10 		movw	r0, #511
 1822 00de FFF7FEFF 		bl	SX126xSetWhiteningSeed
 1823              	.LVL174:
 674:Core/Src/radio/sx126x/radio.c ****             break;
ARM GAS  C:\Users\andywei\AppData\Local\Temp\cccFfT7V.s 			page 57


 1824              		.loc 1 674 13 view .LVU394
 674:Core/Src/radio/sx126x/radio.c ****             break;
 1825              		.loc 1 674 63 is_stmt 0 view .LVU395
 1826 00e2 2846     		mov	r0, r5
 1827 00e4 FFF7FEFF 		bl	__aeabi_ui2d
 1828              	.LVL175:
 1829 00e8 0246     		mov	r2, r0
 1830 00ea 0B46     		mov	r3, r1
 674:Core/Src/radio/sx126x/radio.c ****             break;
 1831              		.loc 1 674 61 view .LVU396
 1832 00ec 0020     		movs	r0, #0
 1833 00ee 4049     		ldr	r1, .L147+16
 1834 00f0 FFF7FEFF 		bl	__aeabi_ddiv
 1835              	.LVL176:
 674:Core/Src/radio/sx126x/radio.c ****             break;
 1836              		.loc 1 674 84 view .LVU397
 1837 00f4 0022     		movs	r2, #0
 1838 00f6 3F4B     		ldr	r3, .L147+20
 1839 00f8 FFF7FEFF 		bl	__aeabi_dmul
 1840              	.LVL177:
 1841 00fc 0446     		mov	r4, r0
 1842 00fe 0D46     		mov	r5, r1
 1843              	.LVL178:
 674:Core/Src/radio/sx126x/radio.c ****             break;
 1844              		.loc 1 674 51 view .LVU398
 1845 0100 5046     		mov	r0, r10
 1846 0102 FFF7FEFF 		bl	__aeabi_i2d
 1847              	.LVL179:
 1848 0106 2246     		mov	r2, r4
 1849 0108 2B46     		mov	r3, r5
 1850 010a FFF7FEFF 		bl	__aeabi_dmul
 1851              	.LVL180:
 674:Core/Src/radio/sx126x/radio.c ****             break;
 1852              		.loc 1 674 92 view .LVU399
 1853 010e 0022     		movs	r2, #0
 1854 0110 394B     		ldr	r3, .L147+24
 1855 0112 FFF7FEFF 		bl	__aeabi_dmul
 1856              	.LVL181:
 674:Core/Src/radio/sx126x/radio.c ****             break;
 1857              		.loc 1 674 25 view .LVU400
 1858 0116 FFF7FEFF 		bl	__aeabi_d2uiz
 1859              	.LVL182:
 674:Core/Src/radio/sx126x/radio.c ****             break;
 1860              		.loc 1 674 23 view .LVU401
 1861 011a 384B     		ldr	r3, .L147+28
 1862 011c 1860     		str	r0, [r3]
 675:Core/Src/radio/sx126x/radio.c **** 
 1863              		.loc 1 675 13 is_stmt 1 view .LVU402
 1864 011e 89E7     		b	.L128
 1865              	.LVL183:
 1866              	.L134:
 661:Core/Src/radio/sx126x/radio.c ****             }
 1867              		.loc 1 661 17 view .LVU403
 661:Core/Src/radio/sx126x/radio.c ****             }
 1868              		.loc 1 661 59 is_stmt 0 view .LVU404
 1869 0120 314B     		ldr	r3, .L147+8
 1870 0122 0122     		movs	r2, #1
ARM GAS  C:\Users\andywei\AppData\Local\Temp\cccFfT7V.s 			page 58


 1871 0124 83F8D920 		strb	r2, [r3, #217]
 1872 0128 B9E7     		b	.L135
 1873              	.LVL184:
 1874              	.L132:
 678:Core/Src/radio/sx126x/radio.c ****             SX126xSetLoRaSymbNumTimeout( symbTimeout );
 1875              		.loc 1 678 13 is_stmt 1 view .LVU405
 1876 012a 0020     		movs	r0, #0
 1877              	.LVL185:
 678:Core/Src/radio/sx126x/radio.c ****             SX126xSetLoRaSymbNumTimeout( symbTimeout );
 1878              		.loc 1 678 13 is_stmt 0 view .LVU406
 1879 012c FFF7FEFF 		bl	SX126xSetStopRxTimerOnPreambleDetect
 1880              	.LVL186:
 679:Core/Src/radio/sx126x/radio.c ****             SX126x.ModulationParams.PacketType = PACKET_TYPE_LORA;
 1881              		.loc 1 679 13 is_stmt 1 view .LVU407
 1882 0130 5FFA8AF0 		uxtb	r0, r10
 1883 0134 FFF7FEFF 		bl	SX126xSetLoRaSymbNumTimeout
 1884              	.LVL187:
 680:Core/Src/radio/sx126x/radio.c ****             SX126x.ModulationParams.Params.LoRa.SpreadingFactor = ( RadioLoRaSpreadingFactors_t )da
 1885              		.loc 1 680 13 view .LVU408
 680:Core/Src/radio/sx126x/radio.c ****             SX126x.ModulationParams.Params.LoRa.SpreadingFactor = ( RadioLoRaSpreadingFactors_t )da
 1886              		.loc 1 680 48 is_stmt 0 view .LVU409
 1887 0138 2B4A     		ldr	r2, .L147+8
 1888 013a 0123     		movs	r3, #1
 1889 013c 82F8F830 		strb	r3, [r2, #248]
 681:Core/Src/radio/sx126x/radio.c ****             SX126x.ModulationParams.Params.LoRa.Bandwidth = Bandwidths[bandwidth];
 1890              		.loc 1 681 13 is_stmt 1 view .LVU410
 681:Core/Src/radio/sx126x/radio.c ****             SX126x.ModulationParams.Params.LoRa.Bandwidth = Bandwidths[bandwidth];
 1891              		.loc 1 681 67 is_stmt 0 view .LVU411
 1892 0140 EBB2     		uxtb	r3, r5
 681:Core/Src/radio/sx126x/radio.c ****             SX126x.ModulationParams.Params.LoRa.Bandwidth = Bandwidths[bandwidth];
 1893              		.loc 1 681 65 view .LVU412
 1894 0142 82F80831 		strb	r3, [r2, #264]
 682:Core/Src/radio/sx126x/radio.c ****             SX126x.ModulationParams.Params.LoRa.CodingRate = ( RadioLoRaCodingRates_t )coderate;
 1895              		.loc 1 682 13 is_stmt 1 view .LVU413
 682:Core/Src/radio/sx126x/radio.c ****             SX126x.ModulationParams.Params.LoRa.CodingRate = ( RadioLoRaCodingRates_t )coderate;
 1896              		.loc 1 682 71 is_stmt 0 view .LVU414
 1897 0146 2E49     		ldr	r1, .L147+32
 1898 0148 095D     		ldrb	r1, [r1, r4]	@ zero_extendqisi2
 682:Core/Src/radio/sx126x/radio.c ****             SX126x.ModulationParams.Params.LoRa.CodingRate = ( RadioLoRaCodingRates_t )coderate;
 1899              		.loc 1 682 59 view .LVU415
 1900 014a 82F80911 		strb	r1, [r2, #265]
 683:Core/Src/radio/sx126x/radio.c **** 
 1901              		.loc 1 683 13 is_stmt 1 view .LVU416
 683:Core/Src/radio/sx126x/radio.c **** 
 1902              		.loc 1 683 60 is_stmt 0 view .LVU417
 1903 014e 82F80A61 		strb	r6, [r2, #266]
 685:Core/Src/radio/sx126x/radio.c ****             ( ( bandwidth == 1 ) && ( datarate == 12 ) ) )
 1904              		.loc 1 685 13 is_stmt 1 view .LVU418
 685:Core/Src/radio/sx126x/radio.c ****             ( ( bandwidth == 1 ) && ( datarate == 12 ) ) )
 1905              		.loc 1 685 15 is_stmt 0 view .LVU419
 1906 0152 1CB9     		cbnz	r4, .L137
 685:Core/Src/radio/sx126x/radio.c ****             ( ( bandwidth == 1 ) && ( datarate == 12 ) ) )
 1907              		.loc 1 685 62 discriminator 1 view .LVU420
 1908 0154 A5F10B02 		sub	r2, r5, #11
 685:Core/Src/radio/sx126x/radio.c ****             ( ( bandwidth == 1 ) && ( datarate == 12 ) ) )
 1909              		.loc 1 685 38 discriminator 1 view .LVU421
 1910 0158 012A     		cmp	r2, #1
ARM GAS  C:\Users\andywei\AppData\Local\Temp\cccFfT7V.s 			page 59


 1911 015a 2FD9     		bls	.L138
 1912              	.L137:
 685:Core/Src/radio/sx126x/radio.c ****             ( ( bandwidth == 1 ) && ( datarate == 12 ) ) )
 1913              		.loc 1 685 88 discriminator 3 view .LVU422
 1914 015c 012C     		cmp	r4, #1
 1915 015e 2BD0     		beq	.L145
 1916              	.L139:
 692:Core/Src/radio/sx126x/radio.c ****             }
 1917              		.loc 1 692 17 is_stmt 1 view .LVU423
 692:Core/Src/radio/sx126x/radio.c ****             }
 1918              		.loc 1 692 73 is_stmt 0 view .LVU424
 1919 0160 214A     		ldr	r2, .L147+8
 1920 0162 0021     		movs	r1, #0
 1921 0164 82F80B11 		strb	r1, [r2, #267]
 1922              	.L140:
 695:Core/Src/radio/sx126x/radio.c **** 
 1923              		.loc 1 695 13 is_stmt 1 view .LVU425
 695:Core/Src/radio/sx126x/radio.c **** 
 1924              		.loc 1 695 44 is_stmt 0 view .LVU426
 1925 0168 1F4A     		ldr	r2, .L147+8
 1926 016a 0121     		movs	r1, #1
 1927 016c 82F8D010 		strb	r1, [r2, #208]
 697:Core/Src/radio/sx126x/radio.c ****                 ( SX126x.ModulationParams.Params.LoRa.SpreadingFactor == LORA_SF6 ) )
 1928              		.loc 1 697 13 is_stmt 1 view .LVU427
 697:Core/Src/radio/sx126x/radio.c ****                 ( SX126x.ModulationParams.Params.LoRa.SpreadingFactor == LORA_SF6 ) )
 1929              		.loc 1 697 85 is_stmt 0 view .LVU428
 1930 0170 053B     		subs	r3, r3, #5
 1931 0172 DBB2     		uxtb	r3, r3
 697:Core/Src/radio/sx126x/radio.c ****                 ( SX126x.ModulationParams.Params.LoRa.SpreadingFactor == LORA_SF6 ) )
 1932              		.loc 1 697 15 view .LVU429
 1933 0174 8B42     		cmp	r3, r1
 1934 0176 26D9     		bls	.L146
 711:Core/Src/radio/sx126x/radio.c ****             }
 1935              		.loc 1 711 17 is_stmt 1 view .LVU430
 711:Core/Src/radio/sx126x/radio.c ****             }
 1936              		.loc 1 711 64 is_stmt 0 view .LVU431
 1937 0178 1B4B     		ldr	r3, .L147+8
 1938 017a A3F8DC80 		strh	r8, [r3, #220]	@ movhi
 1939              	.L143:
 714:Core/Src/radio/sx126x/radio.c **** 
 1940              		.loc 1 714 13 is_stmt 1 view .LVU432
 714:Core/Src/radio/sx126x/radio.c **** 
 1941              		.loc 1 714 56 is_stmt 0 view .LVU433
 1942 017e 1A4C     		ldr	r4, .L147+8
 1943              	.LVL188:
 714:Core/Src/radio/sx126x/radio.c **** 
 1944              		.loc 1 714 56 view .LVU434
 1945 0180 84F8DE70 		strb	r7, [r4, #222]
 716:Core/Src/radio/sx126x/radio.c ****             SX126x.PacketParams.Params.LoRa.CrcMode = ( RadioLoRaCrcModes_t )crcOn;
 1946              		.loc 1 716 13 is_stmt 1 view .LVU435
 716:Core/Src/radio/sx126x/radio.c ****             SX126x.PacketParams.Params.LoRa.CrcMode = ( RadioLoRaCrcModes_t )crcOn;
 1947              		.loc 1 716 59 is_stmt 0 view .LVU436
 1948 0184 174B     		ldr	r3, .L147+4
 1949 0186 1B78     		ldrb	r3, [r3]	@ zero_extendqisi2
 1950 0188 84F8DF30 		strb	r3, [r4, #223]
 717:Core/Src/radio/sx126x/radio.c ****             SX126x.PacketParams.Params.LoRa.InvertIQ = ( RadioLoRaIQModes_t )iqInverted;
 1951              		.loc 1 717 13 is_stmt 1 view .LVU437
ARM GAS  C:\Users\andywei\AppData\Local\Temp\cccFfT7V.s 			page 60


 717:Core/Src/radio/sx126x/radio.c ****             SX126x.PacketParams.Params.LoRa.InvertIQ = ( RadioLoRaIQModes_t )iqInverted;
 1952              		.loc 1 717 53 is_stmt 0 view .LVU438
 1953 018c 84F8E090 		strb	r9, [r4, #224]
 718:Core/Src/radio/sx126x/radio.c **** 
 1954              		.loc 1 718 13 is_stmt 1 view .LVU439
 718:Core/Src/radio/sx126x/radio.c **** 
 1955              		.loc 1 718 54 is_stmt 0 view .LVU440
 1956 0190 9DF85030 		ldrb	r3, [sp, #80]	@ zero_extendqisi2
 1957 0194 84F8E130 		strb	r3, [r4, #225]
 720:Core/Src/radio/sx126x/radio.c ****             SX126xSetModulationParams( &SX126x.ModulationParams );
 1958              		.loc 1 720 13 is_stmt 1 view .LVU441
 1959 0198 0120     		movs	r0, #1
 1960 019a FFF7FEFF 		bl	RadioSetModem
 1961              	.LVL189:
 721:Core/Src/radio/sx126x/radio.c ****             SX126xSetPacketParams( &SX126x.PacketParams );
 1962              		.loc 1 721 13 view .LVU442
 1963 019e 04F1F800 		add	r0, r4, #248
 1964 01a2 FFF7FEFF 		bl	SX126xSetModulationParams
 1965              	.LVL190:
 722:Core/Src/radio/sx126x/radio.c **** 
 1966              		.loc 1 722 13 view .LVU443
 1967 01a6 04F1D000 		add	r0, r4, #208
 1968 01aa FFF7FEFF 		bl	SX126xSetPacketParams
 1969              	.LVL191:
 725:Core/Src/radio/sx126x/radio.c **** 
 1970              		.loc 1 725 13 view .LVU444
 725:Core/Src/radio/sx126x/radio.c **** 
 1971              		.loc 1 725 23 is_stmt 0 view .LVU445
 1972 01ae 134B     		ldr	r3, .L147+28
 1973 01b0 4FF6FF72 		movw	r2, #65535
 1974 01b4 1A60     		str	r2, [r3]
 727:Core/Src/radio/sx126x/radio.c ****     }
 1975              		.loc 1 727 13 is_stmt 1 view .LVU446
 1976              	.LBE4:
 729:Core/Src/radio/sx126x/radio.c **** 
 1977              		.loc 1 729 1 is_stmt 0 view .LVU447
 1978 01b6 3DE7     		b	.L128
 1979              	.LVL192:
 1980              	.L145:
 1981              	.LBB5:
 686:Core/Src/radio/sx126x/radio.c ****             {
 1982              		.loc 1 686 34 view .LVU448
 1983 01b8 0C2D     		cmp	r5, #12
 1984 01ba D1D1     		bne	.L139
 1985              	.L138:
 688:Core/Src/radio/sx126x/radio.c ****             }
 1986              		.loc 1 688 17 is_stmt 1 view .LVU449
 688:Core/Src/radio/sx126x/radio.c ****             }
 1987              		.loc 1 688 73 is_stmt 0 view .LVU450
 1988 01bc 0A4A     		ldr	r2, .L147+8
 1989 01be 0121     		movs	r1, #1
 1990 01c0 82F80B11 		strb	r1, [r2, #267]
 1991 01c4 D0E7     		b	.L140
 1992              	.L146:
 700:Core/Src/radio/sx126x/radio.c ****                 {
 1993              		.loc 1 700 17 is_stmt 1 view .LVU451
 700:Core/Src/radio/sx126x/radio.c ****                 {
ARM GAS  C:\Users\andywei\AppData\Local\Temp\cccFfT7V.s 			page 61


 1994              		.loc 1 700 19 is_stmt 0 view .LVU452
 1995 01c6 B8F10B0F 		cmp	r8, #11
 1996 01ca 04D8     		bhi	.L142
 702:Core/Src/radio/sx126x/radio.c ****                 }
 1997              		.loc 1 702 21 is_stmt 1 view .LVU453
 702:Core/Src/radio/sx126x/radio.c ****                 }
 1998              		.loc 1 702 68 is_stmt 0 view .LVU454
 1999 01cc 1346     		mov	r3, r2
 2000 01ce 0C22     		movs	r2, #12
 2001 01d0 A3F8DC20 		strh	r2, [r3, #220]	@ movhi
 2002 01d4 D3E7     		b	.L143
 2003              	.L142:
 706:Core/Src/radio/sx126x/radio.c ****                 }
 2004              		.loc 1 706 21 is_stmt 1 view .LVU455
 706:Core/Src/radio/sx126x/radio.c ****                 }
 2005              		.loc 1 706 68 is_stmt 0 view .LVU456
 2006 01d6 044B     		ldr	r3, .L147+8
 2007 01d8 A3F8DC80 		strh	r8, [r3, #220]	@ movhi
 2008 01dc CFE7     		b	.L143
 2009              	.L148:
 2010 01de 00BF     		.align	2
 2011              	.L147:
 2012 01e0 00000000 		.word	.LANCHOR9
 2013 01e4 00000000 		.word	.LANCHOR5
 2014 01e8 00000000 		.word	.LANCHOR6
 2015 01ec 00000000 		.word	.LANCHOR12
 2016 01f0 0000F03F 		.word	1072693248
 2017 01f4 00002040 		.word	1075838976
 2018 01f8 00408F40 		.word	1083129856
 2019 01fc 00000000 		.word	.LANCHOR10
 2020 0200 00000000 		.word	.LANCHOR13
 2021              	.LBE5:
 2022              		.cfi_endproc
 2023              	.LFE142:
 2025              		.section	.text.RadioSetTxConfig,"ax",%progbits
 2026              		.align	1
 2027              		.global	RadioSetTxConfig
 2028              		.syntax unified
 2029              		.thumb
 2030              		.thumb_func
 2031              		.fpu fpv4-sp-d16
 2033              	RadioSetTxConfig:
 2034              	.LVL193:
 2035              	.LFB143:
 736:Core/Src/radio/sx126x/radio.c **** 
 2036              		.loc 1 736 1 is_stmt 1 view -0
 2037              		.cfi_startproc
 2038              		@ args = 36, pretend = 0, frame = 8
 2039              		@ frame_needed = 0, uses_anonymous_args = 0
 736:Core/Src/radio/sx126x/radio.c **** 
 2040              		.loc 1 736 1 is_stmt 0 view .LVU458
 2041 0000 2DE9F047 		push	{r4, r5, r6, r7, r8, r9, r10, lr}
 2042              	.LCFI25:
 2043              		.cfi_def_cfa_offset 32
 2044              		.cfi_offset 4, -32
 2045              		.cfi_offset 5, -28
 2046              		.cfi_offset 6, -24
ARM GAS  C:\Users\andywei\AppData\Local\Temp\cccFfT7V.s 			page 62


 2047              		.cfi_offset 7, -20
 2048              		.cfi_offset 8, -16
 2049              		.cfi_offset 9, -12
 2050              		.cfi_offset 10, -8
 2051              		.cfi_offset 14, -4
 2052 0004 82B0     		sub	sp, sp, #8
 2053              	.LCFI26:
 2054              		.cfi_def_cfa_offset 40
 2055 0006 0C46     		mov	r4, r1
 2056 0008 BDF83070 		ldrh	r7, [sp, #48]
 2057 000c 9DF83480 		ldrb	r8, [sp, #52]	@ zero_extendqisi2
 2058 0010 9DF83890 		ldrb	r9, [sp, #56]	@ zero_extendqisi2
 738:Core/Src/radio/sx126x/radio.c ****     {
 2059              		.loc 1 738 5 is_stmt 1 view .LVU459
 2060 0014 50B1     		cbz	r0, .L150
 2061 0016 0128     		cmp	r0, #1
 2062 0018 5AD0     		beq	.L151
 2063              	.LVL194:
 2064              	.L152:
 823:Core/Src/radio/sx126x/radio.c ****     TxTimeout = timeout;
 2065              		.loc 1 823 5 view .LVU460
 2066 001a 2046     		mov	r0, r4
 2067 001c FFF7FEFF 		bl	SX126xSetRfTxPower
 2068              	.LVL195:
 824:Core/Src/radio/sx126x/radio.c **** }
 2069              		.loc 1 824 5 view .LVU461
 824:Core/Src/radio/sx126x/radio.c **** }
 2070              		.loc 1 824 15 is_stmt 0 view .LVU462
 2071 0020 129A     		ldr	r2, [sp, #72]
 2072 0022 574B     		ldr	r3, .L166
 2073 0024 1A60     		str	r2, [r3]
 825:Core/Src/radio/sx126x/radio.c **** 
 2074              		.loc 1 825 1 view .LVU463
 2075 0026 02B0     		add	sp, sp, #8
 2076              	.LCFI27:
 2077              		.cfi_remember_state
 2078              		.cfi_def_cfa_offset 32
 2079              		@ sp needed
 2080 0028 BDE8F087 		pop	{r4, r5, r6, r7, r8, r9, r10, pc}
 2081              	.LVL196:
 2082              	.L150:
 2083              	.LCFI28:
 2084              		.cfi_restore_state
 825:Core/Src/radio/sx126x/radio.c **** 
 2085              		.loc 1 825 1 view .LVU464
 2086 002c 1646     		mov	r6, r2
 2087              	.LBB6:
 741:Core/Src/radio/sx126x/radio.c ****             SX126x.ModulationParams.Params.Gfsk.BitRate = datarate;
 2088              		.loc 1 741 13 is_stmt 1 view .LVU465
 741:Core/Src/radio/sx126x/radio.c ****             SX126x.ModulationParams.Params.Gfsk.BitRate = datarate;
 2089              		.loc 1 741 48 is_stmt 0 view .LVU466
 2090 002e 554D     		ldr	r5, .L166+4
 2091 0030 4FF0000A 		mov	r10, #0
 2092 0034 85F8F8A0 		strb	r10, [r5, #248]
 742:Core/Src/radio/sx126x/radio.c **** 
 2093              		.loc 1 742 13 is_stmt 1 view .LVU467
 742:Core/Src/radio/sx126x/radio.c **** 
ARM GAS  C:\Users\andywei\AppData\Local\Temp\cccFfT7V.s 			page 63


 2094              		.loc 1 742 57 is_stmt 0 view .LVU468
 2095 0038 0A9A     		ldr	r2, [sp, #40]
 2096              	.LVL197:
 742:Core/Src/radio/sx126x/radio.c **** 
 2097              		.loc 1 742 57 view .LVU469
 2098 003a C5F8FC20 		str	r2, [r5, #252]
 744:Core/Src/radio/sx126x/radio.c ****             // SX126x.ModulationParams.Params.Gfsk.ModulationShaping = MOD_SHAPING_G_BT_05;
 2099              		.loc 1 744 13 is_stmt 1 view .LVU470
 744:Core/Src/radio/sx126x/radio.c ****             // SX126x.ModulationParams.Params.Gfsk.ModulationShaping = MOD_SHAPING_G_BT_05;
 2100              		.loc 1 744 67 is_stmt 0 view .LVU471
 2101 003e 0B22     		movs	r2, #11
 2102 0040 85F80421 		strb	r2, [r5, #260]
 746:Core/Src/radio/sx126x/radio.c ****             SX126x.ModulationParams.Params.Gfsk.Fdev = fdev;
 2103              		.loc 1 746 13 is_stmt 1 view .LVU472
 746:Core/Src/radio/sx126x/radio.c ****             SX126x.ModulationParams.Params.Gfsk.Fdev = fdev;
 2104              		.loc 1 746 61 is_stmt 0 view .LVU473
 2105 0044 1846     		mov	r0, r3
 2106              	.LVL198:
 746:Core/Src/radio/sx126x/radio.c ****             SX126x.ModulationParams.Params.Gfsk.Fdev = fdev;
 2107              		.loc 1 746 61 view .LVU474
 2108 0046 FFF7FEFF 		bl	RadioGetFskBandwidthRegValue
 2109              	.LVL199:
 746:Core/Src/radio/sx126x/radio.c ****             SX126x.ModulationParams.Params.Gfsk.Fdev = fdev;
 2110              		.loc 1 746 59 view .LVU475
 2111 004a 85F80501 		strb	r0, [r5, #261]
 747:Core/Src/radio/sx126x/radio.c **** 
 2112              		.loc 1 747 13 is_stmt 1 view .LVU476
 747:Core/Src/radio/sx126x/radio.c **** 
 2113              		.loc 1 747 54 is_stmt 0 view .LVU477
 2114 004e C5F80061 		str	r6, [r5, #256]
 749:Core/Src/radio/sx126x/radio.c ****             SX126x.PacketParams.Params.Gfsk.PreambleLength = ( preambleLen << 3 ); // convert byte 
 2115              		.loc 1 749 13 is_stmt 1 view .LVU478
 749:Core/Src/radio/sx126x/radio.c ****             SX126x.PacketParams.Params.Gfsk.PreambleLength = ( preambleLen << 3 ); // convert byte 
 2116              		.loc 1 749 44 is_stmt 0 view .LVU479
 2117 0052 85F8D0A0 		strb	r10, [r5, #208]
 750:Core/Src/radio/sx126x/radio.c ****             SX126x.PacketParams.Params.Gfsk.PreambleMinDetect = RADIO_PREAMBLE_DETECTOR_08_BITS;
 2118              		.loc 1 750 13 is_stmt 1 view .LVU480
 750:Core/Src/radio/sx126x/radio.c ****             SX126x.PacketParams.Params.Gfsk.PreambleMinDetect = RADIO_PREAMBLE_DETECTOR_08_BITS;
 2119              		.loc 1 750 76 is_stmt 0 view .LVU481
 2120 0056 FF00     		lsls	r7, r7, #3
 750:Core/Src/radio/sx126x/radio.c ****             SX126x.PacketParams.Params.Gfsk.PreambleMinDetect = RADIO_PREAMBLE_DETECTOR_08_BITS;
 2121              		.loc 1 750 60 view .LVU482
 2122 0058 A5F8D270 		strh	r7, [r5, #210]	@ movhi
 751:Core/Src/radio/sx126x/radio.c ****             SX126x.PacketParams.Params.Gfsk.SyncWordLength = 2 << 3 ; // convert byte into bit
 2123              		.loc 1 751 13 is_stmt 1 view .LVU483
 751:Core/Src/radio/sx126x/radio.c ****             SX126x.PacketParams.Params.Gfsk.SyncWordLength = 2 << 3 ; // convert byte into bit
 2124              		.loc 1 751 63 is_stmt 0 view .LVU484
 2125 005c 0423     		movs	r3, #4
 2126 005e 85F8D430 		strb	r3, [r5, #212]
 752:Core/Src/radio/sx126x/radio.c ****             SX126x.PacketParams.Params.Gfsk.AddrComp = RADIO_ADDRESSCOMP_FILT_OFF;
 2127              		.loc 1 752 13 is_stmt 1 view .LVU485
 752:Core/Src/radio/sx126x/radio.c ****             SX126x.PacketParams.Params.Gfsk.AddrComp = RADIO_ADDRESSCOMP_FILT_OFF;
 2128              		.loc 1 752 60 is_stmt 0 view .LVU486
 2129 0062 1023     		movs	r3, #16
 2130 0064 85F8D530 		strb	r3, [r5, #213]
 753:Core/Src/radio/sx126x/radio.c ****             SX126x.PacketParams.Params.Gfsk.HeaderType = ( fixLen == true ) ? RADIO_PACKET_FIXED_LE
 2131              		.loc 1 753 13 is_stmt 1 view .LVU487
ARM GAS  C:\Users\andywei\AppData\Local\Temp\cccFfT7V.s 			page 64


 753:Core/Src/radio/sx126x/radio.c ****             SX126x.PacketParams.Params.Gfsk.HeaderType = ( fixLen == true ) ? RADIO_PACKET_FIXED_LE
 2132              		.loc 1 753 54 is_stmt 0 view .LVU488
 2133 0068 85F8D6A0 		strb	r10, [r5, #214]
 754:Core/Src/radio/sx126x/radio.c **** 
 2134              		.loc 1 754 13 is_stmt 1 view .LVU489
 754:Core/Src/radio/sx126x/radio.c **** 
 2135              		.loc 1 754 105 is_stmt 0 view .LVU490
 2136 006c 88F00108 		eor	r8, r8, #1
 754:Core/Src/radio/sx126x/radio.c **** 
 2137              		.loc 1 754 56 view .LVU491
 2138 0070 85F8D780 		strb	r8, [r5, #215]
 756:Core/Src/radio/sx126x/radio.c ****             {
 2139              		.loc 1 756 13 is_stmt 1 view .LVU492
 756:Core/Src/radio/sx126x/radio.c ****             {
 2140              		.loc 1 756 15 is_stmt 0 view .LVU493
 2141 0074 B9F1000F 		cmp	r9, #0
 2142 0078 25D0     		beq	.L153
 759:Core/Src/radio/sx126x/radio.c ****             }
 2143              		.loc 1 759 17 is_stmt 1 view .LVU494
 759:Core/Src/radio/sx126x/radio.c ****             }
 2144              		.loc 1 759 59 is_stmt 0 view .LVU495
 2145 007a F122     		movs	r2, #241
 2146 007c 85F8D920 		strb	r2, [r5, #217]
 2147              	.L154:
 765:Core/Src/radio/sx126x/radio.c ****             // SX126x.PacketParams.Params.Gfsk.DcFree = RADIO_DC_FREEWHITENING;
 2148              		.loc 1 765 13 is_stmt 1 view .LVU496
 765:Core/Src/radio/sx126x/radio.c ****             // SX126x.PacketParams.Params.Gfsk.DcFree = RADIO_DC_FREEWHITENING;
 2149              		.loc 1 765 52 is_stmt 0 view .LVU497
 2150 0080 404D     		ldr	r5, .L166+4
 2151 0082 0023     		movs	r3, #0
 2152 0084 85F8DA30 		strb	r3, [r5, #218]
 768:Core/Src/radio/sx126x/radio.c ****             RadioSetModem( ( SX126x.ModulationParams.PacketType == PACKET_TYPE_GFSK ) ? MODEM_FSK :
 2153              		.loc 1 768 13 is_stmt 1 view .LVU498
 2154 0088 FFF7FEFF 		bl	RadioStandby
 2155              	.LVL200:
 769:Core/Src/radio/sx126x/radio.c ****             SX126xSetModulationParams( &SX126x.ModulationParams );
 2156              		.loc 1 769 13 view .LVU499
 769:Core/Src/radio/sx126x/radio.c ****             SX126xSetModulationParams( &SX126x.ModulationParams );
 2157              		.loc 1 769 53 is_stmt 0 view .LVU500
 2158 008c 2E46     		mov	r6, r5
 2159              	.LVL201:
 769:Core/Src/radio/sx126x/radio.c ****             SX126xSetModulationParams( &SX126x.ModulationParams );
 2160              		.loc 1 769 53 view .LVU501
 2161 008e 16F8F80F 		ldrb	r0, [r6, #248]!	@ zero_extendqisi2
 769:Core/Src/radio/sx126x/radio.c ****             SX126xSetModulationParams( &SX126x.ModulationParams );
 2162              		.loc 1 769 13 view .LVU502
 2163 0092 0038     		subs	r0, r0, #0
 2164 0094 18BF     		it	ne
 2165 0096 0120     		movne	r0, #1
 2166 0098 FFF7FEFF 		bl	RadioSetModem
 2167              	.LVL202:
 770:Core/Src/radio/sx126x/radio.c ****             SX126xSetPacketParams( &SX126x.PacketParams );
 2168              		.loc 1 770 13 is_stmt 1 view .LVU503
 2169 009c 3046     		mov	r0, r6
 2170 009e FFF7FEFF 		bl	SX126xSetModulationParams
 2171              	.LVL203:
 771:Core/Src/radio/sx126x/radio.c ****             SX126xSetSyncWord( ( uint8_t[] ){ 0x2D, 0xD4, 0xC1, 0x00, 0x00, 0x00, 0x00, 0x00 } );
ARM GAS  C:\Users\andywei\AppData\Local\Temp\cccFfT7V.s 			page 65


 2172              		.loc 1 771 13 view .LVU504
 2173 00a2 05F1D000 		add	r0, r5, #208
 2174 00a6 FFF7FEFF 		bl	SX126xSetPacketParams
 2175              	.LVL204:
 772:Core/Src/radio/sx126x/radio.c ****             SX126xSetWhiteningSeed( 0x01FF );
 2176              		.loc 1 772 13 view .LVU505
 772:Core/Src/radio/sx126x/radio.c ****             SX126xSetWhiteningSeed( 0x01FF );
 2177              		.loc 1 772 45 is_stmt 0 view .LVU506
 2178 00aa 6B46     		mov	r3, sp
 2179 00ac 364A     		ldr	r2, .L166+8
 2180 00ae 92E80300 		ldm	r2, {r0, r1}
 2181 00b2 83E80300 		stm	r3, {r0, r1}
 772:Core/Src/radio/sx126x/radio.c ****             SX126xSetWhiteningSeed( 0x01FF );
 2182              		.loc 1 772 13 view .LVU507
 2183 00b6 1846     		mov	r0, r3
 2184 00b8 FFF7FEFF 		bl	SX126xSetSyncWord
 2185              	.LVL205:
 773:Core/Src/radio/sx126x/radio.c ****             // SX126xSetWhiteningSeed( 0x0000 );
 2186              		.loc 1 773 13 is_stmt 1 view .LVU508
 2187 00bc 40F2FF10 		movw	r0, #511
 2188 00c0 FFF7FEFF 		bl	SX126xSetWhiteningSeed
 2189              	.LVL206:
 775:Core/Src/radio/sx126x/radio.c **** 
 2190              		.loc 1 775 13 view .LVU509
 2191 00c4 A9E7     		b	.L152
 2192              	.LVL207:
 2193              	.L153:
 763:Core/Src/radio/sx126x/radio.c ****             }
 2194              		.loc 1 763 17 view .LVU510
 763:Core/Src/radio/sx126x/radio.c ****             }
 2195              		.loc 1 763 59 is_stmt 0 view .LVU511
 2196 00c6 2F4B     		ldr	r3, .L166+4
 2197 00c8 0122     		movs	r2, #1
 2198 00ca 83F8D920 		strb	r2, [r3, #217]
 2199 00ce D7E7     		b	.L154
 2200              	.LVL208:
 2201              	.L151:
 778:Core/Src/radio/sx126x/radio.c ****             SX126x.ModulationParams.Params.LoRa.SpreadingFactor = ( RadioLoRaSpreadingFactors_t ) d
 2202              		.loc 1 778 13 is_stmt 1 view .LVU512
 778:Core/Src/radio/sx126x/radio.c ****             SX126x.ModulationParams.Params.LoRa.SpreadingFactor = ( RadioLoRaSpreadingFactors_t ) d
 2203              		.loc 1 778 48 is_stmt 0 view .LVU513
 2204 00d0 2C49     		ldr	r1, .L166+4
 2205              	.LVL209:
 778:Core/Src/radio/sx126x/radio.c ****             SX126x.ModulationParams.Params.LoRa.SpreadingFactor = ( RadioLoRaSpreadingFactors_t ) d
 2206              		.loc 1 778 48 view .LVU514
 2207 00d2 0122     		movs	r2, #1
 2208              	.LVL210:
 778:Core/Src/radio/sx126x/radio.c ****             SX126x.ModulationParams.Params.LoRa.SpreadingFactor = ( RadioLoRaSpreadingFactors_t ) d
 2209              		.loc 1 778 48 view .LVU515
 2210 00d4 81F8F820 		strb	r2, [r1, #248]
 779:Core/Src/radio/sx126x/radio.c ****             SX126x.ModulationParams.Params.LoRa.Bandwidth =  Bandwidths[bandwidth];
 2211              		.loc 1 779 13 is_stmt 1 view .LVU516
 779:Core/Src/radio/sx126x/radio.c ****             SX126x.ModulationParams.Params.LoRa.Bandwidth =  Bandwidths[bandwidth];
 2212              		.loc 1 779 67 is_stmt 0 view .LVU517
 2213 00d8 0A9A     		ldr	r2, [sp, #40]
 2214 00da D2B2     		uxtb	r2, r2
 779:Core/Src/radio/sx126x/radio.c ****             SX126x.ModulationParams.Params.LoRa.Bandwidth =  Bandwidths[bandwidth];
ARM GAS  C:\Users\andywei\AppData\Local\Temp\cccFfT7V.s 			page 66


 2215              		.loc 1 779 65 view .LVU518
 2216 00dc 81F80821 		strb	r2, [r1, #264]
 780:Core/Src/radio/sx126x/radio.c ****             SX126x.ModulationParams.Params.LoRa.CodingRate= ( RadioLoRaCodingRates_t )coderate;
 2217              		.loc 1 780 13 is_stmt 1 view .LVU519
 780:Core/Src/radio/sx126x/radio.c ****             SX126x.ModulationParams.Params.LoRa.CodingRate= ( RadioLoRaCodingRates_t )coderate;
 2218              		.loc 1 780 72 is_stmt 0 view .LVU520
 2219 00e0 2A48     		ldr	r0, .L166+12
 2220              	.LVL211:
 780:Core/Src/radio/sx126x/radio.c ****             SX126x.ModulationParams.Params.LoRa.CodingRate= ( RadioLoRaCodingRates_t )coderate;
 2221              		.loc 1 780 72 view .LVU521
 2222 00e2 C05C     		ldrb	r0, [r0, r3]	@ zero_extendqisi2
 780:Core/Src/radio/sx126x/radio.c ****             SX126x.ModulationParams.Params.LoRa.CodingRate= ( RadioLoRaCodingRates_t )coderate;
 2223              		.loc 1 780 59 view .LVU522
 2224 00e4 81F80901 		strb	r0, [r1, #265]
 781:Core/Src/radio/sx126x/radio.c **** 
 2225              		.loc 1 781 13 is_stmt 1 view .LVU523
 781:Core/Src/radio/sx126x/radio.c **** 
 2226              		.loc 1 781 59 is_stmt 0 view .LVU524
 2227 00e8 9DF82C00 		ldrb	r0, [sp, #44]	@ zero_extendqisi2
 2228 00ec 81F80A01 		strb	r0, [r1, #266]
 783:Core/Src/radio/sx126x/radio.c ****             ( ( bandwidth == 1 ) && ( datarate == 12 ) ) )
 2229              		.loc 1 783 13 is_stmt 1 view .LVU525
 783:Core/Src/radio/sx126x/radio.c ****             ( ( bandwidth == 1 ) && ( datarate == 12 ) ) )
 2230              		.loc 1 783 15 is_stmt 0 view .LVU526
 2231 00f0 1BB9     		cbnz	r3, .L156
 783:Core/Src/radio/sx126x/radio.c ****             ( ( bandwidth == 1 ) && ( datarate == 12 ) ) )
 2232              		.loc 1 783 62 discriminator 1 view .LVU527
 2233 00f2 0A99     		ldr	r1, [sp, #40]
 2234 00f4 0B39     		subs	r1, r1, #11
 783:Core/Src/radio/sx126x/radio.c ****             ( ( bandwidth == 1 ) && ( datarate == 12 ) ) )
 2235              		.loc 1 783 38 discriminator 1 view .LVU528
 2236 00f6 0129     		cmp	r1, #1
 2237 00f8 32D9     		bls	.L157
 2238              	.L156:
 783:Core/Src/radio/sx126x/radio.c ****             ( ( bandwidth == 1 ) && ( datarate == 12 ) ) )
 2239              		.loc 1 783 88 discriminator 3 view .LVU529
 2240 00fa 012B     		cmp	r3, #1
 2241 00fc 2DD0     		beq	.L164
 2242              	.LVL212:
 2243              	.L158:
 790:Core/Src/radio/sx126x/radio.c ****             }
 2244              		.loc 1 790 17 is_stmt 1 view .LVU530
 790:Core/Src/radio/sx126x/radio.c ****             }
 2245              		.loc 1 790 73 is_stmt 0 view .LVU531
 2246 00fe 214B     		ldr	r3, .L166+4
 2247 0100 0021     		movs	r1, #0
 2248 0102 83F80B11 		strb	r1, [r3, #267]
 2249              	.L159:
 793:Core/Src/radio/sx126x/radio.c **** 
 2250              		.loc 1 793 13 is_stmt 1 view .LVU532
 793:Core/Src/radio/sx126x/radio.c **** 
 2251              		.loc 1 793 44 is_stmt 0 view .LVU533
 2252 0106 1F4B     		ldr	r3, .L166+4
 2253 0108 0121     		movs	r1, #1
 2254 010a 83F8D010 		strb	r1, [r3, #208]
 795:Core/Src/radio/sx126x/radio.c ****                 ( SX126x.ModulationParams.Params.LoRa.SpreadingFactor == LORA_SF6 ) )
 2255              		.loc 1 795 13 is_stmt 1 view .LVU534
ARM GAS  C:\Users\andywei\AppData\Local\Temp\cccFfT7V.s 			page 67


 795:Core/Src/radio/sx126x/radio.c ****                 ( SX126x.ModulationParams.Params.LoRa.SpreadingFactor == LORA_SF6 ) )
 2256              		.loc 1 795 85 is_stmt 0 view .LVU535
 2257 010e 053A     		subs	r2, r2, #5
 2258 0110 D2B2     		uxtb	r2, r2
 795:Core/Src/radio/sx126x/radio.c ****                 ( SX126x.ModulationParams.Params.LoRa.SpreadingFactor == LORA_SF6 ) )
 2259              		.loc 1 795 15 view .LVU536
 2260 0112 8A42     		cmp	r2, r1
 2261 0114 29D9     		bls	.L165
 809:Core/Src/radio/sx126x/radio.c ****             }
 2262              		.loc 1 809 17 is_stmt 1 view .LVU537
 809:Core/Src/radio/sx126x/radio.c ****             }
 2263              		.loc 1 809 64 is_stmt 0 view .LVU538
 2264 0116 1B4B     		ldr	r3, .L166+4
 2265 0118 A3F8DC70 		strh	r7, [r3, #220]	@ movhi
 2266              	.L162:
 812:Core/Src/radio/sx126x/radio.c ****             SX126x.PacketParams.Params.LoRa.PayloadLength = MaxPayloadLength;
 2267              		.loc 1 812 13 is_stmt 1 view .LVU539
 812:Core/Src/radio/sx126x/radio.c ****             SX126x.PacketParams.Params.LoRa.PayloadLength = MaxPayloadLength;
 2268              		.loc 1 812 56 is_stmt 0 view .LVU540
 2269 011c 194D     		ldr	r5, .L166+4
 2270 011e 85F8DE80 		strb	r8, [r5, #222]
 813:Core/Src/radio/sx126x/radio.c ****             SX126x.PacketParams.Params.LoRa.CrcMode = ( RadioLoRaCrcModes_t )crcOn;
 2271              		.loc 1 813 13 is_stmt 1 view .LVU541
 813:Core/Src/radio/sx126x/radio.c ****             SX126x.PacketParams.Params.LoRa.CrcMode = ( RadioLoRaCrcModes_t )crcOn;
 2272              		.loc 1 813 59 is_stmt 0 view .LVU542
 2273 0122 1B4B     		ldr	r3, .L166+16
 2274 0124 1B78     		ldrb	r3, [r3]	@ zero_extendqisi2
 2275 0126 85F8DF30 		strb	r3, [r5, #223]
 814:Core/Src/radio/sx126x/radio.c ****             SX126x.PacketParams.Params.LoRa.InvertIQ = ( RadioLoRaIQModes_t )iqInverted;
 2276              		.loc 1 814 13 is_stmt 1 view .LVU543
 814:Core/Src/radio/sx126x/radio.c ****             SX126x.PacketParams.Params.LoRa.InvertIQ = ( RadioLoRaIQModes_t )iqInverted;
 2277              		.loc 1 814 53 is_stmt 0 view .LVU544
 2278 012a 85F8E090 		strb	r9, [r5, #224]
 815:Core/Src/radio/sx126x/radio.c **** 
 2279              		.loc 1 815 13 is_stmt 1 view .LVU545
 815:Core/Src/radio/sx126x/radio.c **** 
 2280              		.loc 1 815 54 is_stmt 0 view .LVU546
 2281 012e 9DF84430 		ldrb	r3, [sp, #68]	@ zero_extendqisi2
 2282 0132 85F8E130 		strb	r3, [r5, #225]
 817:Core/Src/radio/sx126x/radio.c ****             RadioSetModem( ( SX126x.ModulationParams.PacketType == PACKET_TYPE_GFSK ) ? MODEM_FSK :
 2283              		.loc 1 817 13 is_stmt 1 view .LVU547
 2284 0136 FFF7FEFF 		bl	RadioStandby
 2285              	.LVL213:
 818:Core/Src/radio/sx126x/radio.c ****             SX126xSetModulationParams( &SX126x.ModulationParams );
 2286              		.loc 1 818 13 view .LVU548
 818:Core/Src/radio/sx126x/radio.c ****             SX126xSetModulationParams( &SX126x.ModulationParams );
 2287              		.loc 1 818 53 is_stmt 0 view .LVU549
 2288 013a 2E46     		mov	r6, r5
 2289 013c 16F8F80F 		ldrb	r0, [r6, #248]!	@ zero_extendqisi2
 818:Core/Src/radio/sx126x/radio.c ****             SX126xSetModulationParams( &SX126x.ModulationParams );
 2290              		.loc 1 818 13 view .LVU550
 2291 0140 0038     		subs	r0, r0, #0
 2292 0142 18BF     		it	ne
 2293 0144 0120     		movne	r0, #1
 2294 0146 FFF7FEFF 		bl	RadioSetModem
 2295              	.LVL214:
 819:Core/Src/radio/sx126x/radio.c ****             SX126xSetPacketParams( &SX126x.PacketParams );
ARM GAS  C:\Users\andywei\AppData\Local\Temp\cccFfT7V.s 			page 68


 2296              		.loc 1 819 13 is_stmt 1 view .LVU551
 2297 014a 3046     		mov	r0, r6
 2298 014c FFF7FEFF 		bl	SX126xSetModulationParams
 2299              	.LVL215:
 820:Core/Src/radio/sx126x/radio.c ****             break;
 2300              		.loc 1 820 13 view .LVU552
 2301 0150 05F1D000 		add	r0, r5, #208
 2302 0154 FFF7FEFF 		bl	SX126xSetPacketParams
 2303              	.LVL216:
 821:Core/Src/radio/sx126x/radio.c ****     }
 2304              		.loc 1 821 13 view .LVU553
 2305 0158 5FE7     		b	.L152
 2306              	.LVL217:
 2307              	.L164:
 784:Core/Src/radio/sx126x/radio.c ****             {
 2308              		.loc 1 784 34 is_stmt 0 view .LVU554
 2309 015a 0A9B     		ldr	r3, [sp, #40]
 2310              	.LVL218:
 784:Core/Src/radio/sx126x/radio.c ****             {
 2311              		.loc 1 784 34 view .LVU555
 2312 015c 0C2B     		cmp	r3, #12
 2313 015e CED1     		bne	.L158
 2314              	.L157:
 786:Core/Src/radio/sx126x/radio.c ****             }
 2315              		.loc 1 786 17 is_stmt 1 view .LVU556
 786:Core/Src/radio/sx126x/radio.c ****             }
 2316              		.loc 1 786 73 is_stmt 0 view .LVU557
 2317 0160 084B     		ldr	r3, .L166+4
 2318 0162 0121     		movs	r1, #1
 2319 0164 83F80B11 		strb	r1, [r3, #267]
 2320 0168 CDE7     		b	.L159
 2321              	.L165:
 798:Core/Src/radio/sx126x/radio.c ****                 {
 2322              		.loc 1 798 17 is_stmt 1 view .LVU558
 798:Core/Src/radio/sx126x/radio.c ****                 {
 2323              		.loc 1 798 19 is_stmt 0 view .LVU559
 2324 016a 0B2F     		cmp	r7, #11
 2325 016c 03D8     		bhi	.L161
 800:Core/Src/radio/sx126x/radio.c ****                 }
 2326              		.loc 1 800 21 is_stmt 1 view .LVU560
 800:Core/Src/radio/sx126x/radio.c ****                 }
 2327              		.loc 1 800 68 is_stmt 0 view .LVU561
 2328 016e 0C22     		movs	r2, #12
 2329 0170 A3F8DC20 		strh	r2, [r3, #220]	@ movhi
 2330 0174 D2E7     		b	.L162
 2331              	.L161:
 804:Core/Src/radio/sx126x/radio.c ****                 }
 2332              		.loc 1 804 21 is_stmt 1 view .LVU562
 804:Core/Src/radio/sx126x/radio.c ****                 }
 2333              		.loc 1 804 68 is_stmt 0 view .LVU563
 2334 0176 034B     		ldr	r3, .L166+4
 2335 0178 A3F8DC70 		strh	r7, [r3, #220]	@ movhi
 2336 017c CEE7     		b	.L162
 2337              	.L167:
 2338 017e 00BF     		.align	2
 2339              	.L166:
 2340 0180 00000000 		.word	.LANCHOR8
ARM GAS  C:\Users\andywei\AppData\Local\Temp\cccFfT7V.s 			page 69


 2341 0184 00000000 		.word	.LANCHOR6
 2342 0188 08000000 		.word	.LANCHOR12+8
 2343 018c 00000000 		.word	.LANCHOR13
 2344 0190 00000000 		.word	.LANCHOR5
 2345              	.LBE6:
 2346              		.cfi_endproc
 2347              	.LFE143:
 2349              		.section	.text.RadioRead,"ax",%progbits
 2350              		.align	1
 2351              		.global	RadioRead
 2352              		.syntax unified
 2353              		.thumb
 2354              		.thumb_func
 2355              		.fpu fpv4-sp-d16
 2357              	RadioRead:
 2358              	.LVL219:
 2359              	.LFB157:
 991:Core/Src/radio/sx126x/radio.c ****     return SX126xReadRegister( addr );
 2360              		.loc 1 991 1 is_stmt 1 view -0
 2361              		.cfi_startproc
 2362              		@ args = 0, pretend = 0, frame = 0
 2363              		@ frame_needed = 0, uses_anonymous_args = 0
 991:Core/Src/radio/sx126x/radio.c ****     return SX126xReadRegister( addr );
 2364              		.loc 1 991 1 is_stmt 0 view .LVU565
 2365 0000 08B5     		push	{r3, lr}
 2366              	.LCFI29:
 2367              		.cfi_def_cfa_offset 8
 2368              		.cfi_offset 3, -8
 2369              		.cfi_offset 14, -4
 992:Core/Src/radio/sx126x/radio.c **** }
 2370              		.loc 1 992 5 is_stmt 1 view .LVU566
 992:Core/Src/radio/sx126x/radio.c **** }
 2371              		.loc 1 992 12 is_stmt 0 view .LVU567
 2372 0002 FFF7FEFF 		bl	SX126xReadRegister
 2373              	.LVL220:
 993:Core/Src/radio/sx126x/radio.c **** 
 2374              		.loc 1 993 1 view .LVU568
 2375 0006 08BD     		pop	{r3, pc}
 2376              		.cfi_endproc
 2377              	.LFE157:
 2379              		.section	.text.RadioWriteBuffer,"ax",%progbits
 2380              		.align	1
 2381              		.global	RadioWriteBuffer
 2382              		.syntax unified
 2383              		.thumb
 2384              		.thumb_func
 2385              		.fpu fpv4-sp-d16
 2387              	RadioWriteBuffer:
 2388              	.LVL221:
 2389              	.LFB158:
 996:Core/Src/radio/sx126x/radio.c ****     SX126xWriteRegisters( addr, buffer, size );
 2390              		.loc 1 996 1 is_stmt 1 view -0
 2391              		.cfi_startproc
 2392              		@ args = 0, pretend = 0, frame = 0
 2393              		@ frame_needed = 0, uses_anonymous_args = 0
 996:Core/Src/radio/sx126x/radio.c ****     SX126xWriteRegisters( addr, buffer, size );
 2394              		.loc 1 996 1 is_stmt 0 view .LVU570
ARM GAS  C:\Users\andywei\AppData\Local\Temp\cccFfT7V.s 			page 70


 2395 0000 08B5     		push	{r3, lr}
 2396              	.LCFI30:
 2397              		.cfi_def_cfa_offset 8
 2398              		.cfi_offset 3, -8
 2399              		.cfi_offset 14, -4
 997:Core/Src/radio/sx126x/radio.c **** }
 2400              		.loc 1 997 5 is_stmt 1 view .LVU571
 2401 0002 FFF7FEFF 		bl	SX126xWriteRegisters
 2402              	.LVL222:
 998:Core/Src/radio/sx126x/radio.c **** 
 2403              		.loc 1 998 1 is_stmt 0 view .LVU572
 2404 0006 08BD     		pop	{r3, pc}
 2405              		.cfi_endproc
 2406              	.LFE158:
 2408              		.section	.text.RadioReadBuffer,"ax",%progbits
 2409              		.align	1
 2410              		.global	RadioReadBuffer
 2411              		.syntax unified
 2412              		.thumb
 2413              		.thumb_func
 2414              		.fpu fpv4-sp-d16
 2416              	RadioReadBuffer:
 2417              	.LVL223:
 2418              	.LFB159:
1001:Core/Src/radio/sx126x/radio.c ****     SX126xReadRegisters( addr, buffer, size );
 2419              		.loc 1 1001 1 is_stmt 1 view -0
 2420              		.cfi_startproc
 2421              		@ args = 0, pretend = 0, frame = 0
 2422              		@ frame_needed = 0, uses_anonymous_args = 0
1001:Core/Src/radio/sx126x/radio.c ****     SX126xReadRegisters( addr, buffer, size );
 2423              		.loc 1 1001 1 is_stmt 0 view .LVU574
 2424 0000 08B5     		push	{r3, lr}
 2425              	.LCFI31:
 2426              		.cfi_def_cfa_offset 8
 2427              		.cfi_offset 3, -8
 2428              		.cfi_offset 14, -4
1002:Core/Src/radio/sx126x/radio.c **** }
 2429              		.loc 1 1002 5 is_stmt 1 view .LVU575
 2430 0002 FFF7FEFF 		bl	SX126xReadRegisters
 2431              	.LVL224:
1003:Core/Src/radio/sx126x/radio.c **** 
 2432              		.loc 1 1003 1 is_stmt 0 view .LVU576
 2433 0006 08BD     		pop	{r3, pc}
 2434              		.cfi_endproc
 2435              	.LFE159:
 2437              		.section	.text.RadioIrqProcess,"ax",%progbits
 2438              		.align	1
 2439              		.global	RadioIrqProcess
 2440              		.syntax unified
 2441              		.thumb
 2442              		.thumb_func
 2443              		.fpu fpv4-sp-d16
 2445              	RadioIrqProcess:
 2446              	.LFB168:
1076:Core/Src/radio/sx126x/radio.c **** 
1077:Core/Src/radio/sx126x/radio.c **** void RadioIrqProcess( void )
1078:Core/Src/radio/sx126x/radio.c **** {
ARM GAS  C:\Users\andywei\AppData\Local\Temp\cccFfT7V.s 			page 71


 2447              		.loc 1 1078 1 is_stmt 1 view -0
 2448              		.cfi_startproc
 2449              		@ args = 0, pretend = 0, frame = 8
 2450              		@ frame_needed = 0, uses_anonymous_args = 0
1079:Core/Src/radio/sx126x/radio.c ****     if( IrqFired == true )
 2451              		.loc 1 1079 5 view .LVU578
 2452              		.loc 1 1079 18 is_stmt 0 view .LVU579
 2453 0000 4B4B     		ldr	r3, .L194
 2454 0002 1B78     		ldrb	r3, [r3]	@ zero_extendqisi2
 2455              		.loc 1 1079 7 view .LVU580
 2456 0004 03B9     		cbnz	r3, .L188
 2457 0006 7047     		bx	lr
 2458              	.L188:
1078:Core/Src/radio/sx126x/radio.c ****     if( IrqFired == true )
 2459              		.loc 1 1078 1 view .LVU581
 2460 0008 30B5     		push	{r4, r5, lr}
 2461              	.LCFI32:
 2462              		.cfi_def_cfa_offset 12
 2463              		.cfi_offset 4, -12
 2464              		.cfi_offset 5, -8
 2465              		.cfi_offset 14, -4
 2466 000a 83B0     		sub	sp, sp, #12
 2467              	.LCFI33:
 2468              		.cfi_def_cfa_offset 24
 2469              	.LBB7:
1080:Core/Src/radio/sx126x/radio.c ****     {
1081:Core/Src/radio/sx126x/radio.c ****         BoardDisableIrq( );
 2470              		.loc 1 1081 9 is_stmt 1 view .LVU582
 2471 000c FFF7FEFF 		bl	BoardDisableIrq
 2472              	.LVL225:
1082:Core/Src/radio/sx126x/radio.c ****         IrqFired = false;
 2473              		.loc 1 1082 9 view .LVU583
 2474              		.loc 1 1082 18 is_stmt 0 view .LVU584
 2475 0010 474B     		ldr	r3, .L194
 2476 0012 0022     		movs	r2, #0
 2477 0014 1A70     		strb	r2, [r3]
1083:Core/Src/radio/sx126x/radio.c ****         BoardEnableIrq( );
 2478              		.loc 1 1083 9 is_stmt 1 view .LVU585
 2479 0016 FFF7FEFF 		bl	BoardEnableIrq
 2480              	.LVL226:
1084:Core/Src/radio/sx126x/radio.c **** 
1085:Core/Src/radio/sx126x/radio.c ****         uint16_t irqRegs = SX126xGetIrqStatus( );
 2481              		.loc 1 1085 9 view .LVU586
 2482              		.loc 1 1085 28 is_stmt 0 view .LVU587
 2483 001a FFF7FEFF 		bl	SX126xGetIrqStatus
 2484              	.LVL227:
 2485 001e 0446     		mov	r4, r0
 2486              	.LVL228:
1086:Core/Src/radio/sx126x/radio.c ****         SX126xClearIrqStatus( IRQ_RADIO_ALL );
 2487              		.loc 1 1086 9 is_stmt 1 view .LVU588
 2488 0020 4FF6FF70 		movw	r0, #65535
 2489 0024 FFF7FEFF 		bl	SX126xClearIrqStatus
 2490              	.LVL229:
1087:Core/Src/radio/sx126x/radio.c **** 
1088:Core/Src/radio/sx126x/radio.c ****         if( ( irqRegs & IRQ_TX_DONE ) == IRQ_TX_DONE )
 2491              		.loc 1 1088 9 view .LVU589
 2492              		.loc 1 1088 11 is_stmt 0 view .LVU590
ARM GAS  C:\Users\andywei\AppData\Local\Temp\cccFfT7V.s 			page 72


 2493 0028 14F0010F 		tst	r4, #1
 2494 002c 1ED1     		bne	.L189
 2495              	.L176:
1089:Core/Src/radio/sx126x/radio.c ****         {
1090:Core/Src/radio/sx126x/radio.c ****             TimerStop( &TxTimeoutTimer );
1091:Core/Src/radio/sx126x/radio.c ****             if( ( RadioEvents != NULL ) && ( RadioEvents->TxDone != NULL ) )
1092:Core/Src/radio/sx126x/radio.c ****             {
1093:Core/Src/radio/sx126x/radio.c ****                 RadioEvents->TxDone( );
1094:Core/Src/radio/sx126x/radio.c ****             }
1095:Core/Src/radio/sx126x/radio.c ****         }
1096:Core/Src/radio/sx126x/radio.c **** 
1097:Core/Src/radio/sx126x/radio.c ****         if( ( irqRegs & IRQ_RX_DONE ) == IRQ_RX_DONE )
 2496              		.loc 1 1097 9 is_stmt 1 view .LVU591
 2497              		.loc 1 1097 11 is_stmt 0 view .LVU592
 2498 002e 14F0020F 		tst	r4, #2
 2499 0032 27D1     		bne	.L190
 2500              	.L177:
1098:Core/Src/radio/sx126x/radio.c ****         {
1099:Core/Src/radio/sx126x/radio.c ****             uint8_t size;
1100:Core/Src/radio/sx126x/radio.c **** 
1101:Core/Src/radio/sx126x/radio.c ****             TimerStop( &RxTimeoutTimer );
1102:Core/Src/radio/sx126x/radio.c ****             SX126xGetPayload( RadioRxPayload, &size , 255 );
1103:Core/Src/radio/sx126x/radio.c ****             SX126xGetPacketStatus( &RadioPktStatus );
1104:Core/Src/radio/sx126x/radio.c ****             if( ( RadioEvents != NULL ) && ( RadioEvents->RxDone != NULL ) )
1105:Core/Src/radio/sx126x/radio.c ****             {
1106:Core/Src/radio/sx126x/radio.c **** 								//Return RSSI information for FSK or LoRa
1107:Core/Src/radio/sx126x/radio.c **** 								if( RadioPktStatus.packetType == PACKET_TYPE_GFSK )
1108:Core/Src/radio/sx126x/radio.c **** 									RadioEvents->RxDone( RadioRxPayload, size,  RadioPktStatus.Params.Gfsk.RssiSync, RadioPktS
1109:Core/Src/radio/sx126x/radio.c **** 								else 
1110:Core/Src/radio/sx126x/radio.c **** 									RadioEvents->RxDone( RadioRxPayload, size, RadioPktStatus.Params.LoRa.RssiPkt, RadioPktSta
1111:Core/Src/radio/sx126x/radio.c ****             }
1112:Core/Src/radio/sx126x/radio.c ****         }
1113:Core/Src/radio/sx126x/radio.c **** 
1114:Core/Src/radio/sx126x/radio.c ****         if( ( irqRegs & IRQ_CRC_ERROR ) == IRQ_CRC_ERROR )
 2501              		.loc 1 1114 9 is_stmt 1 view .LVU593
 2502              		.loc 1 1114 11 is_stmt 0 view .LVU594
 2503 0034 14F0400F 		tst	r4, #64
 2504 0038 05D0     		beq	.L180
1115:Core/Src/radio/sx126x/radio.c ****         {
1116:Core/Src/radio/sx126x/radio.c ****             if( ( RadioEvents != NULL ) && ( RadioEvents->RxError ) )
 2505              		.loc 1 1116 13 is_stmt 1 view .LVU595
 2506              		.loc 1 1116 31 is_stmt 0 view .LVU596
 2507 003a 3E4B     		ldr	r3, .L194+4
 2508 003c 1B68     		ldr	r3, [r3]
 2509              		.loc 1 1116 15 view .LVU597
 2510 003e 13B1     		cbz	r3, .L180
 2511              		.loc 1 1116 57 discriminator 1 view .LVU598
 2512 0040 1B69     		ldr	r3, [r3, #16]
 2513              		.loc 1 1116 41 discriminator 1 view .LVU599
 2514 0042 03B1     		cbz	r3, .L180
1117:Core/Src/radio/sx126x/radio.c ****             {
1118:Core/Src/radio/sx126x/radio.c ****                 RadioEvents->RxError( );
 2515              		.loc 1 1118 17 is_stmt 1 view .LVU600
 2516 0044 9847     		blx	r3
 2517              	.LVL230:
 2518              	.L180:
1119:Core/Src/radio/sx126x/radio.c ****             }
ARM GAS  C:\Users\andywei\AppData\Local\Temp\cccFfT7V.s 			page 73


1120:Core/Src/radio/sx126x/radio.c ****         }
1121:Core/Src/radio/sx126x/radio.c **** 
1122:Core/Src/radio/sx126x/radio.c ****         if( ( irqRegs & IRQ_CAD_DONE ) == IRQ_CAD_DONE )
 2519              		.loc 1 1122 9 view .LVU601
 2520              		.loc 1 1122 11 is_stmt 0 view .LVU602
 2521 0046 14F0800F 		tst	r4, #128
 2522 004a 07D0     		beq	.L181
1123:Core/Src/radio/sx126x/radio.c ****         {
1124:Core/Src/radio/sx126x/radio.c ****             if( ( RadioEvents != NULL ) && ( RadioEvents->CadDone != NULL ) )
 2523              		.loc 1 1124 13 is_stmt 1 view .LVU603
 2524              		.loc 1 1124 31 is_stmt 0 view .LVU604
 2525 004c 394B     		ldr	r3, .L194+4
 2526 004e 1B68     		ldr	r3, [r3]
 2527              		.loc 1 1124 15 view .LVU605
 2528 0050 23B1     		cbz	r3, .L181
 2529              		.loc 1 1124 57 discriminator 1 view .LVU606
 2530 0052 9B69     		ldr	r3, [r3, #24]
 2531              		.loc 1 1124 41 discriminator 1 view .LVU607
 2532 0054 13B1     		cbz	r3, .L181
1125:Core/Src/radio/sx126x/radio.c ****             {
1126:Core/Src/radio/sx126x/radio.c ****                 RadioEvents->CadDone( ( ( irqRegs & IRQ_CAD_ACTIVITY_DETECTED ) == IRQ_CAD_ACTIVITY
 2533              		.loc 1 1126 17 is_stmt 1 view .LVU608
 2534 0056 C4F30020 		ubfx	r0, r4, #8, #1
 2535 005a 9847     		blx	r3
 2536              	.LVL231:
 2537              	.L181:
1127:Core/Src/radio/sx126x/radio.c ****             }
1128:Core/Src/radio/sx126x/radio.c ****         }
1129:Core/Src/radio/sx126x/radio.c **** 
1130:Core/Src/radio/sx126x/radio.c ****         if( ( irqRegs & IRQ_RX_TX_TIMEOUT ) == IRQ_RX_TX_TIMEOUT )
 2538              		.loc 1 1130 9 view .LVU609
 2539              		.loc 1 1130 11 is_stmt 0 view .LVU610
 2540 005c 14F4007F 		tst	r4, #512
 2541 0060 3AD1     		bne	.L191
 2542              	.L182:
1131:Core/Src/radio/sx126x/radio.c ****         {
1132:Core/Src/radio/sx126x/radio.c ****             if( SX126xGetOperatingMode( ) == MODE_TX )
1133:Core/Src/radio/sx126x/radio.c ****             {
1134:Core/Src/radio/sx126x/radio.c ****                 TimerStop( &TxTimeoutTimer );
1135:Core/Src/radio/sx126x/radio.c ****                 if( ( RadioEvents != NULL ) && ( RadioEvents->TxTimeout != NULL ) )
1136:Core/Src/radio/sx126x/radio.c ****                 {
1137:Core/Src/radio/sx126x/radio.c ****                     RadioEvents->TxTimeout( );
1138:Core/Src/radio/sx126x/radio.c ****                 }
1139:Core/Src/radio/sx126x/radio.c ****             }
1140:Core/Src/radio/sx126x/radio.c ****             else if( SX126xGetOperatingMode( ) == MODE_RX )
1141:Core/Src/radio/sx126x/radio.c ****             {
1142:Core/Src/radio/sx126x/radio.c ****                 TimerStop( &RxTimeoutTimer );
1143:Core/Src/radio/sx126x/radio.c ****                 if( ( RadioEvents != NULL ) && ( RadioEvents->RxTimeout != NULL ) )
1144:Core/Src/radio/sx126x/radio.c ****                 {
1145:Core/Src/radio/sx126x/radio.c ****                     RadioEvents->RxTimeout( );
1146:Core/Src/radio/sx126x/radio.c ****                 }
1147:Core/Src/radio/sx126x/radio.c ****             }
1148:Core/Src/radio/sx126x/radio.c ****         }
1149:Core/Src/radio/sx126x/radio.c **** 
1150:Core/Src/radio/sx126x/radio.c ****         if( ( irqRegs & IRQ_PREAMBLE_DETECTED ) == IRQ_PREAMBLE_DETECTED )
 2543              		.loc 1 1150 9 is_stmt 1 view .LVU611
1151:Core/Src/radio/sx126x/radio.c ****         {
ARM GAS  C:\Users\andywei\AppData\Local\Temp\cccFfT7V.s 			page 74


1152:Core/Src/radio/sx126x/radio.c ****             //__NOP( );
1153:Core/Src/radio/sx126x/radio.c ****         }
 2544              		.loc 1 1153 9 view .LVU612
1154:Core/Src/radio/sx126x/radio.c **** 
1155:Core/Src/radio/sx126x/radio.c ****         if( ( irqRegs & IRQ_SYNCWORD_VALID ) == IRQ_SYNCWORD_VALID )
 2545              		.loc 1 1155 9 view .LVU613
1156:Core/Src/radio/sx126x/radio.c ****         {
1157:Core/Src/radio/sx126x/radio.c ****             //__NOP( );
1158:Core/Src/radio/sx126x/radio.c ****         }
 2546              		.loc 1 1158 9 view .LVU614
1159:Core/Src/radio/sx126x/radio.c **** 
1160:Core/Src/radio/sx126x/radio.c ****         if( ( irqRegs & IRQ_HEADER_VALID ) == IRQ_HEADER_VALID )
 2547              		.loc 1 1160 9 view .LVU615
1161:Core/Src/radio/sx126x/radio.c ****         {
1162:Core/Src/radio/sx126x/radio.c ****             //__NOP( );
1163:Core/Src/radio/sx126x/radio.c ****         }
 2548              		.loc 1 1163 9 view .LVU616
1164:Core/Src/radio/sx126x/radio.c **** 
1165:Core/Src/radio/sx126x/radio.c ****         if( ( irqRegs & IRQ_HEADER_ERROR ) == IRQ_HEADER_ERROR )
 2549              		.loc 1 1165 9 view .LVU617
 2550              		.loc 1 1165 11 is_stmt 0 view .LVU618
 2551 0062 14F0200F 		tst	r4, #32
 2552 0066 57D1     		bne	.L192
 2553              	.L174:
 2554              	.LBE7:
1166:Core/Src/radio/sx126x/radio.c ****         {
1167:Core/Src/radio/sx126x/radio.c ****             TimerStop( &RxTimeoutTimer );
1168:Core/Src/radio/sx126x/radio.c ****             if( ( RadioEvents != NULL ) && ( RadioEvents->RxTimeout != NULL ) )
1169:Core/Src/radio/sx126x/radio.c ****             {
1170:Core/Src/radio/sx126x/radio.c ****                 RadioEvents->RxTimeout( );
1171:Core/Src/radio/sx126x/radio.c ****             }
1172:Core/Src/radio/sx126x/radio.c ****         }
1173:Core/Src/radio/sx126x/radio.c ****     }
1174:Core/Src/radio/sx126x/radio.c **** }
 2555              		.loc 1 1174 1 view .LVU619
 2556 0068 03B0     		add	sp, sp, #12
 2557              	.LCFI34:
 2558              		.cfi_remember_state
 2559              		.cfi_def_cfa_offset 12
 2560              		@ sp needed
 2561 006a 30BD     		pop	{r4, r5, pc}
 2562              	.LVL232:
 2563              	.L189:
 2564              	.LCFI35:
 2565              		.cfi_restore_state
 2566              	.LBB9:
1090:Core/Src/radio/sx126x/radio.c ****             if( ( RadioEvents != NULL ) && ( RadioEvents->TxDone != NULL ) )
 2567              		.loc 1 1090 13 is_stmt 1 view .LVU620
 2568 006c 3248     		ldr	r0, .L194+8
 2569 006e FFF7FEFF 		bl	TimerStop
 2570              	.LVL233:
1091:Core/Src/radio/sx126x/radio.c ****             {
 2571              		.loc 1 1091 13 view .LVU621
1091:Core/Src/radio/sx126x/radio.c ****             {
 2572              		.loc 1 1091 31 is_stmt 0 view .LVU622
 2573 0072 304B     		ldr	r3, .L194+4
 2574 0074 1B68     		ldr	r3, [r3]
ARM GAS  C:\Users\andywei\AppData\Local\Temp\cccFfT7V.s 			page 75


1091:Core/Src/radio/sx126x/radio.c ****             {
 2575              		.loc 1 1091 15 view .LVU623
 2576 0076 002B     		cmp	r3, #0
 2577 0078 D9D0     		beq	.L176
1091:Core/Src/radio/sx126x/radio.c ****             {
 2578              		.loc 1 1091 57 discriminator 1 view .LVU624
 2579 007a 1B68     		ldr	r3, [r3]
1091:Core/Src/radio/sx126x/radio.c ****             {
 2580              		.loc 1 1091 41 discriminator 1 view .LVU625
 2581 007c 002B     		cmp	r3, #0
 2582 007e D6D0     		beq	.L176
1093:Core/Src/radio/sx126x/radio.c ****             }
 2583              		.loc 1 1093 17 is_stmt 1 view .LVU626
 2584 0080 9847     		blx	r3
 2585              	.LVL234:
 2586 0082 D4E7     		b	.L176
 2587              	.L190:
 2588              	.LBB8:
1099:Core/Src/radio/sx126x/radio.c **** 
 2589              		.loc 1 1099 13 view .LVU627
1101:Core/Src/radio/sx126x/radio.c ****             SX126xGetPayload( RadioRxPayload, &size , 255 );
 2590              		.loc 1 1101 13 view .LVU628
 2591 0084 2D48     		ldr	r0, .L194+12
 2592 0086 FFF7FEFF 		bl	TimerStop
 2593              	.LVL235:
1102:Core/Src/radio/sx126x/radio.c ****             SX126xGetPacketStatus( &RadioPktStatus );
 2594              		.loc 1 1102 13 view .LVU629
 2595 008a FF22     		movs	r2, #255
 2596 008c 0DF10701 		add	r1, sp, #7
 2597 0090 2B48     		ldr	r0, .L194+16
 2598 0092 FFF7FEFF 		bl	SX126xGetPayload
 2599              	.LVL236:
1103:Core/Src/radio/sx126x/radio.c ****             if( ( RadioEvents != NULL ) && ( RadioEvents->RxDone != NULL ) )
 2600              		.loc 1 1103 13 view .LVU630
 2601 0096 2B48     		ldr	r0, .L194+20
 2602 0098 FFF7FEFF 		bl	SX126xGetPacketStatus
 2603              	.LVL237:
1104:Core/Src/radio/sx126x/radio.c ****             {
 2604              		.loc 1 1104 13 view .LVU631
1104:Core/Src/radio/sx126x/radio.c ****             {
 2605              		.loc 1 1104 31 is_stmt 0 view .LVU632
 2606 009c 254B     		ldr	r3, .L194+4
 2607 009e 1B68     		ldr	r3, [r3]
1104:Core/Src/radio/sx126x/radio.c ****             {
 2608              		.loc 1 1104 15 view .LVU633
 2609 00a0 002B     		cmp	r3, #0
 2610 00a2 C7D0     		beq	.L177
1104:Core/Src/radio/sx126x/radio.c ****             {
 2611              		.loc 1 1104 57 discriminator 1 view .LVU634
 2612 00a4 9D68     		ldr	r5, [r3, #8]
1104:Core/Src/radio/sx126x/radio.c ****             {
 2613              		.loc 1 1104 41 discriminator 1 view .LVU635
 2614 00a6 002D     		cmp	r5, #0
 2615 00a8 C4D0     		beq	.L177
1107:Core/Src/radio/sx126x/radio.c **** 									RadioEvents->RxDone( RadioRxPayload, size,  RadioPktStatus.Params.Gfsk.RssiSync, RadioPktS
 2616              		.loc 1 1107 9 is_stmt 1 view .LVU636
1107:Core/Src/radio/sx126x/radio.c **** 									RadioEvents->RxDone( RadioRxPayload, size,  RadioPktStatus.Params.Gfsk.RssiSync, RadioPktS
ARM GAS  C:\Users\andywei\AppData\Local\Temp\cccFfT7V.s 			page 76


 2617              		.loc 1 1107 27 is_stmt 0 view .LVU637
 2618 00aa 264B     		ldr	r3, .L194+20
 2619 00ac 1B78     		ldrb	r3, [r3]	@ zero_extendqisi2
1107:Core/Src/radio/sx126x/radio.c **** 									RadioEvents->RxDone( RadioRxPayload, size,  RadioPktStatus.Params.Gfsk.RssiSync, RadioPktS
 2620              		.loc 1 1107 11 view .LVU638
 2621 00ae 4BB9     		cbnz	r3, .L179
1108:Core/Src/radio/sx126x/radio.c **** 								else 
 2622              		.loc 1 1108 10 is_stmt 1 view .LVU639
1108:Core/Src/radio/sx126x/radio.c **** 								else 
 2623              		.loc 1 1108 80 is_stmt 0 view .LVU640
 2624 00b0 244A     		ldr	r2, .L194+20
1108:Core/Src/radio/sx126x/radio.c **** 								else 
 2625              		.loc 1 1108 10 view .LVU641
 2626 00b2 92F90530 		ldrsb	r3, [r2, #5]
 2627 00b6 92F90620 		ldrsb	r2, [r2, #6]
 2628 00ba 9DF80710 		ldrb	r1, [sp, #7]	@ zero_extendqisi2
 2629 00be 2048     		ldr	r0, .L194+16
 2630 00c0 A847     		blx	r5
 2631              	.LVL238:
 2632 00c2 B7E7     		b	.L177
 2633              	.L179:
1110:Core/Src/radio/sx126x/radio.c ****             }
 2634              		.loc 1 1110 10 is_stmt 1 view .LVU642
1110:Core/Src/radio/sx126x/radio.c ****             }
 2635              		.loc 1 1110 79 is_stmt 0 view .LVU643
 2636 00c4 1F4A     		ldr	r2, .L194+20
1110:Core/Src/radio/sx126x/radio.c ****             }
 2637              		.loc 1 1110 10 view .LVU644
 2638 00c6 92F90D30 		ldrsb	r3, [r2, #13]
 2639 00ca 92F90C20 		ldrsb	r2, [r2, #12]
 2640 00ce 9DF80710 		ldrb	r1, [sp, #7]	@ zero_extendqisi2
 2641 00d2 1B48     		ldr	r0, .L194+16
 2642 00d4 A847     		blx	r5
 2643              	.LVL239:
 2644 00d6 ADE7     		b	.L177
 2645              	.L191:
 2646              	.LBE8:
1132:Core/Src/radio/sx126x/radio.c ****             {
 2647              		.loc 1 1132 13 is_stmt 1 view .LVU645
1132:Core/Src/radio/sx126x/radio.c ****             {
 2648              		.loc 1 1132 17 is_stmt 0 view .LVU646
 2649 00d8 FFF7FEFF 		bl	SX126xGetOperatingMode
 2650              	.LVL240:
1132:Core/Src/radio/sx126x/radio.c ****             {
 2651              		.loc 1 1132 15 view .LVU647
 2652 00dc 0428     		cmp	r0, #4
 2653 00de 0FD0     		beq	.L193
1140:Core/Src/radio/sx126x/radio.c ****             {
 2654              		.loc 1 1140 18 is_stmt 1 view .LVU648
1140:Core/Src/radio/sx126x/radio.c ****             {
 2655              		.loc 1 1140 22 is_stmt 0 view .LVU649
 2656 00e0 FFF7FEFF 		bl	SX126xGetOperatingMode
 2657              	.LVL241:
1140:Core/Src/radio/sx126x/radio.c ****             {
 2658              		.loc 1 1140 20 view .LVU650
 2659 00e4 0528     		cmp	r0, #5
 2660 00e6 BCD1     		bne	.L182
ARM GAS  C:\Users\andywei\AppData\Local\Temp\cccFfT7V.s 			page 77


1142:Core/Src/radio/sx126x/radio.c ****                 if( ( RadioEvents != NULL ) && ( RadioEvents->RxTimeout != NULL ) )
 2661              		.loc 1 1142 17 is_stmt 1 view .LVU651
 2662 00e8 1448     		ldr	r0, .L194+12
 2663 00ea FFF7FEFF 		bl	TimerStop
 2664              	.LVL242:
1143:Core/Src/radio/sx126x/radio.c ****                 {
 2665              		.loc 1 1143 17 view .LVU652
1143:Core/Src/radio/sx126x/radio.c ****                 {
 2666              		.loc 1 1143 35 is_stmt 0 view .LVU653
 2667 00ee 114B     		ldr	r3, .L194+4
 2668 00f0 1B68     		ldr	r3, [r3]
1143:Core/Src/radio/sx126x/radio.c ****                 {
 2669              		.loc 1 1143 19 view .LVU654
 2670 00f2 002B     		cmp	r3, #0
 2671 00f4 B5D0     		beq	.L182
1143:Core/Src/radio/sx126x/radio.c ****                 {
 2672              		.loc 1 1143 61 discriminator 1 view .LVU655
 2673 00f6 DB68     		ldr	r3, [r3, #12]
1143:Core/Src/radio/sx126x/radio.c ****                 {
 2674              		.loc 1 1143 45 discriminator 1 view .LVU656
 2675 00f8 002B     		cmp	r3, #0
 2676 00fa B2D0     		beq	.L182
1145:Core/Src/radio/sx126x/radio.c ****                 }
 2677              		.loc 1 1145 21 is_stmt 1 view .LVU657
 2678 00fc 9847     		blx	r3
 2679              	.LVL243:
 2680 00fe B0E7     		b	.L182
 2681              	.L193:
1134:Core/Src/radio/sx126x/radio.c ****                 if( ( RadioEvents != NULL ) && ( RadioEvents->TxTimeout != NULL ) )
 2682              		.loc 1 1134 17 view .LVU658
 2683 0100 0D48     		ldr	r0, .L194+8
 2684 0102 FFF7FEFF 		bl	TimerStop
 2685              	.LVL244:
1135:Core/Src/radio/sx126x/radio.c ****                 {
 2686              		.loc 1 1135 17 view .LVU659
1135:Core/Src/radio/sx126x/radio.c ****                 {
 2687              		.loc 1 1135 35 is_stmt 0 view .LVU660
 2688 0106 0B4B     		ldr	r3, .L194+4
 2689 0108 1B68     		ldr	r3, [r3]
1135:Core/Src/radio/sx126x/radio.c ****                 {
 2690              		.loc 1 1135 19 view .LVU661
 2691 010a 002B     		cmp	r3, #0
 2692 010c A9D0     		beq	.L182
1135:Core/Src/radio/sx126x/radio.c ****                 {
 2693              		.loc 1 1135 61 discriminator 1 view .LVU662
 2694 010e 5B68     		ldr	r3, [r3, #4]
1135:Core/Src/radio/sx126x/radio.c ****                 {
 2695              		.loc 1 1135 45 discriminator 1 view .LVU663
 2696 0110 002B     		cmp	r3, #0
 2697 0112 A6D0     		beq	.L182
1137:Core/Src/radio/sx126x/radio.c ****                 }
 2698              		.loc 1 1137 21 is_stmt 1 view .LVU664
 2699 0114 9847     		blx	r3
 2700              	.LVL245:
 2701 0116 A4E7     		b	.L182
 2702              	.L192:
1167:Core/Src/radio/sx126x/radio.c ****             if( ( RadioEvents != NULL ) && ( RadioEvents->RxTimeout != NULL ) )
ARM GAS  C:\Users\andywei\AppData\Local\Temp\cccFfT7V.s 			page 78


 2703              		.loc 1 1167 13 view .LVU665
 2704 0118 0848     		ldr	r0, .L194+12
 2705 011a FFF7FEFF 		bl	TimerStop
 2706              	.LVL246:
1168:Core/Src/radio/sx126x/radio.c ****             {
 2707              		.loc 1 1168 13 view .LVU666
1168:Core/Src/radio/sx126x/radio.c ****             {
 2708              		.loc 1 1168 31 is_stmt 0 view .LVU667
 2709 011e 054B     		ldr	r3, .L194+4
 2710 0120 1B68     		ldr	r3, [r3]
1168:Core/Src/radio/sx126x/radio.c ****             {
 2711              		.loc 1 1168 15 view .LVU668
 2712 0122 002B     		cmp	r3, #0
 2713 0124 A0D0     		beq	.L174
1168:Core/Src/radio/sx126x/radio.c ****             {
 2714              		.loc 1 1168 57 discriminator 1 view .LVU669
 2715 0126 DB68     		ldr	r3, [r3, #12]
1168:Core/Src/radio/sx126x/radio.c ****             {
 2716              		.loc 1 1168 41 discriminator 1 view .LVU670
 2717 0128 002B     		cmp	r3, #0
 2718 012a 9DD0     		beq	.L174
1170:Core/Src/radio/sx126x/radio.c ****             }
 2719              		.loc 1 1170 17 is_stmt 1 view .LVU671
 2720 012c 9847     		blx	r3
 2721              	.LVL247:
 2722              	.LBE9:
 2723              		.loc 1 1174 1 is_stmt 0 view .LVU672
 2724 012e 9BE7     		b	.L174
 2725              	.L195:
 2726              		.align	2
 2727              	.L194:
 2728 0130 00000000 		.word	.LANCHOR2
 2729 0134 00000000 		.word	.LANCHOR1
 2730 0138 00000000 		.word	.LANCHOR3
 2731 013c 00000000 		.word	.LANCHOR4
 2732 0140 00000000 		.word	.LANCHOR14
 2733 0144 00000000 		.word	.LANCHOR15
 2734              		.cfi_endproc
 2735              	.LFE168:
 2737              		.section	.text.RadioTx,"ax",%progbits
 2738              		.align	1
 2739              		.global	RadioTx
 2740              		.syntax unified
 2741              		.thumb
 2742              		.thumb_func
 2743              		.fpu fpv4-sp-d16
 2745              	RadioTx:
 2746              	.LVL248:
 2747              	.LFB153:
 966:Core/Src/radio/sx126x/radio.c ****     SX126xSetTx( timeout << 6 );
 2748              		.loc 1 966 1 is_stmt 1 view -0
 2749              		.cfi_startproc
 2750              		@ args = 0, pretend = 0, frame = 0
 2751              		@ frame_needed = 0, uses_anonymous_args = 0
 966:Core/Src/radio/sx126x/radio.c ****     SX126xSetTx( timeout << 6 );
 2752              		.loc 1 966 1 is_stmt 0 view .LVU674
 2753 0000 08B5     		push	{r3, lr}
ARM GAS  C:\Users\andywei\AppData\Local\Temp\cccFfT7V.s 			page 79


 2754              	.LCFI36:
 2755              		.cfi_def_cfa_offset 8
 2756              		.cfi_offset 3, -8
 2757              		.cfi_offset 14, -4
 967:Core/Src/radio/sx126x/radio.c **** }
 2758              		.loc 1 967 5 is_stmt 1 view .LVU675
 2759 0002 8001     		lsls	r0, r0, #6
 2760              	.LVL249:
 967:Core/Src/radio/sx126x/radio.c **** }
 2761              		.loc 1 967 5 is_stmt 0 view .LVU676
 2762 0004 FFF7FEFF 		bl	SX126xSetTx
 2763              	.LVL250:
 968:Core/Src/radio/sx126x/radio.c **** 
 2764              		.loc 1 968 1 view .LVU677
 2765 0008 08BD     		pop	{r3, pc}
 2766              		.cfi_endproc
 2767              	.LFE153:
 2769              		.section	.text.RadioWriteFifo,"ax",%progbits
 2770              		.align	1
 2771              		.global	RadioWriteFifo
 2772              		.syntax unified
 2773              		.thumb
 2774              		.thumb_func
 2775              		.fpu fpv4-sp-d16
 2777              	RadioWriteFifo:
 2778              	.LVL251:
 2779              	.LFB160:
1006:Core/Src/radio/sx126x/radio.c ****     SX126xWriteBuffer( 0, buffer, size );
 2780              		.loc 1 1006 1 is_stmt 1 view -0
 2781              		.cfi_startproc
 2782              		@ args = 0, pretend = 0, frame = 0
 2783              		@ frame_needed = 0, uses_anonymous_args = 0
1006:Core/Src/radio/sx126x/radio.c ****     SX126xWriteBuffer( 0, buffer, size );
 2784              		.loc 1 1006 1 is_stmt 0 view .LVU679
 2785 0000 08B5     		push	{r3, lr}
 2786              	.LCFI37:
 2787              		.cfi_def_cfa_offset 8
 2788              		.cfi_offset 3, -8
 2789              		.cfi_offset 14, -4
 2790 0002 0A46     		mov	r2, r1
1007:Core/Src/radio/sx126x/radio.c **** }
 2791              		.loc 1 1007 5 is_stmt 1 view .LVU680
 2792 0004 0146     		mov	r1, r0
 2793              	.LVL252:
1007:Core/Src/radio/sx126x/radio.c **** }
 2794              		.loc 1 1007 5 is_stmt 0 view .LVU681
 2795 0006 0020     		movs	r0, #0
 2796              	.LVL253:
1007:Core/Src/radio/sx126x/radio.c **** }
 2797              		.loc 1 1007 5 view .LVU682
 2798 0008 FFF7FEFF 		bl	SX126xWriteBuffer
 2799              	.LVL254:
1008:Core/Src/radio/sx126x/radio.c **** 
 2800              		.loc 1 1008 1 view .LVU683
 2801 000c 08BD     		pop	{r3, pc}
 2802              		.cfi_endproc
 2803              	.LFE160:
ARM GAS  C:\Users\andywei\AppData\Local\Temp\cccFfT7V.s 			page 80


 2805              		.section	.text.RadioReadFifo,"ax",%progbits
 2806              		.align	1
 2807              		.global	RadioReadFifo
 2808              		.syntax unified
 2809              		.thumb
 2810              		.thumb_func
 2811              		.fpu fpv4-sp-d16
 2813              	RadioReadFifo:
 2814              	.LVL255:
 2815              	.LFB161:
1011:Core/Src/radio/sx126x/radio.c ****     SX126xReadBuffer( 0, buffer, size );
 2816              		.loc 1 1011 1 is_stmt 1 view -0
 2817              		.cfi_startproc
 2818              		@ args = 0, pretend = 0, frame = 0
 2819              		@ frame_needed = 0, uses_anonymous_args = 0
1011:Core/Src/radio/sx126x/radio.c ****     SX126xReadBuffer( 0, buffer, size );
 2820              		.loc 1 1011 1 is_stmt 0 view .LVU685
 2821 0000 08B5     		push	{r3, lr}
 2822              	.LCFI38:
 2823              		.cfi_def_cfa_offset 8
 2824              		.cfi_offset 3, -8
 2825              		.cfi_offset 14, -4
 2826 0002 0A46     		mov	r2, r1
1012:Core/Src/radio/sx126x/radio.c **** }
 2827              		.loc 1 1012 5 is_stmt 1 view .LVU686
 2828 0004 0146     		mov	r1, r0
 2829              	.LVL256:
1012:Core/Src/radio/sx126x/radio.c **** }
 2830              		.loc 1 1012 5 is_stmt 0 view .LVU687
 2831 0006 0020     		movs	r0, #0
 2832              	.LVL257:
1012:Core/Src/radio/sx126x/radio.c **** }
 2833              		.loc 1 1012 5 view .LVU688
 2834 0008 FFF7FEFF 		bl	SX126xReadBuffer
 2835              	.LVL258:
1013:Core/Src/radio/sx126x/radio.c **** 
 2836              		.loc 1 1013 1 view .LVU689
 2837 000c 08BD     		pop	{r3, pc}
 2838              		.cfi_endproc
 2839              	.LFE161:
 2841              		.global	RxTimeoutTimer
 2842              		.global	TxTimeoutTimer
 2843              		.global	SX126x
 2844              		.global	IrqFired
 2845              		.global	RadioRxPayload
 2846              		.global	RadioPktStatus
 2847              		.global	RxContinuous
 2848              		.global	RxTimeout
 2849              		.global	TxTimeout
 2850              		.global	MaxPayloadLength
 2851              		.global	Bandwidths
 2852              		.global	FskBandwidths
 2853              		.global	Radio
 2854              		.section	.rodata
 2855              		.align	2
 2856              		.set	.LANCHOR12,. + 0
 2857              	.LC0:
ARM GAS  C:\Users\andywei\AppData\Local\Temp\cccFfT7V.s 			page 81


 2858 0000 C1       		.byte	-63
 2859 0001 94       		.byte	-108
 2860 0002 C1       		.byte	-63
 2861 0003 00       		.byte	0
 2862 0004 00       		.byte	0
 2863 0005 00       		.byte	0
 2864 0006 00       		.byte	0
 2865 0007 00       		.byte	0
 2866              	.LC1:
 2867 0008 2D       		.byte	45
 2868 0009 D4       		.byte	-44
 2869 000a C1       		.byte	-63
 2870 000b 00       		.byte	0
 2871 000c 00       		.byte	0
 2872 000d 00       		.byte	0
 2873 000e 00       		.byte	0
 2874 000f 00       		.byte	0
 2875              		.section	.bss.IrqFired,"aw",%nobits
 2876              		.set	.LANCHOR2,. + 0
 2879              	IrqFired:
 2880 0000 00       		.space	1
 2881              		.section	.bss.RadioEvents,"aw",%nobits
 2882              		.align	2
 2883              		.set	.LANCHOR1,. + 0
 2886              	RadioEvents:
 2887 0000 00000000 		.space	4
 2888              		.section	.bss.RadioPktStatus,"aw",%nobits
 2889              		.align	2
 2890              		.set	.LANCHOR15,. + 0
 2893              	RadioPktStatus:
 2894 0000 00000000 		.space	20
 2894      00000000 
 2894      00000000 
 2894      00000000 
 2894      00000000 
 2895              		.section	.bss.RadioPublicNetwork,"aw",%nobits
 2896              		.align	2
 2897              		.set	.LANCHOR11,. + 0
 2900              	RadioPublicNetwork:
 2901 0000 0000     		.space	2
 2902              		.section	.bss.RadioRxPayload,"aw",%nobits
 2903              		.align	2
 2904              		.set	.LANCHOR14,. + 0
 2907              	RadioRxPayload:
 2908 0000 00000000 		.space	255
 2908      00000000 
 2908      00000000 
 2908      00000000 
 2908      00000000 
 2909              		.section	.bss.RxContinuous,"aw",%nobits
 2910              		.set	.LANCHOR9,. + 0
 2913              	RxContinuous:
 2914 0000 00       		.space	1
 2915              		.section	.bss.RxTimeout,"aw",%nobits
 2916              		.align	2
 2917              		.set	.LANCHOR10,. + 0
 2920              	RxTimeout:
