ARM GAS  C:\Users\andywei\AppData\Local\Temp\ccNhxarc.s 			page 1


   1              		.cpu cortex-m4
   2              		.eabi_attribute 27, 1
   3              		.eabi_attribute 28, 1
   4              		.eabi_attribute 20, 1
   5              		.eabi_attribute 21, 1
   6              		.eabi_attribute 23, 3
   7              		.eabi_attribute 24, 1
   8              		.eabi_attribute 25, 1
   9              		.eabi_attribute 26, 1
  10              		.eabi_attribute 30, 1
  11              		.eabi_attribute 34, 1
  12              		.eabi_attribute 18, 4
  13              		.file	"stm32l4xx_hal_pwr.c"
  14              		.text
  15              	.Ltext0:
  16              		.cfi_sections	.debug_frame
  17              		.section	.text.HAL_PWR_DeInit,"ax",%progbits
  18              		.align	1
  19              		.global	HAL_PWR_DeInit
  20              		.arch armv7e-m
  21              		.syntax unified
  22              		.thumb
  23              		.thumb_func
  24              		.fpu fpv4-sp-d16
  26              	HAL_PWR_DeInit:
  27              	.LFB132:
  28              		.file 1 "Drivers/STM32L4xx_HAL_Driver/Src/stm32l4xx_hal_pwr.c"
   1:Drivers/STM32L4xx_HAL_Driver/Src/stm32l4xx_hal_pwr.c **** /**
   2:Drivers/STM32L4xx_HAL_Driver/Src/stm32l4xx_hal_pwr.c ****   ******************************************************************************
   3:Drivers/STM32L4xx_HAL_Driver/Src/stm32l4xx_hal_pwr.c ****   * @file    stm32l4xx_hal_pwr.c
   4:Drivers/STM32L4xx_HAL_Driver/Src/stm32l4xx_hal_pwr.c ****   * @author  MCD Application Team
   5:Drivers/STM32L4xx_HAL_Driver/Src/stm32l4xx_hal_pwr.c ****   * @brief   PWR HAL module driver.
   6:Drivers/STM32L4xx_HAL_Driver/Src/stm32l4xx_hal_pwr.c ****   *          This file provides firmware functions to manage the following
   7:Drivers/STM32L4xx_HAL_Driver/Src/stm32l4xx_hal_pwr.c ****   *          functionalities of the Power Controller (PWR) peripheral:
   8:Drivers/STM32L4xx_HAL_Driver/Src/stm32l4xx_hal_pwr.c ****   *           + Initialization/de-initialization functions
   9:Drivers/STM32L4xx_HAL_Driver/Src/stm32l4xx_hal_pwr.c ****   *           + Peripheral Control functions
  10:Drivers/STM32L4xx_HAL_Driver/Src/stm32l4xx_hal_pwr.c ****   *
  11:Drivers/STM32L4xx_HAL_Driver/Src/stm32l4xx_hal_pwr.c ****   ******************************************************************************
  12:Drivers/STM32L4xx_HAL_Driver/Src/stm32l4xx_hal_pwr.c ****   * @attention
  13:Drivers/STM32L4xx_HAL_Driver/Src/stm32l4xx_hal_pwr.c ****   *
  14:Drivers/STM32L4xx_HAL_Driver/Src/stm32l4xx_hal_pwr.c ****   * <h2><center>&copy; Copyright (c) 2017 STMicroelectronics.
  15:Drivers/STM32L4xx_HAL_Driver/Src/stm32l4xx_hal_pwr.c ****   * All rights reserved.</center></h2>
  16:Drivers/STM32L4xx_HAL_Driver/Src/stm32l4xx_hal_pwr.c ****   *
  17:Drivers/STM32L4xx_HAL_Driver/Src/stm32l4xx_hal_pwr.c ****   * This software component is licensed by ST under BSD 3-Clause license,
  18:Drivers/STM32L4xx_HAL_Driver/Src/stm32l4xx_hal_pwr.c ****   * the "License"; You may not use this file except in compliance with the
  19:Drivers/STM32L4xx_HAL_Driver/Src/stm32l4xx_hal_pwr.c ****   * License. You may obtain a copy of the License at:
  20:Drivers/STM32L4xx_HAL_Driver/Src/stm32l4xx_hal_pwr.c ****   *                        opensource.org/licenses/BSD-3-Clause
  21:Drivers/STM32L4xx_HAL_Driver/Src/stm32l4xx_hal_pwr.c ****   *
  22:Drivers/STM32L4xx_HAL_Driver/Src/stm32l4xx_hal_pwr.c ****   ******************************************************************************
  23:Drivers/STM32L4xx_HAL_Driver/Src/stm32l4xx_hal_pwr.c ****   */
  24:Drivers/STM32L4xx_HAL_Driver/Src/stm32l4xx_hal_pwr.c **** 
  25:Drivers/STM32L4xx_HAL_Driver/Src/stm32l4xx_hal_pwr.c **** /* Includes ------------------------------------------------------------------*/
  26:Drivers/STM32L4xx_HAL_Driver/Src/stm32l4xx_hal_pwr.c **** #include "stm32l4xx_hal.h"
  27:Drivers/STM32L4xx_HAL_Driver/Src/stm32l4xx_hal_pwr.c **** 
  28:Drivers/STM32L4xx_HAL_Driver/Src/stm32l4xx_hal_pwr.c **** /** @addtogroup STM32L4xx_HAL_Driver
  29:Drivers/STM32L4xx_HAL_Driver/Src/stm32l4xx_hal_pwr.c ****   * @{
  30:Drivers/STM32L4xx_HAL_Driver/Src/stm32l4xx_hal_pwr.c ****   */
ARM GAS  C:\Users\andywei\AppData\Local\Temp\ccNhxarc.s 			page 2


  31:Drivers/STM32L4xx_HAL_Driver/Src/stm32l4xx_hal_pwr.c **** 
  32:Drivers/STM32L4xx_HAL_Driver/Src/stm32l4xx_hal_pwr.c **** /** @defgroup PWR PWR
  33:Drivers/STM32L4xx_HAL_Driver/Src/stm32l4xx_hal_pwr.c ****   * @brief PWR HAL module driver
  34:Drivers/STM32L4xx_HAL_Driver/Src/stm32l4xx_hal_pwr.c ****   * @{
  35:Drivers/STM32L4xx_HAL_Driver/Src/stm32l4xx_hal_pwr.c ****   */
  36:Drivers/STM32L4xx_HAL_Driver/Src/stm32l4xx_hal_pwr.c **** 
  37:Drivers/STM32L4xx_HAL_Driver/Src/stm32l4xx_hal_pwr.c **** #ifdef HAL_PWR_MODULE_ENABLED
  38:Drivers/STM32L4xx_HAL_Driver/Src/stm32l4xx_hal_pwr.c **** 
  39:Drivers/STM32L4xx_HAL_Driver/Src/stm32l4xx_hal_pwr.c **** /* Private typedef -----------------------------------------------------------*/
  40:Drivers/STM32L4xx_HAL_Driver/Src/stm32l4xx_hal_pwr.c **** /* Private define ------------------------------------------------------------*/
  41:Drivers/STM32L4xx_HAL_Driver/Src/stm32l4xx_hal_pwr.c **** 
  42:Drivers/STM32L4xx_HAL_Driver/Src/stm32l4xx_hal_pwr.c **** /** @defgroup PWR_Private_Defines PWR Private Defines
  43:Drivers/STM32L4xx_HAL_Driver/Src/stm32l4xx_hal_pwr.c ****   * @{
  44:Drivers/STM32L4xx_HAL_Driver/Src/stm32l4xx_hal_pwr.c ****   */
  45:Drivers/STM32L4xx_HAL_Driver/Src/stm32l4xx_hal_pwr.c **** 
  46:Drivers/STM32L4xx_HAL_Driver/Src/stm32l4xx_hal_pwr.c **** /** @defgroup PWR_PVD_Mode_Mask PWR PVD Mode Mask
  47:Drivers/STM32L4xx_HAL_Driver/Src/stm32l4xx_hal_pwr.c ****   * @{
  48:Drivers/STM32L4xx_HAL_Driver/Src/stm32l4xx_hal_pwr.c ****   */
  49:Drivers/STM32L4xx_HAL_Driver/Src/stm32l4xx_hal_pwr.c **** #define PVD_MODE_IT               ((uint32_t)0x00010000)  /*!< Mask for interruption yielded by PVD
  50:Drivers/STM32L4xx_HAL_Driver/Src/stm32l4xx_hal_pwr.c **** #define PVD_MODE_EVT              ((uint32_t)0x00020000)  /*!< Mask for event yielded by PVD thresh
  51:Drivers/STM32L4xx_HAL_Driver/Src/stm32l4xx_hal_pwr.c **** #define PVD_RISING_EDGE           ((uint32_t)0x00000001)  /*!< Mask for rising edge set as PVD trig
  52:Drivers/STM32L4xx_HAL_Driver/Src/stm32l4xx_hal_pwr.c **** #define PVD_FALLING_EDGE          ((uint32_t)0x00000002)  /*!< Mask for falling edge set as PVD tri
  53:Drivers/STM32L4xx_HAL_Driver/Src/stm32l4xx_hal_pwr.c **** /**
  54:Drivers/STM32L4xx_HAL_Driver/Src/stm32l4xx_hal_pwr.c ****   * @}
  55:Drivers/STM32L4xx_HAL_Driver/Src/stm32l4xx_hal_pwr.c ****   */
  56:Drivers/STM32L4xx_HAL_Driver/Src/stm32l4xx_hal_pwr.c **** 
  57:Drivers/STM32L4xx_HAL_Driver/Src/stm32l4xx_hal_pwr.c **** /**
  58:Drivers/STM32L4xx_HAL_Driver/Src/stm32l4xx_hal_pwr.c ****   * @}
  59:Drivers/STM32L4xx_HAL_Driver/Src/stm32l4xx_hal_pwr.c ****   */
  60:Drivers/STM32L4xx_HAL_Driver/Src/stm32l4xx_hal_pwr.c **** 
  61:Drivers/STM32L4xx_HAL_Driver/Src/stm32l4xx_hal_pwr.c **** /* Private macro -------------------------------------------------------------*/
  62:Drivers/STM32L4xx_HAL_Driver/Src/stm32l4xx_hal_pwr.c **** /* Private variables ---------------------------------------------------------*/
  63:Drivers/STM32L4xx_HAL_Driver/Src/stm32l4xx_hal_pwr.c **** /* Private function prototypes -----------------------------------------------*/
  64:Drivers/STM32L4xx_HAL_Driver/Src/stm32l4xx_hal_pwr.c **** /* Exported functions --------------------------------------------------------*/
  65:Drivers/STM32L4xx_HAL_Driver/Src/stm32l4xx_hal_pwr.c **** 
  66:Drivers/STM32L4xx_HAL_Driver/Src/stm32l4xx_hal_pwr.c **** /** @defgroup PWR_Exported_Functions PWR Exported Functions
  67:Drivers/STM32L4xx_HAL_Driver/Src/stm32l4xx_hal_pwr.c ****   * @{
  68:Drivers/STM32L4xx_HAL_Driver/Src/stm32l4xx_hal_pwr.c ****   */
  69:Drivers/STM32L4xx_HAL_Driver/Src/stm32l4xx_hal_pwr.c **** 
  70:Drivers/STM32L4xx_HAL_Driver/Src/stm32l4xx_hal_pwr.c **** /** @defgroup PWR_Exported_Functions_Group1 Initialization and de-initialization functions
  71:Drivers/STM32L4xx_HAL_Driver/Src/stm32l4xx_hal_pwr.c ****   *  @brief    Initialization and de-initialization functions
  72:Drivers/STM32L4xx_HAL_Driver/Src/stm32l4xx_hal_pwr.c ****   *
  73:Drivers/STM32L4xx_HAL_Driver/Src/stm32l4xx_hal_pwr.c **** @verbatim
  74:Drivers/STM32L4xx_HAL_Driver/Src/stm32l4xx_hal_pwr.c ****  ===============================================================================
  75:Drivers/STM32L4xx_HAL_Driver/Src/stm32l4xx_hal_pwr.c ****               ##### Initialization and de-initialization functions #####
  76:Drivers/STM32L4xx_HAL_Driver/Src/stm32l4xx_hal_pwr.c ****  ===============================================================================
  77:Drivers/STM32L4xx_HAL_Driver/Src/stm32l4xx_hal_pwr.c ****     [..]
  78:Drivers/STM32L4xx_HAL_Driver/Src/stm32l4xx_hal_pwr.c **** 
  79:Drivers/STM32L4xx_HAL_Driver/Src/stm32l4xx_hal_pwr.c **** @endverbatim
  80:Drivers/STM32L4xx_HAL_Driver/Src/stm32l4xx_hal_pwr.c ****   * @{
  81:Drivers/STM32L4xx_HAL_Driver/Src/stm32l4xx_hal_pwr.c ****   */
  82:Drivers/STM32L4xx_HAL_Driver/Src/stm32l4xx_hal_pwr.c **** 
  83:Drivers/STM32L4xx_HAL_Driver/Src/stm32l4xx_hal_pwr.c **** /**
  84:Drivers/STM32L4xx_HAL_Driver/Src/stm32l4xx_hal_pwr.c ****   * @brief Deinitialize the HAL PWR peripheral registers to their default reset values.
  85:Drivers/STM32L4xx_HAL_Driver/Src/stm32l4xx_hal_pwr.c ****   * @retval None
  86:Drivers/STM32L4xx_HAL_Driver/Src/stm32l4xx_hal_pwr.c ****   */
  87:Drivers/STM32L4xx_HAL_Driver/Src/stm32l4xx_hal_pwr.c **** void HAL_PWR_DeInit(void)
ARM GAS  C:\Users\andywei\AppData\Local\Temp\ccNhxarc.s 			page 3


  88:Drivers/STM32L4xx_HAL_Driver/Src/stm32l4xx_hal_pwr.c **** {
  29              		.loc 1 88 1 view -0
  30              		.cfi_startproc
  31              		@ args = 0, pretend = 0, frame = 0
  32              		@ frame_needed = 0, uses_anonymous_args = 0
  33              		@ link register save eliminated.
  89:Drivers/STM32L4xx_HAL_Driver/Src/stm32l4xx_hal_pwr.c ****   __HAL_RCC_PWR_FORCE_RESET();
  34              		.loc 1 89 3 view .LVU1
  35 0000 044B     		ldr	r3, .L2
  36 0002 9A6B     		ldr	r2, [r3, #56]
  37 0004 42F08052 		orr	r2, r2, #268435456
  38 0008 9A63     		str	r2, [r3, #56]
  90:Drivers/STM32L4xx_HAL_Driver/Src/stm32l4xx_hal_pwr.c ****   __HAL_RCC_PWR_RELEASE_RESET();
  39              		.loc 1 90 3 view .LVU2
  40 000a 9A6B     		ldr	r2, [r3, #56]
  41 000c 22F08052 		bic	r2, r2, #268435456
  42 0010 9A63     		str	r2, [r3, #56]
  91:Drivers/STM32L4xx_HAL_Driver/Src/stm32l4xx_hal_pwr.c **** }
  43              		.loc 1 91 1 is_stmt 0 view .LVU3
  44 0012 7047     		bx	lr
  45              	.L3:
  46              		.align	2
  47              	.L2:
  48 0014 00100240 		.word	1073876992
  49              		.cfi_endproc
  50              	.LFE132:
  52              		.section	.text.HAL_PWR_EnableBkUpAccess,"ax",%progbits
  53              		.align	1
  54              		.global	HAL_PWR_EnableBkUpAccess
  55              		.syntax unified
  56              		.thumb
  57              		.thumb_func
  58              		.fpu fpv4-sp-d16
  60              	HAL_PWR_EnableBkUpAccess:
  61              	.LFB133:
  92:Drivers/STM32L4xx_HAL_Driver/Src/stm32l4xx_hal_pwr.c **** 
  93:Drivers/STM32L4xx_HAL_Driver/Src/stm32l4xx_hal_pwr.c **** /**
  94:Drivers/STM32L4xx_HAL_Driver/Src/stm32l4xx_hal_pwr.c ****   * @brief Enable access to the backup domain
  95:Drivers/STM32L4xx_HAL_Driver/Src/stm32l4xx_hal_pwr.c ****   *        (RTC registers, RTC backup data registers).
  96:Drivers/STM32L4xx_HAL_Driver/Src/stm32l4xx_hal_pwr.c ****   * @note  After reset, the backup domain is protected against
  97:Drivers/STM32L4xx_HAL_Driver/Src/stm32l4xx_hal_pwr.c ****   *        possible unwanted write accesses.
  98:Drivers/STM32L4xx_HAL_Driver/Src/stm32l4xx_hal_pwr.c ****   * @note  RTCSEL that sets the RTC clock source selection is in the RTC back-up domain.
  99:Drivers/STM32L4xx_HAL_Driver/Src/stm32l4xx_hal_pwr.c ****   *        In order to set or modify the RTC clock, the backup domain access must be
 100:Drivers/STM32L4xx_HAL_Driver/Src/stm32l4xx_hal_pwr.c ****   *        disabled.
 101:Drivers/STM32L4xx_HAL_Driver/Src/stm32l4xx_hal_pwr.c ****   * @note  LSEON bit that switches on and off the LSE crystal belongs as well to the
 102:Drivers/STM32L4xx_HAL_Driver/Src/stm32l4xx_hal_pwr.c ****   *        back-up domain.
 103:Drivers/STM32L4xx_HAL_Driver/Src/stm32l4xx_hal_pwr.c ****   * @retval None
 104:Drivers/STM32L4xx_HAL_Driver/Src/stm32l4xx_hal_pwr.c ****   */
 105:Drivers/STM32L4xx_HAL_Driver/Src/stm32l4xx_hal_pwr.c **** void HAL_PWR_EnableBkUpAccess(void)
 106:Drivers/STM32L4xx_HAL_Driver/Src/stm32l4xx_hal_pwr.c **** {
  62              		.loc 1 106 1 is_stmt 1 view -0
  63              		.cfi_startproc
  64              		@ args = 0, pretend = 0, frame = 0
  65              		@ frame_needed = 0, uses_anonymous_args = 0
  66              		@ link register save eliminated.
 107:Drivers/STM32L4xx_HAL_Driver/Src/stm32l4xx_hal_pwr.c ****   SET_BIT(PWR->CR1, PWR_CR1_DBP);
  67              		.loc 1 107 3 view .LVU5
ARM GAS  C:\Users\andywei\AppData\Local\Temp\ccNhxarc.s 			page 4


  68 0000 024A     		ldr	r2, .L5
  69 0002 1368     		ldr	r3, [r2]
  70 0004 43F48073 		orr	r3, r3, #256
  71 0008 1360     		str	r3, [r2]
 108:Drivers/STM32L4xx_HAL_Driver/Src/stm32l4xx_hal_pwr.c **** }
  72              		.loc 1 108 1 is_stmt 0 view .LVU6
  73 000a 7047     		bx	lr
  74              	.L6:
  75              		.align	2
  76              	.L5:
  77 000c 00700040 		.word	1073770496
  78              		.cfi_endproc
  79              	.LFE133:
  81              		.section	.text.HAL_PWR_DisableBkUpAccess,"ax",%progbits
  82              		.align	1
  83              		.global	HAL_PWR_DisableBkUpAccess
  84              		.syntax unified
  85              		.thumb
  86              		.thumb_func
  87              		.fpu fpv4-sp-d16
  89              	HAL_PWR_DisableBkUpAccess:
  90              	.LFB134:
 109:Drivers/STM32L4xx_HAL_Driver/Src/stm32l4xx_hal_pwr.c **** 
 110:Drivers/STM32L4xx_HAL_Driver/Src/stm32l4xx_hal_pwr.c **** /**
 111:Drivers/STM32L4xx_HAL_Driver/Src/stm32l4xx_hal_pwr.c ****   * @brief Disable access to the backup domain
 112:Drivers/STM32L4xx_HAL_Driver/Src/stm32l4xx_hal_pwr.c ****   *        (RTC registers, RTC backup data registers).
 113:Drivers/STM32L4xx_HAL_Driver/Src/stm32l4xx_hal_pwr.c ****   * @retval None
 114:Drivers/STM32L4xx_HAL_Driver/Src/stm32l4xx_hal_pwr.c ****   */
 115:Drivers/STM32L4xx_HAL_Driver/Src/stm32l4xx_hal_pwr.c **** void HAL_PWR_DisableBkUpAccess(void)
 116:Drivers/STM32L4xx_HAL_Driver/Src/stm32l4xx_hal_pwr.c **** {
  91              		.loc 1 116 1 is_stmt 1 view -0
  92              		.cfi_startproc
  93              		@ args = 0, pretend = 0, frame = 0
  94              		@ frame_needed = 0, uses_anonymous_args = 0
  95              		@ link register save eliminated.
 117:Drivers/STM32L4xx_HAL_Driver/Src/stm32l4xx_hal_pwr.c ****   CLEAR_BIT(PWR->CR1, PWR_CR1_DBP);
  96              		.loc 1 117 3 view .LVU8
  97 0000 024A     		ldr	r2, .L8
  98 0002 1368     		ldr	r3, [r2]
  99 0004 23F48073 		bic	r3, r3, #256
 100 0008 1360     		str	r3, [r2]
 118:Drivers/STM32L4xx_HAL_Driver/Src/stm32l4xx_hal_pwr.c **** }
 101              		.loc 1 118 1 is_stmt 0 view .LVU9
 102 000a 7047     		bx	lr
 103              	.L9:
 104              		.align	2
 105              	.L8:
 106 000c 00700040 		.word	1073770496
 107              		.cfi_endproc
 108              	.LFE134:
 110              		.section	.rodata.HAL_PWR_ConfigPVD.str1.4,"aMS",%progbits,1
 111              		.align	2
 112              	.LC0:
 113 0000 44726976 		.ascii	"Drivers/STM32L4xx_HAL_Driver/Src/stm32l4xx_hal_pwr."
 113      6572732F 
 113      53544D33 
 113      324C3478 
ARM GAS  C:\Users\andywei\AppData\Local\Temp\ccNhxarc.s 			page 5


 113      785F4841 
 114 0033 6300     		.ascii	"c\000"
 115              		.section	.text.HAL_PWR_ConfigPVD,"ax",%progbits
 116              		.align	1
 117              		.global	HAL_PWR_ConfigPVD
 118              		.syntax unified
 119              		.thumb
 120              		.thumb_func
 121              		.fpu fpv4-sp-d16
 123              	HAL_PWR_ConfigPVD:
 124              	.LVL0:
 125              	.LFB135:
 119:Drivers/STM32L4xx_HAL_Driver/Src/stm32l4xx_hal_pwr.c **** 
 120:Drivers/STM32L4xx_HAL_Driver/Src/stm32l4xx_hal_pwr.c **** 
 121:Drivers/STM32L4xx_HAL_Driver/Src/stm32l4xx_hal_pwr.c **** 
 122:Drivers/STM32L4xx_HAL_Driver/Src/stm32l4xx_hal_pwr.c **** 
 123:Drivers/STM32L4xx_HAL_Driver/Src/stm32l4xx_hal_pwr.c **** /**
 124:Drivers/STM32L4xx_HAL_Driver/Src/stm32l4xx_hal_pwr.c ****   * @}
 125:Drivers/STM32L4xx_HAL_Driver/Src/stm32l4xx_hal_pwr.c ****   */
 126:Drivers/STM32L4xx_HAL_Driver/Src/stm32l4xx_hal_pwr.c **** 
 127:Drivers/STM32L4xx_HAL_Driver/Src/stm32l4xx_hal_pwr.c **** 
 128:Drivers/STM32L4xx_HAL_Driver/Src/stm32l4xx_hal_pwr.c **** 
 129:Drivers/STM32L4xx_HAL_Driver/Src/stm32l4xx_hal_pwr.c **** /** @defgroup PWR_Exported_Functions_Group2 Peripheral Control functions
 130:Drivers/STM32L4xx_HAL_Driver/Src/stm32l4xx_hal_pwr.c ****   *  @brief Low Power modes configuration functions
 131:Drivers/STM32L4xx_HAL_Driver/Src/stm32l4xx_hal_pwr.c ****   *
 132:Drivers/STM32L4xx_HAL_Driver/Src/stm32l4xx_hal_pwr.c **** @verbatim
 133:Drivers/STM32L4xx_HAL_Driver/Src/stm32l4xx_hal_pwr.c **** 
 134:Drivers/STM32L4xx_HAL_Driver/Src/stm32l4xx_hal_pwr.c ****  ===============================================================================
 135:Drivers/STM32L4xx_HAL_Driver/Src/stm32l4xx_hal_pwr.c ****                  ##### Peripheral Control functions #####
 136:Drivers/STM32L4xx_HAL_Driver/Src/stm32l4xx_hal_pwr.c ****  ===============================================================================
 137:Drivers/STM32L4xx_HAL_Driver/Src/stm32l4xx_hal_pwr.c **** 
 138:Drivers/STM32L4xx_HAL_Driver/Src/stm32l4xx_hal_pwr.c ****      [..]
 139:Drivers/STM32L4xx_HAL_Driver/Src/stm32l4xx_hal_pwr.c ****      *** PVD configuration ***
 140:Drivers/STM32L4xx_HAL_Driver/Src/stm32l4xx_hal_pwr.c ****     =========================
 141:Drivers/STM32L4xx_HAL_Driver/Src/stm32l4xx_hal_pwr.c ****     [..]
 142:Drivers/STM32L4xx_HAL_Driver/Src/stm32l4xx_hal_pwr.c ****       (+) The PVD is used to monitor the VDD power supply by comparing it to a
 143:Drivers/STM32L4xx_HAL_Driver/Src/stm32l4xx_hal_pwr.c ****           threshold selected by the PVD Level (PLS[2:0] bits in PWR_CR2 register).
 144:Drivers/STM32L4xx_HAL_Driver/Src/stm32l4xx_hal_pwr.c **** 
 145:Drivers/STM32L4xx_HAL_Driver/Src/stm32l4xx_hal_pwr.c ****       (+) PVDO flag is available to indicate if VDD/VDDA is higher or lower
 146:Drivers/STM32L4xx_HAL_Driver/Src/stm32l4xx_hal_pwr.c ****           than the PVD threshold. This event is internally connected to the EXTI
 147:Drivers/STM32L4xx_HAL_Driver/Src/stm32l4xx_hal_pwr.c ****           line16 and can generate an interrupt if enabled. This is done through
 148:Drivers/STM32L4xx_HAL_Driver/Src/stm32l4xx_hal_pwr.c ****           __HAL_PVD_EXTI_ENABLE_IT() macro.
 149:Drivers/STM32L4xx_HAL_Driver/Src/stm32l4xx_hal_pwr.c ****       (+) The PVD is stopped in Standby mode.
 150:Drivers/STM32L4xx_HAL_Driver/Src/stm32l4xx_hal_pwr.c **** 
 151:Drivers/STM32L4xx_HAL_Driver/Src/stm32l4xx_hal_pwr.c **** 
 152:Drivers/STM32L4xx_HAL_Driver/Src/stm32l4xx_hal_pwr.c ****     *** WakeUp pin configuration ***
 153:Drivers/STM32L4xx_HAL_Driver/Src/stm32l4xx_hal_pwr.c ****     ================================
 154:Drivers/STM32L4xx_HAL_Driver/Src/stm32l4xx_hal_pwr.c ****     [..]
 155:Drivers/STM32L4xx_HAL_Driver/Src/stm32l4xx_hal_pwr.c ****       (+) WakeUp pins are used to wakeup the system from Standby mode or Shutdown mode.
 156:Drivers/STM32L4xx_HAL_Driver/Src/stm32l4xx_hal_pwr.c ****           The polarity of these pins can be set to configure event detection on high
 157:Drivers/STM32L4xx_HAL_Driver/Src/stm32l4xx_hal_pwr.c ****           level (rising edge) or low level (falling edge).
 158:Drivers/STM32L4xx_HAL_Driver/Src/stm32l4xx_hal_pwr.c **** 
 159:Drivers/STM32L4xx_HAL_Driver/Src/stm32l4xx_hal_pwr.c **** 
 160:Drivers/STM32L4xx_HAL_Driver/Src/stm32l4xx_hal_pwr.c **** 
 161:Drivers/STM32L4xx_HAL_Driver/Src/stm32l4xx_hal_pwr.c ****     *** Low Power modes configuration ***
 162:Drivers/STM32L4xx_HAL_Driver/Src/stm32l4xx_hal_pwr.c ****     =====================================
 163:Drivers/STM32L4xx_HAL_Driver/Src/stm32l4xx_hal_pwr.c ****     [..]
ARM GAS  C:\Users\andywei\AppData\Local\Temp\ccNhxarc.s 			page 6


 164:Drivers/STM32L4xx_HAL_Driver/Src/stm32l4xx_hal_pwr.c ****       The devices feature 8 low-power modes:
 165:Drivers/STM32L4xx_HAL_Driver/Src/stm32l4xx_hal_pwr.c ****       (+) Low-power Run mode: core and peripherals are running, main regulator off, low power regul
 166:Drivers/STM32L4xx_HAL_Driver/Src/stm32l4xx_hal_pwr.c ****       (+) Sleep mode: Cortex-M4 core stopped, peripherals kept running, main and low power regulato
 167:Drivers/STM32L4xx_HAL_Driver/Src/stm32l4xx_hal_pwr.c ****       (+) Low-power Sleep mode: Cortex-M4 core stopped, peripherals kept running, main regulator of
 168:Drivers/STM32L4xx_HAL_Driver/Src/stm32l4xx_hal_pwr.c ****       (+) Stop 0 mode: all clocks are stopped except LSI and LSE, main and low power regulators on.
 169:Drivers/STM32L4xx_HAL_Driver/Src/stm32l4xx_hal_pwr.c ****       (+) Stop 1 mode: all clocks are stopped except LSI and LSE, main regulator off, low power reg
 170:Drivers/STM32L4xx_HAL_Driver/Src/stm32l4xx_hal_pwr.c ****       (+) Stop 2 mode: all clocks are stopped except LSI and LSE, main regulator off, low power reg
 171:Drivers/STM32L4xx_HAL_Driver/Src/stm32l4xx_hal_pwr.c ****       (+) Standby mode with SRAM2: all clocks are stopped except LSI and LSE, SRAM2 content preserv
 172:Drivers/STM32L4xx_HAL_Driver/Src/stm32l4xx_hal_pwr.c ****       (+) Standby mode without SRAM2: all clocks are stopped except LSI and LSE, main and low power
 173:Drivers/STM32L4xx_HAL_Driver/Src/stm32l4xx_hal_pwr.c ****       (+) Shutdown mode: all clocks are stopped except LSE, main and low power regulators off.
 174:Drivers/STM32L4xx_HAL_Driver/Src/stm32l4xx_hal_pwr.c **** 
 175:Drivers/STM32L4xx_HAL_Driver/Src/stm32l4xx_hal_pwr.c **** 
 176:Drivers/STM32L4xx_HAL_Driver/Src/stm32l4xx_hal_pwr.c ****    *** Low-power run mode ***
 177:Drivers/STM32L4xx_HAL_Driver/Src/stm32l4xx_hal_pwr.c ****    ==========================
 178:Drivers/STM32L4xx_HAL_Driver/Src/stm32l4xx_hal_pwr.c ****     [..]
 179:Drivers/STM32L4xx_HAL_Driver/Src/stm32l4xx_hal_pwr.c ****       (+) Entry: (from main run mode)
 180:Drivers/STM32L4xx_HAL_Driver/Src/stm32l4xx_hal_pwr.c ****         (++) set LPR bit with HAL_PWREx_EnableLowPowerRunMode() API after having decreased the syst
 181:Drivers/STM32L4xx_HAL_Driver/Src/stm32l4xx_hal_pwr.c **** 
 182:Drivers/STM32L4xx_HAL_Driver/Src/stm32l4xx_hal_pwr.c ****       (+) Exit:
 183:Drivers/STM32L4xx_HAL_Driver/Src/stm32l4xx_hal_pwr.c ****         (++) clear LPR bit then wait for REGLP bit to be reset with HAL_PWREx_DisableLowPowerRunMod
 184:Drivers/STM32L4xx_HAL_Driver/Src/stm32l4xx_hal_pwr.c ****              then can the system clock frequency be increased above 2 MHz.
 185:Drivers/STM32L4xx_HAL_Driver/Src/stm32l4xx_hal_pwr.c **** 
 186:Drivers/STM32L4xx_HAL_Driver/Src/stm32l4xx_hal_pwr.c **** 
 187:Drivers/STM32L4xx_HAL_Driver/Src/stm32l4xx_hal_pwr.c ****    *** Sleep mode / Low-power sleep mode ***
 188:Drivers/STM32L4xx_HAL_Driver/Src/stm32l4xx_hal_pwr.c ****    =========================================
 189:Drivers/STM32L4xx_HAL_Driver/Src/stm32l4xx_hal_pwr.c ****     [..]
 190:Drivers/STM32L4xx_HAL_Driver/Src/stm32l4xx_hal_pwr.c ****       (+) Entry:
 191:Drivers/STM32L4xx_HAL_Driver/Src/stm32l4xx_hal_pwr.c ****           The Sleep mode / Low-power Sleep mode is entered thru HAL_PWR_EnterSLEEPMode() API
 192:Drivers/STM32L4xx_HAL_Driver/Src/stm32l4xx_hal_pwr.c ****           in specifying whether or not the regulator is forced to low-power mode and if exit is int
 193:Drivers/STM32L4xx_HAL_Driver/Src/stm32l4xx_hal_pwr.c ****           (++) PWR_MAINREGULATOR_ON: Sleep mode (regulator in main mode).
 194:Drivers/STM32L4xx_HAL_Driver/Src/stm32l4xx_hal_pwr.c ****           (++) PWR_LOWPOWERREGULATOR_ON: Low-power sleep (regulator in low power mode).
 195:Drivers/STM32L4xx_HAL_Driver/Src/stm32l4xx_hal_pwr.c ****           In the latter case, the system clock frequency must have been decreased below 2 MHz befor
 196:Drivers/STM32L4xx_HAL_Driver/Src/stm32l4xx_hal_pwr.c ****           (++) PWR_SLEEPENTRY_WFI: enter SLEEP mode with WFI instruction
 197:Drivers/STM32L4xx_HAL_Driver/Src/stm32l4xx_hal_pwr.c ****           (++) PWR_SLEEPENTRY_WFE: enter SLEEP mode with WFE instruction
 198:Drivers/STM32L4xx_HAL_Driver/Src/stm32l4xx_hal_pwr.c **** 
 199:Drivers/STM32L4xx_HAL_Driver/Src/stm32l4xx_hal_pwr.c ****       (+) WFI Exit:
 200:Drivers/STM32L4xx_HAL_Driver/Src/stm32l4xx_hal_pwr.c ****         (++) Any peripheral interrupt acknowledged by the nested vectored interrupt
 201:Drivers/STM32L4xx_HAL_Driver/Src/stm32l4xx_hal_pwr.c ****              controller (NVIC) or any wake-up event.
 202:Drivers/STM32L4xx_HAL_Driver/Src/stm32l4xx_hal_pwr.c **** 
 203:Drivers/STM32L4xx_HAL_Driver/Src/stm32l4xx_hal_pwr.c ****       (+) WFE Exit:
 204:Drivers/STM32L4xx_HAL_Driver/Src/stm32l4xx_hal_pwr.c ****         (++) Any wake-up event such as an EXTI line configured in event mode.
 205:Drivers/STM32L4xx_HAL_Driver/Src/stm32l4xx_hal_pwr.c **** 
 206:Drivers/STM32L4xx_HAL_Driver/Src/stm32l4xx_hal_pwr.c ****          [..] When exiting the Low-power sleep mode by issuing an interrupt or a wakeup event,
 207:Drivers/STM32L4xx_HAL_Driver/Src/stm32l4xx_hal_pwr.c ****              the MCU is in Low-power Run mode.
 208:Drivers/STM32L4xx_HAL_Driver/Src/stm32l4xx_hal_pwr.c **** 
 209:Drivers/STM32L4xx_HAL_Driver/Src/stm32l4xx_hal_pwr.c ****    *** Stop 0, Stop 1 and Stop 2 modes ***
 210:Drivers/STM32L4xx_HAL_Driver/Src/stm32l4xx_hal_pwr.c ****    ===============================
 211:Drivers/STM32L4xx_HAL_Driver/Src/stm32l4xx_hal_pwr.c ****     [..]
 212:Drivers/STM32L4xx_HAL_Driver/Src/stm32l4xx_hal_pwr.c ****       (+) Entry:
 213:Drivers/STM32L4xx_HAL_Driver/Src/stm32l4xx_hal_pwr.c ****           The Stop 0, Stop 1 or Stop 2 modes are entered thru the following API's:
 214:Drivers/STM32L4xx_HAL_Driver/Src/stm32l4xx_hal_pwr.c ****           (++) HAL_PWREx_EnterSTOP0Mode() for mode 0 or HAL_PWREx_EnterSTOP1Mode() for mode 1 or fo
 215:Drivers/STM32L4xx_HAL_Driver/Src/stm32l4xx_hal_pwr.c ****           (++) HAL_PWREx_EnterSTOP2Mode() for mode 2.
 216:Drivers/STM32L4xx_HAL_Driver/Src/stm32l4xx_hal_pwr.c ****       (+) Regulator setting (applicable to HAL_PWR_EnterSTOPMode() only):
 217:Drivers/STM32L4xx_HAL_Driver/Src/stm32l4xx_hal_pwr.c ****           (++) PWR_MAINREGULATOR_ON
 218:Drivers/STM32L4xx_HAL_Driver/Src/stm32l4xx_hal_pwr.c ****           (++) PWR_LOWPOWERREGULATOR_ON
 219:Drivers/STM32L4xx_HAL_Driver/Src/stm32l4xx_hal_pwr.c ****       (+) Exit (interrupt or event-triggered, specified when entering STOP mode):
 220:Drivers/STM32L4xx_HAL_Driver/Src/stm32l4xx_hal_pwr.c ****           (++) PWR_STOPENTRY_WFI: enter Stop mode with WFI instruction
ARM GAS  C:\Users\andywei\AppData\Local\Temp\ccNhxarc.s 			page 7


 221:Drivers/STM32L4xx_HAL_Driver/Src/stm32l4xx_hal_pwr.c ****           (++) PWR_STOPENTRY_WFE: enter Stop mode with WFE instruction
 222:Drivers/STM32L4xx_HAL_Driver/Src/stm32l4xx_hal_pwr.c **** 
 223:Drivers/STM32L4xx_HAL_Driver/Src/stm32l4xx_hal_pwr.c ****       (+) WFI Exit:
 224:Drivers/STM32L4xx_HAL_Driver/Src/stm32l4xx_hal_pwr.c ****           (++) Any EXTI Line (Internal or External) configured in Interrupt mode.
 225:Drivers/STM32L4xx_HAL_Driver/Src/stm32l4xx_hal_pwr.c ****           (++) Some specific communication peripherals (USART, LPUART, I2C) interrupts
 226:Drivers/STM32L4xx_HAL_Driver/Src/stm32l4xx_hal_pwr.c ****                when programmed in wakeup mode.
 227:Drivers/STM32L4xx_HAL_Driver/Src/stm32l4xx_hal_pwr.c ****       (+) WFE Exit:
 228:Drivers/STM32L4xx_HAL_Driver/Src/stm32l4xx_hal_pwr.c ****           (++) Any EXTI Line (Internal or External) configured in Event mode.
 229:Drivers/STM32L4xx_HAL_Driver/Src/stm32l4xx_hal_pwr.c **** 
 230:Drivers/STM32L4xx_HAL_Driver/Src/stm32l4xx_hal_pwr.c ****        [..]
 231:Drivers/STM32L4xx_HAL_Driver/Src/stm32l4xx_hal_pwr.c ****           When exiting Stop 0 and Stop 1 modes, the MCU is either in Run mode or in Low-power Run m
 232:Drivers/STM32L4xx_HAL_Driver/Src/stm32l4xx_hal_pwr.c ****           depending on the LPR bit setting.
 233:Drivers/STM32L4xx_HAL_Driver/Src/stm32l4xx_hal_pwr.c ****           When exiting Stop 2 mode, the MCU is in Run mode.
 234:Drivers/STM32L4xx_HAL_Driver/Src/stm32l4xx_hal_pwr.c **** 
 235:Drivers/STM32L4xx_HAL_Driver/Src/stm32l4xx_hal_pwr.c ****    *** Standby mode ***
 236:Drivers/STM32L4xx_HAL_Driver/Src/stm32l4xx_hal_pwr.c ****    ====================
 237:Drivers/STM32L4xx_HAL_Driver/Src/stm32l4xx_hal_pwr.c ****      [..]
 238:Drivers/STM32L4xx_HAL_Driver/Src/stm32l4xx_hal_pwr.c ****       The Standby mode offers two options:
 239:Drivers/STM32L4xx_HAL_Driver/Src/stm32l4xx_hal_pwr.c ****       (+) option a) all clocks off except LSI and LSE, RRS bit set (keeps voltage regulator in low 
 240:Drivers/STM32L4xx_HAL_Driver/Src/stm32l4xx_hal_pwr.c ****         SRAM and registers contents are lost except for the SRAM2 content, the RTC registers, RTC b
 241:Drivers/STM32L4xx_HAL_Driver/Src/stm32l4xx_hal_pwr.c ****         and Standby circuitry.
 242:Drivers/STM32L4xx_HAL_Driver/Src/stm32l4xx_hal_pwr.c ****       (+) option b) all clocks off except LSI and LSE, RRS bit cleared (voltage regulator then disa
 243:Drivers/STM32L4xx_HAL_Driver/Src/stm32l4xx_hal_pwr.c ****         SRAM and register contents are lost except for the RTC registers, RTC backup registers
 244:Drivers/STM32L4xx_HAL_Driver/Src/stm32l4xx_hal_pwr.c ****         and Standby circuitry.
 245:Drivers/STM32L4xx_HAL_Driver/Src/stm32l4xx_hal_pwr.c **** 
 246:Drivers/STM32L4xx_HAL_Driver/Src/stm32l4xx_hal_pwr.c ****       (++) Entry:
 247:Drivers/STM32L4xx_HAL_Driver/Src/stm32l4xx_hal_pwr.c ****           (+++) The Standby mode is entered thru HAL_PWR_EnterSTANDBYMode() API.
 248:Drivers/STM32L4xx_HAL_Driver/Src/stm32l4xx_hal_pwr.c ****                 SRAM1 and register contents are lost except for registers in the Backup domain and
 249:Drivers/STM32L4xx_HAL_Driver/Src/stm32l4xx_hal_pwr.c ****                 Standby circuitry. SRAM2 content can be preserved if the bit RRS is set in PWR_CR3 
 250:Drivers/STM32L4xx_HAL_Driver/Src/stm32l4xx_hal_pwr.c ****                 To enable this feature, the user can resort to HAL_PWREx_EnableSRAM2ContentRetentio
 251:Drivers/STM32L4xx_HAL_Driver/Src/stm32l4xx_hal_pwr.c ****                 to set RRS bit.
 252:Drivers/STM32L4xx_HAL_Driver/Src/stm32l4xx_hal_pwr.c **** 
 253:Drivers/STM32L4xx_HAL_Driver/Src/stm32l4xx_hal_pwr.c ****       (++) Exit:
 254:Drivers/STM32L4xx_HAL_Driver/Src/stm32l4xx_hal_pwr.c ****           (+++) WKUP pin rising edge, RTC alarm or wakeup, tamper event, time-stamp event,
 255:Drivers/STM32L4xx_HAL_Driver/Src/stm32l4xx_hal_pwr.c ****                 external reset in NRST pin, IWDG reset.
 256:Drivers/STM32L4xx_HAL_Driver/Src/stm32l4xx_hal_pwr.c **** 
 257:Drivers/STM32L4xx_HAL_Driver/Src/stm32l4xx_hal_pwr.c ****       [..]    After waking up from Standby mode, program execution restarts in the same way as afte
 258:Drivers/STM32L4xx_HAL_Driver/Src/stm32l4xx_hal_pwr.c **** 
 259:Drivers/STM32L4xx_HAL_Driver/Src/stm32l4xx_hal_pwr.c **** 
 260:Drivers/STM32L4xx_HAL_Driver/Src/stm32l4xx_hal_pwr.c ****     *** Shutdown mode ***
 261:Drivers/STM32L4xx_HAL_Driver/Src/stm32l4xx_hal_pwr.c ****    ======================
 262:Drivers/STM32L4xx_HAL_Driver/Src/stm32l4xx_hal_pwr.c ****      [..]
 263:Drivers/STM32L4xx_HAL_Driver/Src/stm32l4xx_hal_pwr.c ****       In Shutdown mode,
 264:Drivers/STM32L4xx_HAL_Driver/Src/stm32l4xx_hal_pwr.c ****         voltage regulator is disabled, all clocks are off except LSE, RRS bit is cleared.
 265:Drivers/STM32L4xx_HAL_Driver/Src/stm32l4xx_hal_pwr.c ****         SRAM and registers contents are lost except for backup domain registers.
 266:Drivers/STM32L4xx_HAL_Driver/Src/stm32l4xx_hal_pwr.c **** 
 267:Drivers/STM32L4xx_HAL_Driver/Src/stm32l4xx_hal_pwr.c ****       (+) Entry:
 268:Drivers/STM32L4xx_HAL_Driver/Src/stm32l4xx_hal_pwr.c ****           The Shutdown mode is entered thru HAL_PWREx_EnterSHUTDOWNMode() API.
 269:Drivers/STM32L4xx_HAL_Driver/Src/stm32l4xx_hal_pwr.c **** 
 270:Drivers/STM32L4xx_HAL_Driver/Src/stm32l4xx_hal_pwr.c ****       (+) Exit:
 271:Drivers/STM32L4xx_HAL_Driver/Src/stm32l4xx_hal_pwr.c ****           (++) WKUP pin rising edge, RTC alarm or wakeup, tamper event, time-stamp event,
 272:Drivers/STM32L4xx_HAL_Driver/Src/stm32l4xx_hal_pwr.c ****                external reset in NRST pin.
 273:Drivers/STM32L4xx_HAL_Driver/Src/stm32l4xx_hal_pwr.c **** 
 274:Drivers/STM32L4xx_HAL_Driver/Src/stm32l4xx_hal_pwr.c ****          [..] After waking up from Shutdown mode, program execution restarts in the same way as aft
 275:Drivers/STM32L4xx_HAL_Driver/Src/stm32l4xx_hal_pwr.c **** 
 276:Drivers/STM32L4xx_HAL_Driver/Src/stm32l4xx_hal_pwr.c **** 
 277:Drivers/STM32L4xx_HAL_Driver/Src/stm32l4xx_hal_pwr.c ****    *** Auto-wakeup (AWU) from low-power mode ***
ARM GAS  C:\Users\andywei\AppData\Local\Temp\ccNhxarc.s 			page 8


 278:Drivers/STM32L4xx_HAL_Driver/Src/stm32l4xx_hal_pwr.c ****    =============================================
 279:Drivers/STM32L4xx_HAL_Driver/Src/stm32l4xx_hal_pwr.c ****     [..]
 280:Drivers/STM32L4xx_HAL_Driver/Src/stm32l4xx_hal_pwr.c ****       The MCU can be woken up from low-power mode by an RTC Alarm event, an RTC
 281:Drivers/STM32L4xx_HAL_Driver/Src/stm32l4xx_hal_pwr.c ****       Wakeup event, a tamper event or a time-stamp event, without depending on
 282:Drivers/STM32L4xx_HAL_Driver/Src/stm32l4xx_hal_pwr.c ****       an external interrupt (Auto-wakeup mode).
 283:Drivers/STM32L4xx_HAL_Driver/Src/stm32l4xx_hal_pwr.c **** 
 284:Drivers/STM32L4xx_HAL_Driver/Src/stm32l4xx_hal_pwr.c ****       (+) RTC auto-wakeup (AWU) from the Stop, Standby and Shutdown modes
 285:Drivers/STM32L4xx_HAL_Driver/Src/stm32l4xx_hal_pwr.c **** 
 286:Drivers/STM32L4xx_HAL_Driver/Src/stm32l4xx_hal_pwr.c **** 
 287:Drivers/STM32L4xx_HAL_Driver/Src/stm32l4xx_hal_pwr.c ****         (++) To wake up from the Stop mode with an RTC alarm event, it is necessary to
 288:Drivers/STM32L4xx_HAL_Driver/Src/stm32l4xx_hal_pwr.c ****              configure the RTC to generate the RTC alarm using the HAL_RTC_SetAlarm_IT() function.
 289:Drivers/STM32L4xx_HAL_Driver/Src/stm32l4xx_hal_pwr.c **** 
 290:Drivers/STM32L4xx_HAL_Driver/Src/stm32l4xx_hal_pwr.c ****         (++) To wake up from the Stop mode with an RTC Tamper or time stamp event, it
 291:Drivers/STM32L4xx_HAL_Driver/Src/stm32l4xx_hal_pwr.c ****              is necessary to configure the RTC to detect the tamper or time stamp event using the
 292:Drivers/STM32L4xx_HAL_Driver/Src/stm32l4xx_hal_pwr.c ****              HAL_RTCEx_SetTimeStamp_IT() or HAL_RTCEx_SetTamper_IT() functions.
 293:Drivers/STM32L4xx_HAL_Driver/Src/stm32l4xx_hal_pwr.c **** 
 294:Drivers/STM32L4xx_HAL_Driver/Src/stm32l4xx_hal_pwr.c ****         (++) To wake up from the Stop mode with an RTC WakeUp event, it is necessary to
 295:Drivers/STM32L4xx_HAL_Driver/Src/stm32l4xx_hal_pwr.c ****               configure the RTC to generate the RTC WakeUp event using the HAL_RTCEx_SetWakeUpTimer
 296:Drivers/STM32L4xx_HAL_Driver/Src/stm32l4xx_hal_pwr.c **** 
 297:Drivers/STM32L4xx_HAL_Driver/Src/stm32l4xx_hal_pwr.c **** @endverbatim
 298:Drivers/STM32L4xx_HAL_Driver/Src/stm32l4xx_hal_pwr.c ****   * @{
 299:Drivers/STM32L4xx_HAL_Driver/Src/stm32l4xx_hal_pwr.c ****   */
 300:Drivers/STM32L4xx_HAL_Driver/Src/stm32l4xx_hal_pwr.c **** 
 301:Drivers/STM32L4xx_HAL_Driver/Src/stm32l4xx_hal_pwr.c **** 
 302:Drivers/STM32L4xx_HAL_Driver/Src/stm32l4xx_hal_pwr.c **** 
 303:Drivers/STM32L4xx_HAL_Driver/Src/stm32l4xx_hal_pwr.c **** /**
 304:Drivers/STM32L4xx_HAL_Driver/Src/stm32l4xx_hal_pwr.c ****   * @brief Configure the voltage threshold detected by the Power Voltage Detector (PVD).
 305:Drivers/STM32L4xx_HAL_Driver/Src/stm32l4xx_hal_pwr.c ****   * @param sConfigPVD: pointer to a PWR_PVDTypeDef structure that contains the PVD
 306:Drivers/STM32L4xx_HAL_Driver/Src/stm32l4xx_hal_pwr.c ****   *        configuration information.
 307:Drivers/STM32L4xx_HAL_Driver/Src/stm32l4xx_hal_pwr.c ****   * @note Refer to the electrical characteristics of your device datasheet for
 308:Drivers/STM32L4xx_HAL_Driver/Src/stm32l4xx_hal_pwr.c ****   *         more details about the voltage thresholds corresponding to each
 309:Drivers/STM32L4xx_HAL_Driver/Src/stm32l4xx_hal_pwr.c ****   *         detection level.
 310:Drivers/STM32L4xx_HAL_Driver/Src/stm32l4xx_hal_pwr.c ****   * @retval None
 311:Drivers/STM32L4xx_HAL_Driver/Src/stm32l4xx_hal_pwr.c ****   */
 312:Drivers/STM32L4xx_HAL_Driver/Src/stm32l4xx_hal_pwr.c **** HAL_StatusTypeDef HAL_PWR_ConfigPVD(PWR_PVDTypeDef *sConfigPVD)
 313:Drivers/STM32L4xx_HAL_Driver/Src/stm32l4xx_hal_pwr.c **** {
 126              		.loc 1 313 1 is_stmt 1 view -0
 127              		.cfi_startproc
 128              		@ args = 0, pretend = 0, frame = 0
 129              		@ frame_needed = 0, uses_anonymous_args = 0
 130              		.loc 1 313 1 is_stmt 0 view .LVU11
 131 0000 10B5     		push	{r4, lr}
 132              	.LCFI0:
 133              		.cfi_def_cfa_offset 8
 134              		.cfi_offset 4, -8
 135              		.cfi_offset 14, -4
 136 0002 0446     		mov	r4, r0
 314:Drivers/STM32L4xx_HAL_Driver/Src/stm32l4xx_hal_pwr.c ****   /* Check the parameters */
 315:Drivers/STM32L4xx_HAL_Driver/Src/stm32l4xx_hal_pwr.c ****   assert_param(IS_PWR_PVD_LEVEL(sConfigPVD->PVDLevel));
 137              		.loc 1 315 3 is_stmt 1 view .LVU12
 138 0004 0368     		ldr	r3, [r0]
 139 0006 6BB1     		cbz	r3, .L11
 140              		.loc 1 315 3 is_stmt 0 discriminator 1 view .LVU13
 141 0008 022B     		cmp	r3, #2
 142 000a 0BD0     		beq	.L11
 143              		.loc 1 315 3 discriminator 2 view .LVU14
 144 000c 042B     		cmp	r3, #4
ARM GAS  C:\Users\andywei\AppData\Local\Temp\ccNhxarc.s 			page 9


 145 000e 09D0     		beq	.L11
 146              		.loc 1 315 3 discriminator 3 view .LVU15
 147 0010 062B     		cmp	r3, #6
 148 0012 07D0     		beq	.L11
 149              		.loc 1 315 3 discriminator 4 view .LVU16
 150 0014 082B     		cmp	r3, #8
 151 0016 05D0     		beq	.L11
 152              		.loc 1 315 3 discriminator 5 view .LVU17
 153 0018 0A2B     		cmp	r3, #10
 154 001a 03D0     		beq	.L11
 155              		.loc 1 315 3 discriminator 6 view .LVU18
 156 001c 0C2B     		cmp	r3, #12
 157 001e 01D0     		beq	.L11
 158              		.loc 1 315 3 discriminator 7 view .LVU19
 159 0020 0E2B     		cmp	r3, #14
 160 0022 51D1     		bne	.L18
 161              	.LVL1:
 162              	.L11:
 316:Drivers/STM32L4xx_HAL_Driver/Src/stm32l4xx_hal_pwr.c ****   assert_param(IS_PWR_PVD_MODE(sConfigPVD->Mode));
 163              		.loc 1 316 3 is_stmt 1 view .LVU20
 164 0024 6368     		ldr	r3, [r4, #4]
 165 0026 8BB1     		cbz	r3, .L12
 166              		.loc 1 316 3 is_stmt 0 discriminator 1 view .LVU21
 167 0028 B3F1011F 		cmp	r3, #65537
 168 002c 0ED0     		beq	.L12
 169              		.loc 1 316 3 discriminator 2 view .LVU22
 170 002e 2C4A     		ldr	r2, .L20
 171 0030 9342     		cmp	r3, r2
 172 0032 0BD0     		beq	.L12
 173              		.loc 1 316 3 discriminator 3 view .LVU23
 174 0034 0132     		adds	r2, r2, #1
 175 0036 9342     		cmp	r3, r2
 176 0038 08D0     		beq	.L12
 177              		.loc 1 316 3 discriminator 4 view .LVU24
 178 003a 2A4A     		ldr	r2, .L20+4
 179 003c 9342     		cmp	r3, r2
 180 003e 05D0     		beq	.L12
 181              		.loc 1 316 3 discriminator 5 view .LVU25
 182 0040 B3F1021F 		cmp	r3, #131074
 183 0044 02D0     		beq	.L12
 184              		.loc 1 316 3 discriminator 6 view .LVU26
 185 0046 0232     		adds	r2, r2, #2
 186 0048 9342     		cmp	r3, r2
 187 004a 43D1     		bne	.L19
 188              	.L12:
 317:Drivers/STM32L4xx_HAL_Driver/Src/stm32l4xx_hal_pwr.c **** 
 318:Drivers/STM32L4xx_HAL_Driver/Src/stm32l4xx_hal_pwr.c ****   /* Set PLS bits according to PVDLevel value */
 319:Drivers/STM32L4xx_HAL_Driver/Src/stm32l4xx_hal_pwr.c ****   MODIFY_REG(PWR->CR2, PWR_CR2_PLS, sConfigPVD->PVDLevel);
 189              		.loc 1 319 3 is_stmt 1 view .LVU27
 190 004c 264A     		ldr	r2, .L20+8
 191 004e 5368     		ldr	r3, [r2, #4]
 192 0050 23F00E03 		bic	r3, r3, #14
 193 0054 2168     		ldr	r1, [r4]
 194 0056 0B43     		orrs	r3, r3, r1
 195 0058 5360     		str	r3, [r2, #4]
 320:Drivers/STM32L4xx_HAL_Driver/Src/stm32l4xx_hal_pwr.c **** 
 321:Drivers/STM32L4xx_HAL_Driver/Src/stm32l4xx_hal_pwr.c ****   /* Clear any previous config. Keep it clear if no event or IT mode is selected */
ARM GAS  C:\Users\andywei\AppData\Local\Temp\ccNhxarc.s 			page 10


 322:Drivers/STM32L4xx_HAL_Driver/Src/stm32l4xx_hal_pwr.c ****   __HAL_PWR_PVD_EXTI_DISABLE_EVENT();
 196              		.loc 1 322 3 view .LVU28
 197 005a 244B     		ldr	r3, .L20+12
 198 005c 5A68     		ldr	r2, [r3, #4]
 199 005e 22F48032 		bic	r2, r2, #65536
 200 0062 5A60     		str	r2, [r3, #4]
 323:Drivers/STM32L4xx_HAL_Driver/Src/stm32l4xx_hal_pwr.c ****   __HAL_PWR_PVD_EXTI_DISABLE_IT();
 201              		.loc 1 323 3 view .LVU29
 202 0064 1A68     		ldr	r2, [r3]
 203 0066 22F48032 		bic	r2, r2, #65536
 204 006a 1A60     		str	r2, [r3]
 324:Drivers/STM32L4xx_HAL_Driver/Src/stm32l4xx_hal_pwr.c ****   __HAL_PWR_PVD_EXTI_DISABLE_FALLING_EDGE();
 205              		.loc 1 324 3 view .LVU30
 206 006c DA68     		ldr	r2, [r3, #12]
 207 006e 22F48032 		bic	r2, r2, #65536
 208 0072 DA60     		str	r2, [r3, #12]
 325:Drivers/STM32L4xx_HAL_Driver/Src/stm32l4xx_hal_pwr.c ****   __HAL_PWR_PVD_EXTI_DISABLE_RISING_EDGE();
 209              		.loc 1 325 3 view .LVU31
 210 0074 9A68     		ldr	r2, [r3, #8]
 211 0076 22F48032 		bic	r2, r2, #65536
 212 007a 9A60     		str	r2, [r3, #8]
 326:Drivers/STM32L4xx_HAL_Driver/Src/stm32l4xx_hal_pwr.c **** 
 327:Drivers/STM32L4xx_HAL_Driver/Src/stm32l4xx_hal_pwr.c ****   /* Configure interrupt mode */
 328:Drivers/STM32L4xx_HAL_Driver/Src/stm32l4xx_hal_pwr.c ****   if((sConfigPVD->Mode & PVD_MODE_IT) == PVD_MODE_IT)
 213              		.loc 1 328 3 view .LVU32
 214              		.loc 1 328 17 is_stmt 0 view .LVU33
 215 007c 6368     		ldr	r3, [r4, #4]
 216              		.loc 1 328 5 view .LVU34
 217 007e 13F4803F 		tst	r3, #65536
 218 0082 04D0     		beq	.L13
 329:Drivers/STM32L4xx_HAL_Driver/Src/stm32l4xx_hal_pwr.c ****   {
 330:Drivers/STM32L4xx_HAL_Driver/Src/stm32l4xx_hal_pwr.c ****     __HAL_PWR_PVD_EXTI_ENABLE_IT();
 219              		.loc 1 330 5 is_stmt 1 view .LVU35
 220 0084 194A     		ldr	r2, .L20+12
 221 0086 1368     		ldr	r3, [r2]
 222 0088 43F48033 		orr	r3, r3, #65536
 223 008c 1360     		str	r3, [r2]
 224              	.L13:
 331:Drivers/STM32L4xx_HAL_Driver/Src/stm32l4xx_hal_pwr.c ****   }
 332:Drivers/STM32L4xx_HAL_Driver/Src/stm32l4xx_hal_pwr.c **** 
 333:Drivers/STM32L4xx_HAL_Driver/Src/stm32l4xx_hal_pwr.c ****   /* Configure event mode */
 334:Drivers/STM32L4xx_HAL_Driver/Src/stm32l4xx_hal_pwr.c ****   if((sConfigPVD->Mode & PVD_MODE_EVT) == PVD_MODE_EVT)
 225              		.loc 1 334 3 view .LVU36
 226              		.loc 1 334 17 is_stmt 0 view .LVU37
 227 008e 6368     		ldr	r3, [r4, #4]
 228              		.loc 1 334 5 view .LVU38
 229 0090 13F4003F 		tst	r3, #131072
 230 0094 04D0     		beq	.L14
 335:Drivers/STM32L4xx_HAL_Driver/Src/stm32l4xx_hal_pwr.c ****   {
 336:Drivers/STM32L4xx_HAL_Driver/Src/stm32l4xx_hal_pwr.c ****     __HAL_PWR_PVD_EXTI_ENABLE_EVENT();
 231              		.loc 1 336 5 is_stmt 1 view .LVU39
 232 0096 154A     		ldr	r2, .L20+12
 233 0098 5368     		ldr	r3, [r2, #4]
 234 009a 43F48033 		orr	r3, r3, #65536
 235 009e 5360     		str	r3, [r2, #4]
 236              	.L14:
 337:Drivers/STM32L4xx_HAL_Driver/Src/stm32l4xx_hal_pwr.c ****   }
ARM GAS  C:\Users\andywei\AppData\Local\Temp\ccNhxarc.s 			page 11


 338:Drivers/STM32L4xx_HAL_Driver/Src/stm32l4xx_hal_pwr.c **** 
 339:Drivers/STM32L4xx_HAL_Driver/Src/stm32l4xx_hal_pwr.c ****   /* Configure the edge */
 340:Drivers/STM32L4xx_HAL_Driver/Src/stm32l4xx_hal_pwr.c ****   if((sConfigPVD->Mode & PVD_RISING_EDGE) == PVD_RISING_EDGE)
 237              		.loc 1 340 3 view .LVU40
 238              		.loc 1 340 17 is_stmt 0 view .LVU41
 239 00a0 6368     		ldr	r3, [r4, #4]
 240              		.loc 1 340 5 view .LVU42
 241 00a2 13F0010F 		tst	r3, #1
 242 00a6 04D0     		beq	.L15
 341:Drivers/STM32L4xx_HAL_Driver/Src/stm32l4xx_hal_pwr.c ****   {
 342:Drivers/STM32L4xx_HAL_Driver/Src/stm32l4xx_hal_pwr.c ****     __HAL_PWR_PVD_EXTI_ENABLE_RISING_EDGE();
 243              		.loc 1 342 5 is_stmt 1 view .LVU43
 244 00a8 104A     		ldr	r2, .L20+12
 245 00aa 9368     		ldr	r3, [r2, #8]
 246 00ac 43F48033 		orr	r3, r3, #65536
 247 00b0 9360     		str	r3, [r2, #8]
 248              	.L15:
 343:Drivers/STM32L4xx_HAL_Driver/Src/stm32l4xx_hal_pwr.c ****   }
 344:Drivers/STM32L4xx_HAL_Driver/Src/stm32l4xx_hal_pwr.c **** 
 345:Drivers/STM32L4xx_HAL_Driver/Src/stm32l4xx_hal_pwr.c ****   if((sConfigPVD->Mode & PVD_FALLING_EDGE) == PVD_FALLING_EDGE)
 249              		.loc 1 345 3 view .LVU44
 250              		.loc 1 345 17 is_stmt 0 view .LVU45
 251 00b2 6368     		ldr	r3, [r4, #4]
 252              		.loc 1 345 5 view .LVU46
 253 00b4 13F0020F 		tst	r3, #2
 254 00b8 04D0     		beq	.L16
 346:Drivers/STM32L4xx_HAL_Driver/Src/stm32l4xx_hal_pwr.c ****   {
 347:Drivers/STM32L4xx_HAL_Driver/Src/stm32l4xx_hal_pwr.c ****     __HAL_PWR_PVD_EXTI_ENABLE_FALLING_EDGE();
 255              		.loc 1 347 5 is_stmt 1 view .LVU47
 256 00ba 0C4A     		ldr	r2, .L20+12
 257 00bc D368     		ldr	r3, [r2, #12]
 258 00be 43F48033 		orr	r3, r3, #65536
 259 00c2 D360     		str	r3, [r2, #12]
 260              	.L16:
 348:Drivers/STM32L4xx_HAL_Driver/Src/stm32l4xx_hal_pwr.c ****   }
 349:Drivers/STM32L4xx_HAL_Driver/Src/stm32l4xx_hal_pwr.c **** 
 350:Drivers/STM32L4xx_HAL_Driver/Src/stm32l4xx_hal_pwr.c ****   return HAL_OK;
 261              		.loc 1 350 3 view .LVU48
 351:Drivers/STM32L4xx_HAL_Driver/Src/stm32l4xx_hal_pwr.c **** }
 262              		.loc 1 351 1 is_stmt 0 view .LVU49
 263 00c4 0020     		movs	r0, #0
 264 00c6 10BD     		pop	{r4, pc}
 265              	.LVL2:
 266              	.L18:
 315:Drivers/STM32L4xx_HAL_Driver/Src/stm32l4xx_hal_pwr.c ****   assert_param(IS_PWR_PVD_MODE(sConfigPVD->Mode));
 267              		.loc 1 315 3 discriminator 8 view .LVU50
 268 00c8 40F23B11 		movw	r1, #315
 269 00cc 0848     		ldr	r0, .L20+16
 270              	.LVL3:
 315:Drivers/STM32L4xx_HAL_Driver/Src/stm32l4xx_hal_pwr.c ****   assert_param(IS_PWR_PVD_MODE(sConfigPVD->Mode));
 271              		.loc 1 315 3 discriminator 8 view .LVU51
 272 00ce FFF7FEFF 		bl	assert_failed
 273              	.LVL4:
 274 00d2 A7E7     		b	.L11
 275              	.L19:
 316:Drivers/STM32L4xx_HAL_Driver/Src/stm32l4xx_hal_pwr.c **** 
 276              		.loc 1 316 3 discriminator 7 view .LVU52
ARM GAS  C:\Users\andywei\AppData\Local\Temp\ccNhxarc.s 			page 12


 277 00d4 4FF49E71 		mov	r1, #316
 278 00d8 0548     		ldr	r0, .L20+16
 279 00da FFF7FEFF 		bl	assert_failed
 280              	.LVL5:
 281 00de B5E7     		b	.L12
 282              	.L21:
 283              		.align	2
 284              	.L20:
 285 00e0 02000100 		.word	65538
 286 00e4 01000200 		.word	131073
 287 00e8 00700040 		.word	1073770496
 288 00ec 00040140 		.word	1073808384
 289 00f0 00000000 		.word	.LC0
 290              		.cfi_endproc
 291              	.LFE135:
 293              		.section	.text.HAL_PWR_EnablePVD,"ax",%progbits
 294              		.align	1
 295              		.global	HAL_PWR_EnablePVD
 296              		.syntax unified
 297              		.thumb
 298              		.thumb_func
 299              		.fpu fpv4-sp-d16
 301              	HAL_PWR_EnablePVD:
 302              	.LFB136:
 352:Drivers/STM32L4xx_HAL_Driver/Src/stm32l4xx_hal_pwr.c **** 
 353:Drivers/STM32L4xx_HAL_Driver/Src/stm32l4xx_hal_pwr.c **** 
 354:Drivers/STM32L4xx_HAL_Driver/Src/stm32l4xx_hal_pwr.c **** /**
 355:Drivers/STM32L4xx_HAL_Driver/Src/stm32l4xx_hal_pwr.c ****   * @brief Enable the Power Voltage Detector (PVD).
 356:Drivers/STM32L4xx_HAL_Driver/Src/stm32l4xx_hal_pwr.c ****   * @retval None
 357:Drivers/STM32L4xx_HAL_Driver/Src/stm32l4xx_hal_pwr.c ****   */
 358:Drivers/STM32L4xx_HAL_Driver/Src/stm32l4xx_hal_pwr.c **** void HAL_PWR_EnablePVD(void)
 359:Drivers/STM32L4xx_HAL_Driver/Src/stm32l4xx_hal_pwr.c **** {
 303              		.loc 1 359 1 is_stmt 1 view -0
 304              		.cfi_startproc
 305              		@ args = 0, pretend = 0, frame = 0
 306              		@ frame_needed = 0, uses_anonymous_args = 0
 307              		@ link register save eliminated.
 360:Drivers/STM32L4xx_HAL_Driver/Src/stm32l4xx_hal_pwr.c ****   SET_BIT(PWR->CR2, PWR_CR2_PVDE);
 308              		.loc 1 360 3 view .LVU54
 309 0000 024A     		ldr	r2, .L23
 310 0002 5368     		ldr	r3, [r2, #4]
 311 0004 43F00103 		orr	r3, r3, #1
 312 0008 5360     		str	r3, [r2, #4]
 361:Drivers/STM32L4xx_HAL_Driver/Src/stm32l4xx_hal_pwr.c **** }
 313              		.loc 1 361 1 is_stmt 0 view .LVU55
 314 000a 7047     		bx	lr
 315              	.L24:
 316              		.align	2
 317              	.L23:
 318 000c 00700040 		.word	1073770496
 319              		.cfi_endproc
 320              	.LFE136:
 322              		.section	.text.HAL_PWR_DisablePVD,"ax",%progbits
 323              		.align	1
 324              		.global	HAL_PWR_DisablePVD
 325              		.syntax unified
 326              		.thumb
ARM GAS  C:\Users\andywei\AppData\Local\Temp\ccNhxarc.s 			page 13


 327              		.thumb_func
 328              		.fpu fpv4-sp-d16
 330              	HAL_PWR_DisablePVD:
 331              	.LFB137:
 362:Drivers/STM32L4xx_HAL_Driver/Src/stm32l4xx_hal_pwr.c **** 
 363:Drivers/STM32L4xx_HAL_Driver/Src/stm32l4xx_hal_pwr.c **** /**
 364:Drivers/STM32L4xx_HAL_Driver/Src/stm32l4xx_hal_pwr.c ****   * @brief Disable the Power Voltage Detector (PVD).
 365:Drivers/STM32L4xx_HAL_Driver/Src/stm32l4xx_hal_pwr.c ****   * @retval None
 366:Drivers/STM32L4xx_HAL_Driver/Src/stm32l4xx_hal_pwr.c ****   */
 367:Drivers/STM32L4xx_HAL_Driver/Src/stm32l4xx_hal_pwr.c **** void HAL_PWR_DisablePVD(void)
 368:Drivers/STM32L4xx_HAL_Driver/Src/stm32l4xx_hal_pwr.c **** {
 332              		.loc 1 368 1 is_stmt 1 view -0
 333              		.cfi_startproc
 334              		@ args = 0, pretend = 0, frame = 0
 335              		@ frame_needed = 0, uses_anonymous_args = 0
 336              		@ link register save eliminated.
 369:Drivers/STM32L4xx_HAL_Driver/Src/stm32l4xx_hal_pwr.c ****   CLEAR_BIT(PWR->CR2, PWR_CR2_PVDE);
 337              		.loc 1 369 3 view .LVU57
 338 0000 024A     		ldr	r2, .L26
 339 0002 5368     		ldr	r3, [r2, #4]
 340 0004 23F00103 		bic	r3, r3, #1
 341 0008 5360     		str	r3, [r2, #4]
 370:Drivers/STM32L4xx_HAL_Driver/Src/stm32l4xx_hal_pwr.c **** }
 342              		.loc 1 370 1 is_stmt 0 view .LVU58
 343 000a 7047     		bx	lr
 344              	.L27:
 345              		.align	2
 346              	.L26:
 347 000c 00700040 		.word	1073770496
 348              		.cfi_endproc
 349              	.LFE137:
 351              		.section	.text.HAL_PWR_EnableWakeUpPin,"ax",%progbits
 352              		.align	1
 353              		.global	HAL_PWR_EnableWakeUpPin
 354              		.syntax unified
 355              		.thumb
 356              		.thumb_func
 357              		.fpu fpv4-sp-d16
 359              	HAL_PWR_EnableWakeUpPin:
 360              	.LVL6:
 361              	.LFB138:
 371:Drivers/STM32L4xx_HAL_Driver/Src/stm32l4xx_hal_pwr.c **** 
 372:Drivers/STM32L4xx_HAL_Driver/Src/stm32l4xx_hal_pwr.c **** 
 373:Drivers/STM32L4xx_HAL_Driver/Src/stm32l4xx_hal_pwr.c **** 
 374:Drivers/STM32L4xx_HAL_Driver/Src/stm32l4xx_hal_pwr.c **** 
 375:Drivers/STM32L4xx_HAL_Driver/Src/stm32l4xx_hal_pwr.c **** /**
 376:Drivers/STM32L4xx_HAL_Driver/Src/stm32l4xx_hal_pwr.c ****   * @brief Enable the WakeUp PINx functionality.
 377:Drivers/STM32L4xx_HAL_Driver/Src/stm32l4xx_hal_pwr.c ****   * @param WakeUpPinPolarity: Specifies which Wake-Up pin to enable.
 378:Drivers/STM32L4xx_HAL_Driver/Src/stm32l4xx_hal_pwr.c ****   *         This parameter can be one of the following legacy values which set the default polarity
 379:Drivers/STM32L4xx_HAL_Driver/Src/stm32l4xx_hal_pwr.c ****   *         i.e. detection on high level (rising edge):
 380:Drivers/STM32L4xx_HAL_Driver/Src/stm32l4xx_hal_pwr.c ****   *           @arg @ref PWR_WAKEUP_PIN1, PWR_WAKEUP_PIN2, PWR_WAKEUP_PIN3, PWR_WAKEUP_PIN4, PWR_WAK
 381:Drivers/STM32L4xx_HAL_Driver/Src/stm32l4xx_hal_pwr.c ****   *
 382:Drivers/STM32L4xx_HAL_Driver/Src/stm32l4xx_hal_pwr.c ****   *         or one of the following value where the user can explicitly specify the enabled pin and
 383:Drivers/STM32L4xx_HAL_Driver/Src/stm32l4xx_hal_pwr.c ****   *         the chosen polarity:
 384:Drivers/STM32L4xx_HAL_Driver/Src/stm32l4xx_hal_pwr.c ****   *           @arg @ref PWR_WAKEUP_PIN1_HIGH or PWR_WAKEUP_PIN1_LOW
 385:Drivers/STM32L4xx_HAL_Driver/Src/stm32l4xx_hal_pwr.c ****   *           @arg @ref PWR_WAKEUP_PIN2_HIGH or PWR_WAKEUP_PIN2_LOW
 386:Drivers/STM32L4xx_HAL_Driver/Src/stm32l4xx_hal_pwr.c ****   *           @arg @ref PWR_WAKEUP_PIN3_HIGH or PWR_WAKEUP_PIN3_LOW
ARM GAS  C:\Users\andywei\AppData\Local\Temp\ccNhxarc.s 			page 14


 387:Drivers/STM32L4xx_HAL_Driver/Src/stm32l4xx_hal_pwr.c ****   *           @arg @ref PWR_WAKEUP_PIN4_HIGH or PWR_WAKEUP_PIN4_LOW
 388:Drivers/STM32L4xx_HAL_Driver/Src/stm32l4xx_hal_pwr.c ****   *           @arg @ref PWR_WAKEUP_PIN5_HIGH or PWR_WAKEUP_PIN5_LOW
 389:Drivers/STM32L4xx_HAL_Driver/Src/stm32l4xx_hal_pwr.c ****   * @note  PWR_WAKEUP_PINx and PWR_WAKEUP_PINx_HIGH are equivalent.
 390:Drivers/STM32L4xx_HAL_Driver/Src/stm32l4xx_hal_pwr.c ****   * @retval None
 391:Drivers/STM32L4xx_HAL_Driver/Src/stm32l4xx_hal_pwr.c ****   */
 392:Drivers/STM32L4xx_HAL_Driver/Src/stm32l4xx_hal_pwr.c **** void HAL_PWR_EnableWakeUpPin(uint32_t WakeUpPinPolarity)
 393:Drivers/STM32L4xx_HAL_Driver/Src/stm32l4xx_hal_pwr.c **** {
 362              		.loc 1 393 1 is_stmt 1 view -0
 363              		.cfi_startproc
 364              		@ args = 0, pretend = 0, frame = 0
 365              		@ frame_needed = 0, uses_anonymous_args = 0
 366              		.loc 1 393 1 is_stmt 0 view .LVU60
 367 0000 10B5     		push	{r4, lr}
 368              	.LCFI1:
 369              		.cfi_def_cfa_offset 8
 370              		.cfi_offset 4, -8
 371              		.cfi_offset 14, -4
 372 0002 0446     		mov	r4, r0
 394:Drivers/STM32L4xx_HAL_Driver/Src/stm32l4xx_hal_pwr.c ****   assert_param(IS_PWR_WAKEUP_PIN(WakeUpPinPolarity));
 373              		.loc 1 394 3 is_stmt 1 view .LVU61
 374 0004 431E     		subs	r3, r0, #1
 375 0006 012B     		cmp	r3, #1
 376 0008 15D9     		bls	.L29
 377              		.loc 1 394 3 is_stmt 0 discriminator 1 view .LVU62
 378 000a 0428     		cmp	r0, #4
 379 000c 13D0     		beq	.L29
 380              		.loc 1 394 3 discriminator 2 view .LVU63
 381 000e 0828     		cmp	r0, #8
 382 0010 11D0     		beq	.L29
 383              		.loc 1 394 3 discriminator 3 view .LVU64
 384 0012 1028     		cmp	r0, #16
 385 0014 0FD0     		beq	.L29
 386              		.loc 1 394 3 discriminator 4 view .LVU65
 387 0016 0128     		cmp	r0, #1
 388 0018 0DD0     		beq	.L29
 389              		.loc 1 394 3 discriminator 5 view .LVU66
 390 001a 0228     		cmp	r0, #2
 391 001c 0BD0     		beq	.L29
 392              		.loc 1 394 3 discriminator 9 view .LVU67
 393 001e 2128     		cmp	r0, #33
 394 0020 09D0     		beq	.L29
 395              		.loc 1 394 3 discriminator 10 view .LVU68
 396 0022 4228     		cmp	r0, #66
 397 0024 07D0     		beq	.L29
 398              		.loc 1 394 3 discriminator 11 view .LVU69
 399 0026 8428     		cmp	r0, #132
 400 0028 05D0     		beq	.L29
 401              		.loc 1 394 3 discriminator 12 view .LVU70
 402 002a B0F5847F 		cmp	r0, #264
 403 002e 02D0     		beq	.L29
 404              		.loc 1 394 3 discriminator 13 view .LVU71
 405 0030 B0F5047F 		cmp	r0, #528
 406 0034 0CD1     		bne	.L31
 407              	.LVL7:
 408              	.L29:
 395:Drivers/STM32L4xx_HAL_Driver/Src/stm32l4xx_hal_pwr.c **** 
 396:Drivers/STM32L4xx_HAL_Driver/Src/stm32l4xx_hal_pwr.c ****   /* Specifies the Wake-Up pin polarity for the event detection
ARM GAS  C:\Users\andywei\AppData\Local\Temp\ccNhxarc.s 			page 15


 397:Drivers/STM32L4xx_HAL_Driver/Src/stm32l4xx_hal_pwr.c ****     (rising or falling edge) */
 398:Drivers/STM32L4xx_HAL_Driver/Src/stm32l4xx_hal_pwr.c ****   MODIFY_REG(PWR->CR4, (PWR_CR3_EWUP & WakeUpPinPolarity), (WakeUpPinPolarity >> PWR_WUP_POLARITY_S
 409              		.loc 1 398 3 is_stmt 1 view .LVU72
 410 0036 094B     		ldr	r3, .L32
 411 0038 D868     		ldr	r0, [r3, #12]
 412 003a 04F01F02 		and	r2, r4, #31
 413 003e 20EA0200 		bic	r0, r0, r2
 414 0042 40EA5414 		orr	r4, r0, r4, lsr #5
 415              	.LVL8:
 416              		.loc 1 398 3 is_stmt 0 view .LVU73
 417 0046 DC60     		str	r4, [r3, #12]
 399:Drivers/STM32L4xx_HAL_Driver/Src/stm32l4xx_hal_pwr.c **** 
 400:Drivers/STM32L4xx_HAL_Driver/Src/stm32l4xx_hal_pwr.c ****   /* Enable wake-up pin */
 401:Drivers/STM32L4xx_HAL_Driver/Src/stm32l4xx_hal_pwr.c ****   SET_BIT(PWR->CR3, (PWR_CR3_EWUP & WakeUpPinPolarity));
 418              		.loc 1 401 3 is_stmt 1 view .LVU74
 419 0048 9968     		ldr	r1, [r3, #8]
 420 004a 0A43     		orrs	r2, r2, r1
 421 004c 9A60     		str	r2, [r3, #8]
 402:Drivers/STM32L4xx_HAL_Driver/Src/stm32l4xx_hal_pwr.c **** 
 403:Drivers/STM32L4xx_HAL_Driver/Src/stm32l4xx_hal_pwr.c **** 
 404:Drivers/STM32L4xx_HAL_Driver/Src/stm32l4xx_hal_pwr.c **** }
 422              		.loc 1 404 1 is_stmt 0 view .LVU75
 423 004e 10BD     		pop	{r4, pc}
 424              	.LVL9:
 425              	.L31:
 394:Drivers/STM32L4xx_HAL_Driver/Src/stm32l4xx_hal_pwr.c **** 
 426              		.loc 1 394 3 discriminator 14 view .LVU76
 427 0050 4FF4C571 		mov	r1, #394
 428 0054 0248     		ldr	r0, .L32+4
 429              	.LVL10:
 394:Drivers/STM32L4xx_HAL_Driver/Src/stm32l4xx_hal_pwr.c **** 
 430              		.loc 1 394 3 discriminator 14 view .LVU77
 431 0056 FFF7FEFF 		bl	assert_failed
 432              	.LVL11:
 433 005a ECE7     		b	.L29
 434              	.L33:
 435              		.align	2
 436              	.L32:
 437 005c 00700040 		.word	1073770496
 438 0060 00000000 		.word	.LC0
 439              		.cfi_endproc
 440              	.LFE138:
 442              		.section	.text.HAL_PWR_DisableWakeUpPin,"ax",%progbits
 443              		.align	1
 444              		.global	HAL_PWR_DisableWakeUpPin
 445              		.syntax unified
 446              		.thumb
 447              		.thumb_func
 448              		.fpu fpv4-sp-d16
 450              	HAL_PWR_DisableWakeUpPin:
 451              	.LVL12:
 452              	.LFB139:
 405:Drivers/STM32L4xx_HAL_Driver/Src/stm32l4xx_hal_pwr.c **** 
 406:Drivers/STM32L4xx_HAL_Driver/Src/stm32l4xx_hal_pwr.c **** /**
 407:Drivers/STM32L4xx_HAL_Driver/Src/stm32l4xx_hal_pwr.c ****   * @brief Disable the WakeUp PINx functionality.
 408:Drivers/STM32L4xx_HAL_Driver/Src/stm32l4xx_hal_pwr.c ****   * @param WakeUpPinx: Specifies the Power Wake-Up pin to disable.
 409:Drivers/STM32L4xx_HAL_Driver/Src/stm32l4xx_hal_pwr.c ****   *         This parameter can be one of the following values:
ARM GAS  C:\Users\andywei\AppData\Local\Temp\ccNhxarc.s 			page 16


 410:Drivers/STM32L4xx_HAL_Driver/Src/stm32l4xx_hal_pwr.c ****   *           @arg @ref PWR_WAKEUP_PIN1, PWR_WAKEUP_PIN2, PWR_WAKEUP_PIN3, PWR_WAKEUP_PIN4, PWR_WAK
 411:Drivers/STM32L4xx_HAL_Driver/Src/stm32l4xx_hal_pwr.c ****   * @retval None
 412:Drivers/STM32L4xx_HAL_Driver/Src/stm32l4xx_hal_pwr.c ****   */
 413:Drivers/STM32L4xx_HAL_Driver/Src/stm32l4xx_hal_pwr.c **** void HAL_PWR_DisableWakeUpPin(uint32_t WakeUpPinx)
 414:Drivers/STM32L4xx_HAL_Driver/Src/stm32l4xx_hal_pwr.c **** {
 453              		.loc 1 414 1 is_stmt 1 view -0
 454              		.cfi_startproc
 455              		@ args = 0, pretend = 0, frame = 0
 456              		@ frame_needed = 0, uses_anonymous_args = 0
 457              		.loc 1 414 1 is_stmt 0 view .LVU79
 458 0000 10B5     		push	{r4, lr}
 459              	.LCFI2:
 460              		.cfi_def_cfa_offset 8
 461              		.cfi_offset 4, -8
 462              		.cfi_offset 14, -4
 463 0002 0446     		mov	r4, r0
 415:Drivers/STM32L4xx_HAL_Driver/Src/stm32l4xx_hal_pwr.c ****   assert_param(IS_PWR_WAKEUP_PIN(WakeUpPinx));
 464              		.loc 1 415 3 is_stmt 1 view .LVU80
 465 0004 431E     		subs	r3, r0, #1
 466 0006 012B     		cmp	r3, #1
 467 0008 15D9     		bls	.L35
 468              		.loc 1 415 3 is_stmt 0 discriminator 1 view .LVU81
 469 000a 0428     		cmp	r0, #4
 470 000c 13D0     		beq	.L35
 471              		.loc 1 415 3 discriminator 2 view .LVU82
 472 000e 0828     		cmp	r0, #8
 473 0010 11D0     		beq	.L35
 474              		.loc 1 415 3 discriminator 3 view .LVU83
 475 0012 1028     		cmp	r0, #16
 476 0014 0FD0     		beq	.L35
 477              		.loc 1 415 3 discriminator 4 view .LVU84
 478 0016 0128     		cmp	r0, #1
 479 0018 0DD0     		beq	.L35
 480              		.loc 1 415 3 discriminator 5 view .LVU85
 481 001a 0228     		cmp	r0, #2
 482 001c 0BD0     		beq	.L35
 483              		.loc 1 415 3 discriminator 9 view .LVU86
 484 001e 2128     		cmp	r0, #33
 485 0020 09D0     		beq	.L35
 486              		.loc 1 415 3 discriminator 10 view .LVU87
 487 0022 4228     		cmp	r0, #66
 488 0024 07D0     		beq	.L35
 489              		.loc 1 415 3 discriminator 11 view .LVU88
 490 0026 8428     		cmp	r0, #132
 491 0028 05D0     		beq	.L35
 492              		.loc 1 415 3 discriminator 12 view .LVU89
 493 002a B0F5847F 		cmp	r0, #264
 494 002e 02D0     		beq	.L35
 495              		.loc 1 415 3 discriminator 13 view .LVU90
 496 0030 B0F5047F 		cmp	r0, #528
 497 0034 07D1     		bne	.L37
 498              	.LVL13:
 499              	.L35:
 416:Drivers/STM32L4xx_HAL_Driver/Src/stm32l4xx_hal_pwr.c **** 
 417:Drivers/STM32L4xx_HAL_Driver/Src/stm32l4xx_hal_pwr.c ****   CLEAR_BIT(PWR->CR3, (PWR_CR3_EWUP & WakeUpPinx));
 500              		.loc 1 417 3 is_stmt 1 view .LVU91
 501 0036 074B     		ldr	r3, .L38
ARM GAS  C:\Users\andywei\AppData\Local\Temp\ccNhxarc.s 			page 17


 502 0038 9868     		ldr	r0, [r3, #8]
 503 003a 04F01F04 		and	r4, r4, #31
 504              	.LVL14:
 505              		.loc 1 417 3 is_stmt 0 view .LVU92
 506 003e 20EA0404 		bic	r4, r0, r4
 507 0042 9C60     		str	r4, [r3, #8]
 418:Drivers/STM32L4xx_HAL_Driver/Src/stm32l4xx_hal_pwr.c **** }
 508              		.loc 1 418 1 view .LVU93
 509 0044 10BD     		pop	{r4, pc}
 510              	.LVL15:
 511              	.L37:
 415:Drivers/STM32L4xx_HAL_Driver/Src/stm32l4xx_hal_pwr.c ****   assert_param(IS_PWR_WAKEUP_PIN(WakeUpPinx));
 512              		.loc 1 415 3 discriminator 14 view .LVU94
 513 0046 40F29F11 		movw	r1, #415
 514 004a 0348     		ldr	r0, .L38+4
 515              	.LVL16:
 415:Drivers/STM32L4xx_HAL_Driver/Src/stm32l4xx_hal_pwr.c ****   assert_param(IS_PWR_WAKEUP_PIN(WakeUpPinx));
 516              		.loc 1 415 3 discriminator 14 view .LVU95
 517 004c FFF7FEFF 		bl	assert_failed
 518              	.LVL17:
 519 0050 F1E7     		b	.L35
 520              	.L39:
 521 0052 00BF     		.align	2
 522              	.L38:
 523 0054 00700040 		.word	1073770496
 524 0058 00000000 		.word	.LC0
 525              		.cfi_endproc
 526              	.LFE139:
 528              		.section	.text.HAL_PWR_EnterSLEEPMode,"ax",%progbits
 529              		.align	1
 530              		.global	HAL_PWR_EnterSLEEPMode
 531              		.syntax unified
 532              		.thumb
 533              		.thumb_func
 534              		.fpu fpv4-sp-d16
 536              	HAL_PWR_EnterSLEEPMode:
 537              	.LVL18:
 538              	.LFB140:
 419:Drivers/STM32L4xx_HAL_Driver/Src/stm32l4xx_hal_pwr.c **** 
 420:Drivers/STM32L4xx_HAL_Driver/Src/stm32l4xx_hal_pwr.c **** 
 421:Drivers/STM32L4xx_HAL_Driver/Src/stm32l4xx_hal_pwr.c **** /**
 422:Drivers/STM32L4xx_HAL_Driver/Src/stm32l4xx_hal_pwr.c ****   * @brief Enter Sleep or Low-power Sleep mode.
 423:Drivers/STM32L4xx_HAL_Driver/Src/stm32l4xx_hal_pwr.c ****   * @note  In Sleep/Low-power Sleep mode, all I/O pins keep the same state as in Run mode.
 424:Drivers/STM32L4xx_HAL_Driver/Src/stm32l4xx_hal_pwr.c ****   * @param Regulator: Specifies the regulator state in Sleep/Low-power Sleep mode.
 425:Drivers/STM32L4xx_HAL_Driver/Src/stm32l4xx_hal_pwr.c ****   *          This parameter can be one of the following values:
 426:Drivers/STM32L4xx_HAL_Driver/Src/stm32l4xx_hal_pwr.c ****   *            @arg @ref PWR_MAINREGULATOR_ON Sleep mode (regulator in main mode)
 427:Drivers/STM32L4xx_HAL_Driver/Src/stm32l4xx_hal_pwr.c ****   *            @arg @ref PWR_LOWPOWERREGULATOR_ON Low-power Sleep mode (regulator in low-power mode
 428:Drivers/STM32L4xx_HAL_Driver/Src/stm32l4xx_hal_pwr.c ****   * @note  Low-power Sleep mode is entered from Low-power Run mode. Therefore, if not yet
 429:Drivers/STM32L4xx_HAL_Driver/Src/stm32l4xx_hal_pwr.c ****   *        in Low-power Run mode before calling HAL_PWR_EnterSLEEPMode() with Regulator set
 430:Drivers/STM32L4xx_HAL_Driver/Src/stm32l4xx_hal_pwr.c ****   *        to PWR_LOWPOWERREGULATOR_ON, the user can optionally configure the
 431:Drivers/STM32L4xx_HAL_Driver/Src/stm32l4xx_hal_pwr.c ****   *        Flash in power-down monde in setting the SLEEP_PD bit in FLASH_ACR register.
 432:Drivers/STM32L4xx_HAL_Driver/Src/stm32l4xx_hal_pwr.c ****   *        Additionally, the clock frequency must be reduced below 2 MHz.
 433:Drivers/STM32L4xx_HAL_Driver/Src/stm32l4xx_hal_pwr.c ****   *        Setting SLEEP_PD in FLASH_ACR then appropriately reducing the clock frequency must
 434:Drivers/STM32L4xx_HAL_Driver/Src/stm32l4xx_hal_pwr.c ****   *        be done before calling HAL_PWR_EnterSLEEPMode() API.
 435:Drivers/STM32L4xx_HAL_Driver/Src/stm32l4xx_hal_pwr.c ****   * @note  When exiting Low-power Sleep mode, the MCU is in Low-power Run mode. To move in
 436:Drivers/STM32L4xx_HAL_Driver/Src/stm32l4xx_hal_pwr.c ****   *        Run mode, the user must resort to HAL_PWREx_DisableLowPowerRunMode() API.
 437:Drivers/STM32L4xx_HAL_Driver/Src/stm32l4xx_hal_pwr.c ****   * @param SLEEPEntry: Specifies if Sleep mode is entered with WFI or WFE instruction.
ARM GAS  C:\Users\andywei\AppData\Local\Temp\ccNhxarc.s 			page 18


 438:Drivers/STM32L4xx_HAL_Driver/Src/stm32l4xx_hal_pwr.c ****   *           This parameter can be one of the following values:
 439:Drivers/STM32L4xx_HAL_Driver/Src/stm32l4xx_hal_pwr.c ****   *            @arg @ref PWR_SLEEPENTRY_WFI enter Sleep or Low-power Sleep mode with WFI instructio
 440:Drivers/STM32L4xx_HAL_Driver/Src/stm32l4xx_hal_pwr.c ****   *            @arg @ref PWR_SLEEPENTRY_WFE enter Sleep or Low-power Sleep mode with WFE instructio
 441:Drivers/STM32L4xx_HAL_Driver/Src/stm32l4xx_hal_pwr.c ****   * @note  When WFI entry is used, tick interrupt have to be disabled if not desired as
 442:Drivers/STM32L4xx_HAL_Driver/Src/stm32l4xx_hal_pwr.c ****   *        the interrupt wake up source.
 443:Drivers/STM32L4xx_HAL_Driver/Src/stm32l4xx_hal_pwr.c ****   * @retval None
 444:Drivers/STM32L4xx_HAL_Driver/Src/stm32l4xx_hal_pwr.c ****   */
 445:Drivers/STM32L4xx_HAL_Driver/Src/stm32l4xx_hal_pwr.c **** void HAL_PWR_EnterSLEEPMode(uint32_t Regulator, uint8_t SLEEPEntry)
 446:Drivers/STM32L4xx_HAL_Driver/Src/stm32l4xx_hal_pwr.c **** {
 539              		.loc 1 446 1 is_stmt 1 view -0
 540              		.cfi_startproc
 541              		@ args = 0, pretend = 0, frame = 0
 542              		@ frame_needed = 0, uses_anonymous_args = 0
 543              		.loc 1 446 1 is_stmt 0 view .LVU97
 544 0000 38B5     		push	{r3, r4, r5, lr}
 545              	.LCFI3:
 546              		.cfi_def_cfa_offset 16
 547              		.cfi_offset 3, -16
 548              		.cfi_offset 4, -12
 549              		.cfi_offset 5, -8
 550              		.cfi_offset 14, -4
 551 0002 0C46     		mov	r4, r1
 447:Drivers/STM32L4xx_HAL_Driver/Src/stm32l4xx_hal_pwr.c ****   /* Check the parameters */
 448:Drivers/STM32L4xx_HAL_Driver/Src/stm32l4xx_hal_pwr.c ****   assert_param(IS_PWR_REGULATOR(Regulator));
 552              		.loc 1 448 3 is_stmt 1 view .LVU98
 553 0004 0546     		mov	r5, r0
 554 0006 10B1     		cbz	r0, .L41
 555              		.loc 1 448 3 is_stmt 0 discriminator 1 view .LVU99
 556 0008 B0F5804F 		cmp	r0, #16384
 557 000c 14D1     		bne	.L48
 558              	.LVL19:
 559              	.L41:
 449:Drivers/STM32L4xx_HAL_Driver/Src/stm32l4xx_hal_pwr.c ****   assert_param(IS_PWR_SLEEP_ENTRY(SLEEPEntry));
 560              		.loc 1 449 3 is_stmt 1 view .LVU100
 561 000e 631E     		subs	r3, r4, #1
 562 0010 DBB2     		uxtb	r3, r3
 563 0012 012B     		cmp	r3, #1
 564 0014 16D8     		bhi	.L49
 565              	.L42:
 450:Drivers/STM32L4xx_HAL_Driver/Src/stm32l4xx_hal_pwr.c **** 
 451:Drivers/STM32L4xx_HAL_Driver/Src/stm32l4xx_hal_pwr.c ****   /* Set Regulator parameter */
 452:Drivers/STM32L4xx_HAL_Driver/Src/stm32l4xx_hal_pwr.c ****   if (Regulator == PWR_MAINREGULATOR_ON)
 566              		.loc 1 452 3 view .LVU101
 567              		.loc 1 452 6 is_stmt 0 view .LVU102
 568 0016 05BB     		cbnz	r5, .L43
 453:Drivers/STM32L4xx_HAL_Driver/Src/stm32l4xx_hal_pwr.c ****   {
 454:Drivers/STM32L4xx_HAL_Driver/Src/stm32l4xx_hal_pwr.c ****     /* If in low-power run mode at this point, exit it */
 455:Drivers/STM32L4xx_HAL_Driver/Src/stm32l4xx_hal_pwr.c ****     if (HAL_IS_BIT_SET(PWR->SR2, PWR_SR2_REGLPF))
 569              		.loc 1 455 5 is_stmt 1 view .LVU103
 570              		.loc 1 455 9 is_stmt 0 view .LVU104
 571 0018 154B     		ldr	r3, .L52
 572 001a 5B69     		ldr	r3, [r3, #20]
 573              		.loc 1 455 8 view .LVU105
 574 001c 13F4007F 		tst	r3, #512
 575 0020 16D1     		bne	.L50
 576              	.L44:
 456:Drivers/STM32L4xx_HAL_Driver/Src/stm32l4xx_hal_pwr.c ****     {
ARM GAS  C:\Users\andywei\AppData\Local\Temp\ccNhxarc.s 			page 19


 457:Drivers/STM32L4xx_HAL_Driver/Src/stm32l4xx_hal_pwr.c ****       if (HAL_PWREx_DisableLowPowerRunMode() != HAL_OK)
 458:Drivers/STM32L4xx_HAL_Driver/Src/stm32l4xx_hal_pwr.c ****       {
 459:Drivers/STM32L4xx_HAL_Driver/Src/stm32l4xx_hal_pwr.c ****         return ;
 460:Drivers/STM32L4xx_HAL_Driver/Src/stm32l4xx_hal_pwr.c ****       }
 461:Drivers/STM32L4xx_HAL_Driver/Src/stm32l4xx_hal_pwr.c ****     }
 462:Drivers/STM32L4xx_HAL_Driver/Src/stm32l4xx_hal_pwr.c ****     /* Regulator now in main mode. */
 463:Drivers/STM32L4xx_HAL_Driver/Src/stm32l4xx_hal_pwr.c ****   }
 464:Drivers/STM32L4xx_HAL_Driver/Src/stm32l4xx_hal_pwr.c ****   else
 465:Drivers/STM32L4xx_HAL_Driver/Src/stm32l4xx_hal_pwr.c ****   {
 466:Drivers/STM32L4xx_HAL_Driver/Src/stm32l4xx_hal_pwr.c ****     /* If in run mode, first move to low-power run mode.
 467:Drivers/STM32L4xx_HAL_Driver/Src/stm32l4xx_hal_pwr.c ****        The system clock frequency must be below 2 MHz at this point. */
 468:Drivers/STM32L4xx_HAL_Driver/Src/stm32l4xx_hal_pwr.c ****     if (HAL_IS_BIT_SET(PWR->SR2, PWR_SR2_REGLPF) == RESET)
 469:Drivers/STM32L4xx_HAL_Driver/Src/stm32l4xx_hal_pwr.c ****     {
 470:Drivers/STM32L4xx_HAL_Driver/Src/stm32l4xx_hal_pwr.c ****       HAL_PWREx_EnableLowPowerRunMode();
 471:Drivers/STM32L4xx_HAL_Driver/Src/stm32l4xx_hal_pwr.c ****     }
 472:Drivers/STM32L4xx_HAL_Driver/Src/stm32l4xx_hal_pwr.c ****   }
 473:Drivers/STM32L4xx_HAL_Driver/Src/stm32l4xx_hal_pwr.c **** 
 474:Drivers/STM32L4xx_HAL_Driver/Src/stm32l4xx_hal_pwr.c ****   /* Clear SLEEPDEEP bit of Cortex System Control Register */
 475:Drivers/STM32L4xx_HAL_Driver/Src/stm32l4xx_hal_pwr.c ****   CLEAR_BIT(SCB->SCR, ((uint32_t)SCB_SCR_SLEEPDEEP_Msk));
 577              		.loc 1 475 3 is_stmt 1 view .LVU106
 578 0022 144A     		ldr	r2, .L52+4
 579 0024 1369     		ldr	r3, [r2, #16]
 580 0026 23F00403 		bic	r3, r3, #4
 581 002a 1361     		str	r3, [r2, #16]
 476:Drivers/STM32L4xx_HAL_Driver/Src/stm32l4xx_hal_pwr.c **** 
 477:Drivers/STM32L4xx_HAL_Driver/Src/stm32l4xx_hal_pwr.c ****   /* Select SLEEP mode entry -------------------------------------------------*/
 478:Drivers/STM32L4xx_HAL_Driver/Src/stm32l4xx_hal_pwr.c ****   if(SLEEPEntry == PWR_SLEEPENTRY_WFI)
 582              		.loc 1 478 3 view .LVU107
 583              		.loc 1 478 5 is_stmt 0 view .LVU108
 584 002c 012C     		cmp	r4, #1
 585 002e 1CD0     		beq	.L51
 479:Drivers/STM32L4xx_HAL_Driver/Src/stm32l4xx_hal_pwr.c ****   {
 480:Drivers/STM32L4xx_HAL_Driver/Src/stm32l4xx_hal_pwr.c ****     /* Request Wait For Interrupt */
 481:Drivers/STM32L4xx_HAL_Driver/Src/stm32l4xx_hal_pwr.c ****     __WFI();
 482:Drivers/STM32L4xx_HAL_Driver/Src/stm32l4xx_hal_pwr.c ****   }
 483:Drivers/STM32L4xx_HAL_Driver/Src/stm32l4xx_hal_pwr.c ****   else
 484:Drivers/STM32L4xx_HAL_Driver/Src/stm32l4xx_hal_pwr.c ****   {
 485:Drivers/STM32L4xx_HAL_Driver/Src/stm32l4xx_hal_pwr.c ****     /* Request Wait For Event */
 486:Drivers/STM32L4xx_HAL_Driver/Src/stm32l4xx_hal_pwr.c ****     __SEV();
 586              		.loc 1 486 5 is_stmt 1 view .LVU109
 587              		.syntax unified
 588              	@ 486 "Drivers/STM32L4xx_HAL_Driver/Src/stm32l4xx_hal_pwr.c" 1
 589 0030 40BF     		sev
 590              	@ 0 "" 2
 487:Drivers/STM32L4xx_HAL_Driver/Src/stm32l4xx_hal_pwr.c ****     __WFE();
 591              		.loc 1 487 5 view .LVU110
 592              	@ 487 "Drivers/STM32L4xx_HAL_Driver/Src/stm32l4xx_hal_pwr.c" 1
 593 0032 20BF     		wfe
 594              	@ 0 "" 2
 488:Drivers/STM32L4xx_HAL_Driver/Src/stm32l4xx_hal_pwr.c ****     __WFE();
 595              		.loc 1 488 5 view .LVU111
 596              	@ 488 "Drivers/STM32L4xx_HAL_Driver/Src/stm32l4xx_hal_pwr.c" 1
 597 0034 20BF     		wfe
 598              	@ 0 "" 2
 599              		.thumb
 600              		.syntax unified
 601              	.L40:
ARM GAS  C:\Users\andywei\AppData\Local\Temp\ccNhxarc.s 			page 20


 489:Drivers/STM32L4xx_HAL_Driver/Src/stm32l4xx_hal_pwr.c ****   }
 490:Drivers/STM32L4xx_HAL_Driver/Src/stm32l4xx_hal_pwr.c **** 
 491:Drivers/STM32L4xx_HAL_Driver/Src/stm32l4xx_hal_pwr.c **** }
 602              		.loc 1 491 1 is_stmt 0 view .LVU112
 603 0036 38BD     		pop	{r3, r4, r5, pc}
 604              	.LVL20:
 605              	.L48:
 448:Drivers/STM32L4xx_HAL_Driver/Src/stm32l4xx_hal_pwr.c ****   assert_param(IS_PWR_SLEEP_ENTRY(SLEEPEntry));
 606              		.loc 1 448 3 discriminator 2 view .LVU113
 607 0038 4FF4E071 		mov	r1, #448
 608              	.LVL21:
 448:Drivers/STM32L4xx_HAL_Driver/Src/stm32l4xx_hal_pwr.c ****   assert_param(IS_PWR_SLEEP_ENTRY(SLEEPEntry));
 609              		.loc 1 448 3 discriminator 2 view .LVU114
 610 003c 0E48     		ldr	r0, .L52+8
 611              	.LVL22:
 448:Drivers/STM32L4xx_HAL_Driver/Src/stm32l4xx_hal_pwr.c ****   assert_param(IS_PWR_SLEEP_ENTRY(SLEEPEntry));
 612              		.loc 1 448 3 discriminator 2 view .LVU115
 613 003e FFF7FEFF 		bl	assert_failed
 614              	.LVL23:
 615 0042 E4E7     		b	.L41
 616              	.L49:
 449:Drivers/STM32L4xx_HAL_Driver/Src/stm32l4xx_hal_pwr.c **** 
 617              		.loc 1 449 3 discriminator 1 view .LVU116
 618 0044 40F2C111 		movw	r1, #449
 619 0048 0B48     		ldr	r0, .L52+8
 620 004a FFF7FEFF 		bl	assert_failed
 621              	.LVL24:
 622 004e E2E7     		b	.L42
 623              	.L50:
 457:Drivers/STM32L4xx_HAL_Driver/Src/stm32l4xx_hal_pwr.c ****       {
 624              		.loc 1 457 7 is_stmt 1 view .LVU117
 457:Drivers/STM32L4xx_HAL_Driver/Src/stm32l4xx_hal_pwr.c ****       {
 625              		.loc 1 457 11 is_stmt 0 view .LVU118
 626 0050 FFF7FEFF 		bl	HAL_PWREx_DisableLowPowerRunMode
 627              	.LVL25:
 457:Drivers/STM32L4xx_HAL_Driver/Src/stm32l4xx_hal_pwr.c ****       {
 628              		.loc 1 457 10 view .LVU119
 629 0054 0028     		cmp	r0, #0
 630 0056 E4D0     		beq	.L44
 631 0058 EDE7     		b	.L40
 632              	.L43:
 468:Drivers/STM32L4xx_HAL_Driver/Src/stm32l4xx_hal_pwr.c ****     {
 633              		.loc 1 468 5 is_stmt 1 view .LVU120
 468:Drivers/STM32L4xx_HAL_Driver/Src/stm32l4xx_hal_pwr.c ****     {
 634              		.loc 1 468 9 is_stmt 0 view .LVU121
 635 005a 054B     		ldr	r3, .L52
 636 005c 5B69     		ldr	r3, [r3, #20]
 468:Drivers/STM32L4xx_HAL_Driver/Src/stm32l4xx_hal_pwr.c ****     {
 637              		.loc 1 468 8 view .LVU122
 638 005e 13F4007F 		tst	r3, #512
 639 0062 DED1     		bne	.L44
 470:Drivers/STM32L4xx_HAL_Driver/Src/stm32l4xx_hal_pwr.c ****     }
 640              		.loc 1 470 7 is_stmt 1 view .LVU123
 641 0064 FFF7FEFF 		bl	HAL_PWREx_EnableLowPowerRunMode
 642              	.LVL26:
 643 0068 DBE7     		b	.L44
 644              	.L51:
ARM GAS  C:\Users\andywei\AppData\Local\Temp\ccNhxarc.s 			page 21


 481:Drivers/STM32L4xx_HAL_Driver/Src/stm32l4xx_hal_pwr.c ****   }
 645              		.loc 1 481 5 view .LVU124
 646              		.syntax unified
 647              	@ 481 "Drivers/STM32L4xx_HAL_Driver/Src/stm32l4xx_hal_pwr.c" 1
 648 006a 30BF     		wfi
 649              	@ 0 "" 2
 650              		.thumb
 651              		.syntax unified
 652 006c E3E7     		b	.L40
 653              	.L53:
 654 006e 00BF     		.align	2
 655              	.L52:
 656 0070 00700040 		.word	1073770496
 657 0074 00ED00E0 		.word	-536810240
 658 0078 00000000 		.word	.LC0
 659              		.cfi_endproc
 660              	.LFE140:
 662              		.section	.text.HAL_PWR_EnterSTOPMode,"ax",%progbits
 663              		.align	1
 664              		.global	HAL_PWR_EnterSTOPMode
 665              		.syntax unified
 666              		.thumb
 667              		.thumb_func
 668              		.fpu fpv4-sp-d16
 670              	HAL_PWR_EnterSTOPMode:
 671              	.LVL27:
 672              	.LFB141:
 492:Drivers/STM32L4xx_HAL_Driver/Src/stm32l4xx_hal_pwr.c **** 
 493:Drivers/STM32L4xx_HAL_Driver/Src/stm32l4xx_hal_pwr.c **** 
 494:Drivers/STM32L4xx_HAL_Driver/Src/stm32l4xx_hal_pwr.c **** /**
 495:Drivers/STM32L4xx_HAL_Driver/Src/stm32l4xx_hal_pwr.c ****   * @brief Enter Stop mode
 496:Drivers/STM32L4xx_HAL_Driver/Src/stm32l4xx_hal_pwr.c ****   * @note  This API is named HAL_PWR_EnterSTOPMode to ensure compatibility with legacy code running
 497:Drivers/STM32L4xx_HAL_Driver/Src/stm32l4xx_hal_pwr.c ****   *        on devices where only "Stop mode" is mentioned with main or low power regulator ON.
 498:Drivers/STM32L4xx_HAL_Driver/Src/stm32l4xx_hal_pwr.c ****   * @note  In Stop mode, all I/O pins keep the same state as in Run mode.
 499:Drivers/STM32L4xx_HAL_Driver/Src/stm32l4xx_hal_pwr.c ****   * @note  All clocks in the VCORE domain are stopped; the PLL, the MSI,
 500:Drivers/STM32L4xx_HAL_Driver/Src/stm32l4xx_hal_pwr.c ****   *        the HSI and the HSE oscillators are disabled. Some peripherals with the wakeup capabilit
 501:Drivers/STM32L4xx_HAL_Driver/Src/stm32l4xx_hal_pwr.c ****   *        (I2Cx, USARTx and LPUART) can switch on the HSI to receive a frame, and switch off the H
 502:Drivers/STM32L4xx_HAL_Driver/Src/stm32l4xx_hal_pwr.c ****   *        after receiving the frame if it is not a wakeup frame. In this case, the HSI clock is pr
 503:Drivers/STM32L4xx_HAL_Driver/Src/stm32l4xx_hal_pwr.c ****   *        only to the peripheral requesting it.
 504:Drivers/STM32L4xx_HAL_Driver/Src/stm32l4xx_hal_pwr.c ****   *        SRAM1, SRAM2 and register contents are preserved.
 505:Drivers/STM32L4xx_HAL_Driver/Src/stm32l4xx_hal_pwr.c ****   *        The BOR is available.
 506:Drivers/STM32L4xx_HAL_Driver/Src/stm32l4xx_hal_pwr.c ****   *        The voltage regulator can be configured either in normal (Stop 0) or low-power mode (Sto
 507:Drivers/STM32L4xx_HAL_Driver/Src/stm32l4xx_hal_pwr.c ****   * @note  When exiting Stop 0 or Stop 1 mode by issuing an interrupt or a wakeup event,
 508:Drivers/STM32L4xx_HAL_Driver/Src/stm32l4xx_hal_pwr.c ****   *         the HSI RC oscillator is selected as system clock if STOPWUCK bit in RCC_CFGR register
 509:Drivers/STM32L4xx_HAL_Driver/Src/stm32l4xx_hal_pwr.c ****   *         is set; the MSI oscillator is selected if STOPWUCK is cleared.
 510:Drivers/STM32L4xx_HAL_Driver/Src/stm32l4xx_hal_pwr.c ****   * @note  When the voltage regulator operates in low power mode (Stop 1), an additional
 511:Drivers/STM32L4xx_HAL_Driver/Src/stm32l4xx_hal_pwr.c ****   *         startup delay is incurred when waking up.
 512:Drivers/STM32L4xx_HAL_Driver/Src/stm32l4xx_hal_pwr.c ****   *         By keeping the internal regulator ON during Stop mode (Stop 0), the consumption
 513:Drivers/STM32L4xx_HAL_Driver/Src/stm32l4xx_hal_pwr.c ****   *         is higher although the startup time is reduced.
 514:Drivers/STM32L4xx_HAL_Driver/Src/stm32l4xx_hal_pwr.c ****   * @param Regulator: Specifies the regulator state in Stop mode.
 515:Drivers/STM32L4xx_HAL_Driver/Src/stm32l4xx_hal_pwr.c ****   *          This parameter can be one of the following values:
 516:Drivers/STM32L4xx_HAL_Driver/Src/stm32l4xx_hal_pwr.c ****   *            @arg @ref PWR_MAINREGULATOR_ON  Stop 0 mode (main regulator ON)
 517:Drivers/STM32L4xx_HAL_Driver/Src/stm32l4xx_hal_pwr.c ****   *            @arg @ref PWR_LOWPOWERREGULATOR_ON  Stop 1 mode (low power regulator ON)
 518:Drivers/STM32L4xx_HAL_Driver/Src/stm32l4xx_hal_pwr.c ****   * @param STOPEntry: Specifies Stop 0 or Stop 1 mode is entered with WFI or WFE instruction.
 519:Drivers/STM32L4xx_HAL_Driver/Src/stm32l4xx_hal_pwr.c ****   *          This parameter can be one of the following values:
 520:Drivers/STM32L4xx_HAL_Driver/Src/stm32l4xx_hal_pwr.c ****   *            @arg @ref PWR_STOPENTRY_WFI  Enter Stop 0 or Stop 1 mode with WFI instruction.
 521:Drivers/STM32L4xx_HAL_Driver/Src/stm32l4xx_hal_pwr.c ****   *            @arg @ref PWR_STOPENTRY_WFE  Enter Stop 0 or Stop 1 mode with WFE instruction.
ARM GAS  C:\Users\andywei\AppData\Local\Temp\ccNhxarc.s 			page 22


 522:Drivers/STM32L4xx_HAL_Driver/Src/stm32l4xx_hal_pwr.c ****   * @retval None
 523:Drivers/STM32L4xx_HAL_Driver/Src/stm32l4xx_hal_pwr.c ****   */
 524:Drivers/STM32L4xx_HAL_Driver/Src/stm32l4xx_hal_pwr.c **** void HAL_PWR_EnterSTOPMode(uint32_t Regulator, uint8_t STOPEntry)
 525:Drivers/STM32L4xx_HAL_Driver/Src/stm32l4xx_hal_pwr.c **** {
 673              		.loc 1 525 1 view -0
 674              		.cfi_startproc
 675              		@ args = 0, pretend = 0, frame = 0
 676              		@ frame_needed = 0, uses_anonymous_args = 0
 677              		.loc 1 525 1 is_stmt 0 view .LVU126
 678 0000 38B5     		push	{r3, r4, r5, lr}
 679              	.LCFI4:
 680              		.cfi_def_cfa_offset 16
 681              		.cfi_offset 3, -16
 682              		.cfi_offset 4, -12
 683              		.cfi_offset 5, -8
 684              		.cfi_offset 14, -4
 685 0002 0C46     		mov	r4, r1
 526:Drivers/STM32L4xx_HAL_Driver/Src/stm32l4xx_hal_pwr.c ****   /* Check the parameters */
 527:Drivers/STM32L4xx_HAL_Driver/Src/stm32l4xx_hal_pwr.c ****   assert_param(IS_PWR_REGULATOR(Regulator));
 686              		.loc 1 527 3 is_stmt 1 view .LVU127
 687 0004 0546     		mov	r5, r0
 688 0006 10B1     		cbz	r0, .L55
 689              		.loc 1 527 3 is_stmt 0 discriminator 1 view .LVU128
 690 0008 B0F5804F 		cmp	r0, #16384
 691 000c 06D1     		bne	.L59
 692              	.LVL28:
 693              	.L55:
 528:Drivers/STM32L4xx_HAL_Driver/Src/stm32l4xx_hal_pwr.c **** 
 529:Drivers/STM32L4xx_HAL_Driver/Src/stm32l4xx_hal_pwr.c ****   if(Regulator == PWR_LOWPOWERREGULATOR_ON)
 694              		.loc 1 529 3 is_stmt 1 view .LVU129
 695              		.loc 1 529 5 is_stmt 0 view .LVU130
 696 000e B5F5804F 		cmp	r5, #16384
 697 0012 09D0     		beq	.L60
 530:Drivers/STM32L4xx_HAL_Driver/Src/stm32l4xx_hal_pwr.c ****   {
 531:Drivers/STM32L4xx_HAL_Driver/Src/stm32l4xx_hal_pwr.c ****     HAL_PWREx_EnterSTOP1Mode(STOPEntry);
 532:Drivers/STM32L4xx_HAL_Driver/Src/stm32l4xx_hal_pwr.c ****   }
 533:Drivers/STM32L4xx_HAL_Driver/Src/stm32l4xx_hal_pwr.c ****   else
 534:Drivers/STM32L4xx_HAL_Driver/Src/stm32l4xx_hal_pwr.c ****   {
 535:Drivers/STM32L4xx_HAL_Driver/Src/stm32l4xx_hal_pwr.c ****     HAL_PWREx_EnterSTOP0Mode(STOPEntry);
 698              		.loc 1 535 5 is_stmt 1 view .LVU131
 699 0014 2046     		mov	r0, r4
 700 0016 FFF7FEFF 		bl	HAL_PWREx_EnterSTOP0Mode
 701              	.LVL29:
 702              	.L54:
 536:Drivers/STM32L4xx_HAL_Driver/Src/stm32l4xx_hal_pwr.c ****   }
 537:Drivers/STM32L4xx_HAL_Driver/Src/stm32l4xx_hal_pwr.c **** }
 703              		.loc 1 537 1 is_stmt 0 view .LVU132
 704 001a 38BD     		pop	{r3, r4, r5, pc}
 705              	.LVL30:
 706              	.L59:
 527:Drivers/STM32L4xx_HAL_Driver/Src/stm32l4xx_hal_pwr.c **** 
 707              		.loc 1 527 3 discriminator 2 view .LVU133
 708 001c 40F20F21 		movw	r1, #527
 709              	.LVL31:
 527:Drivers/STM32L4xx_HAL_Driver/Src/stm32l4xx_hal_pwr.c **** 
 710              		.loc 1 527 3 discriminator 2 view .LVU134
 711 0020 0348     		ldr	r0, .L61
ARM GAS  C:\Users\andywei\AppData\Local\Temp\ccNhxarc.s 			page 23


 712              	.LVL32:
 527:Drivers/STM32L4xx_HAL_Driver/Src/stm32l4xx_hal_pwr.c **** 
 713              		.loc 1 527 3 discriminator 2 view .LVU135
 714 0022 FFF7FEFF 		bl	assert_failed
 715              	.LVL33:
 716 0026 F2E7     		b	.L55
 717              	.L60:
 531:Drivers/STM32L4xx_HAL_Driver/Src/stm32l4xx_hal_pwr.c ****   }
 718              		.loc 1 531 5 is_stmt 1 view .LVU136
 719 0028 2046     		mov	r0, r4
 720 002a FFF7FEFF 		bl	HAL_PWREx_EnterSTOP1Mode
 721              	.LVL34:
 722 002e F4E7     		b	.L54
 723              	.L62:
 724              		.align	2
 725              	.L61:
 726 0030 00000000 		.word	.LC0
 727              		.cfi_endproc
 728              	.LFE141:
 730              		.section	.text.HAL_PWR_EnterSTANDBYMode,"ax",%progbits
 731              		.align	1
 732              		.global	HAL_PWR_EnterSTANDBYMode
 733              		.syntax unified
 734              		.thumb
 735              		.thumb_func
 736              		.fpu fpv4-sp-d16
 738              	HAL_PWR_EnterSTANDBYMode:
 739              	.LFB142:
 538:Drivers/STM32L4xx_HAL_Driver/Src/stm32l4xx_hal_pwr.c **** 
 539:Drivers/STM32L4xx_HAL_Driver/Src/stm32l4xx_hal_pwr.c **** /**
 540:Drivers/STM32L4xx_HAL_Driver/Src/stm32l4xx_hal_pwr.c ****   * @brief Enter Standby mode.
 541:Drivers/STM32L4xx_HAL_Driver/Src/stm32l4xx_hal_pwr.c ****   * @note  In Standby mode, the PLL, the HSI, the MSI and the HSE oscillators are switched
 542:Drivers/STM32L4xx_HAL_Driver/Src/stm32l4xx_hal_pwr.c ****   *        off. The voltage regulator is disabled, except when SRAM2 content is preserved
 543:Drivers/STM32L4xx_HAL_Driver/Src/stm32l4xx_hal_pwr.c ****   *        in which case the regulator is in low-power mode.
 544:Drivers/STM32L4xx_HAL_Driver/Src/stm32l4xx_hal_pwr.c ****   *        SRAM1 and register contents are lost except for registers in the Backup domain and
 545:Drivers/STM32L4xx_HAL_Driver/Src/stm32l4xx_hal_pwr.c ****   *        Standby circuitry. SRAM2 content can be preserved if the bit RRS is set in PWR_CR3 regis
 546:Drivers/STM32L4xx_HAL_Driver/Src/stm32l4xx_hal_pwr.c ****   *        To enable this feature, the user can resort to HAL_PWREx_EnableSRAM2ContentRetention() A
 547:Drivers/STM32L4xx_HAL_Driver/Src/stm32l4xx_hal_pwr.c ****   *        to set RRS bit.
 548:Drivers/STM32L4xx_HAL_Driver/Src/stm32l4xx_hal_pwr.c ****   *        The BOR is available.
 549:Drivers/STM32L4xx_HAL_Driver/Src/stm32l4xx_hal_pwr.c ****   * @note  The I/Os can be configured either with a pull-up or pull-down or can be kept in analog s
 550:Drivers/STM32L4xx_HAL_Driver/Src/stm32l4xx_hal_pwr.c ****   *        HAL_PWREx_EnableGPIOPullUp() and HAL_PWREx_EnableGPIOPullDown() respectively enable Pull
 551:Drivers/STM32L4xx_HAL_Driver/Src/stm32l4xx_hal_pwr.c ****   *        Pull Down state, HAL_PWREx_DisableGPIOPullUp() and HAL_PWREx_DisableGPIOPullDown() disab
 552:Drivers/STM32L4xx_HAL_Driver/Src/stm32l4xx_hal_pwr.c ****   *        same.
 553:Drivers/STM32L4xx_HAL_Driver/Src/stm32l4xx_hal_pwr.c ****   *        These states are effective in Standby mode only if APC bit is set through
 554:Drivers/STM32L4xx_HAL_Driver/Src/stm32l4xx_hal_pwr.c ****   *        HAL_PWREx_EnablePullUpPullDownConfig() API.
 555:Drivers/STM32L4xx_HAL_Driver/Src/stm32l4xx_hal_pwr.c ****   * @retval None
 556:Drivers/STM32L4xx_HAL_Driver/Src/stm32l4xx_hal_pwr.c ****   */
 557:Drivers/STM32L4xx_HAL_Driver/Src/stm32l4xx_hal_pwr.c **** void HAL_PWR_EnterSTANDBYMode(void)
 558:Drivers/STM32L4xx_HAL_Driver/Src/stm32l4xx_hal_pwr.c **** {
 740              		.loc 1 558 1 view -0
 741              		.cfi_startproc
 742              		@ args = 0, pretend = 0, frame = 0
 743              		@ frame_needed = 0, uses_anonymous_args = 0
 744              		@ link register save eliminated.
 559:Drivers/STM32L4xx_HAL_Driver/Src/stm32l4xx_hal_pwr.c ****   /* Set Stand-by mode */
 560:Drivers/STM32L4xx_HAL_Driver/Src/stm32l4xx_hal_pwr.c ****   MODIFY_REG(PWR->CR1, PWR_CR1_LPMS, PWR_CR1_LPMS_STANDBY);
 745              		.loc 1 560 3 view .LVU138
ARM GAS  C:\Users\andywei\AppData\Local\Temp\ccNhxarc.s 			page 24


 746 0000 064A     		ldr	r2, .L64
 747 0002 1368     		ldr	r3, [r2]
 748 0004 23F00703 		bic	r3, r3, #7
 749 0008 43F00303 		orr	r3, r3, #3
 750 000c 1360     		str	r3, [r2]
 561:Drivers/STM32L4xx_HAL_Driver/Src/stm32l4xx_hal_pwr.c **** 
 562:Drivers/STM32L4xx_HAL_Driver/Src/stm32l4xx_hal_pwr.c ****   /* Set SLEEPDEEP bit of Cortex System Control Register */
 563:Drivers/STM32L4xx_HAL_Driver/Src/stm32l4xx_hal_pwr.c ****   SET_BIT(SCB->SCR, ((uint32_t)SCB_SCR_SLEEPDEEP_Msk));
 751              		.loc 1 563 3 view .LVU139
 752 000e 044A     		ldr	r2, .L64+4
 753 0010 1369     		ldr	r3, [r2, #16]
 754 0012 43F00403 		orr	r3, r3, #4
 755 0016 1361     		str	r3, [r2, #16]
 564:Drivers/STM32L4xx_HAL_Driver/Src/stm32l4xx_hal_pwr.c **** 
 565:Drivers/STM32L4xx_HAL_Driver/Src/stm32l4xx_hal_pwr.c **** /* This option is used to ensure that store operations are completed */
 566:Drivers/STM32L4xx_HAL_Driver/Src/stm32l4xx_hal_pwr.c **** #if defined ( __CC_ARM)
 567:Drivers/STM32L4xx_HAL_Driver/Src/stm32l4xx_hal_pwr.c ****   __force_stores();
 568:Drivers/STM32L4xx_HAL_Driver/Src/stm32l4xx_hal_pwr.c **** #endif
 569:Drivers/STM32L4xx_HAL_Driver/Src/stm32l4xx_hal_pwr.c ****   /* Request Wait For Interrupt */
 570:Drivers/STM32L4xx_HAL_Driver/Src/stm32l4xx_hal_pwr.c ****   __WFI();
 756              		.loc 1 570 3 view .LVU140
 757              		.syntax unified
 758              	@ 570 "Drivers/STM32L4xx_HAL_Driver/Src/stm32l4xx_hal_pwr.c" 1
 759 0018 30BF     		wfi
 760              	@ 0 "" 2
 571:Drivers/STM32L4xx_HAL_Driver/Src/stm32l4xx_hal_pwr.c **** }
 761              		.loc 1 571 1 is_stmt 0 view .LVU141
 762              		.thumb
 763              		.syntax unified
 764 001a 7047     		bx	lr
 765              	.L65:
 766              		.align	2
 767              	.L64:
 768 001c 00700040 		.word	1073770496
 769 0020 00ED00E0 		.word	-536810240
 770              		.cfi_endproc
 771              	.LFE142:
 773              		.section	.text.HAL_PWR_EnableSleepOnExit,"ax",%progbits
 774              		.align	1
 775              		.global	HAL_PWR_EnableSleepOnExit
 776              		.syntax unified
 777              		.thumb
 778              		.thumb_func
 779              		.fpu fpv4-sp-d16
 781              	HAL_PWR_EnableSleepOnExit:
 782              	.LFB143:
 572:Drivers/STM32L4xx_HAL_Driver/Src/stm32l4xx_hal_pwr.c **** 
 573:Drivers/STM32L4xx_HAL_Driver/Src/stm32l4xx_hal_pwr.c **** 
 574:Drivers/STM32L4xx_HAL_Driver/Src/stm32l4xx_hal_pwr.c **** 
 575:Drivers/STM32L4xx_HAL_Driver/Src/stm32l4xx_hal_pwr.c **** /**
 576:Drivers/STM32L4xx_HAL_Driver/Src/stm32l4xx_hal_pwr.c ****   * @brief Indicate Sleep-On-Exit when returning from Handler mode to Thread mode.
 577:Drivers/STM32L4xx_HAL_Driver/Src/stm32l4xx_hal_pwr.c ****   * @note Set SLEEPONEXIT bit of SCR register. When this bit is set, the processor
 578:Drivers/STM32L4xx_HAL_Driver/Src/stm32l4xx_hal_pwr.c ****   *       re-enters SLEEP mode when an interruption handling is over.
 579:Drivers/STM32L4xx_HAL_Driver/Src/stm32l4xx_hal_pwr.c ****   *       Setting this bit is useful when the processor is expected to run only on
 580:Drivers/STM32L4xx_HAL_Driver/Src/stm32l4xx_hal_pwr.c ****   *       interruptions handling.
 581:Drivers/STM32L4xx_HAL_Driver/Src/stm32l4xx_hal_pwr.c ****   * @retval None
 582:Drivers/STM32L4xx_HAL_Driver/Src/stm32l4xx_hal_pwr.c ****   */
ARM GAS  C:\Users\andywei\AppData\Local\Temp\ccNhxarc.s 			page 25


 583:Drivers/STM32L4xx_HAL_Driver/Src/stm32l4xx_hal_pwr.c **** void HAL_PWR_EnableSleepOnExit(void)
 584:Drivers/STM32L4xx_HAL_Driver/Src/stm32l4xx_hal_pwr.c **** {
 783              		.loc 1 584 1 is_stmt 1 view -0
 784              		.cfi_startproc
 785              		@ args = 0, pretend = 0, frame = 0
 786              		@ frame_needed = 0, uses_anonymous_args = 0
 787              		@ link register save eliminated.
 585:Drivers/STM32L4xx_HAL_Driver/Src/stm32l4xx_hal_pwr.c ****   /* Set SLEEPONEXIT bit of Cortex System Control Register */
 586:Drivers/STM32L4xx_HAL_Driver/Src/stm32l4xx_hal_pwr.c ****   SET_BIT(SCB->SCR, ((uint32_t)SCB_SCR_SLEEPONEXIT_Msk));
 788              		.loc 1 586 3 view .LVU143
 789 0000 024A     		ldr	r2, .L67
 790 0002 1369     		ldr	r3, [r2, #16]
 791 0004 43F00203 		orr	r3, r3, #2
 792 0008 1361     		str	r3, [r2, #16]
 587:Drivers/STM32L4xx_HAL_Driver/Src/stm32l4xx_hal_pwr.c **** }
 793              		.loc 1 587 1 is_stmt 0 view .LVU144
 794 000a 7047     		bx	lr
 795              	.L68:
 796              		.align	2
 797              	.L67:
 798 000c 00ED00E0 		.word	-536810240
 799              		.cfi_endproc
 800              	.LFE143:
 802              		.section	.text.HAL_PWR_DisableSleepOnExit,"ax",%progbits
 803              		.align	1
 804              		.global	HAL_PWR_DisableSleepOnExit
 805              		.syntax unified
 806              		.thumb
 807              		.thumb_func
 808              		.fpu fpv4-sp-d16
 810              	HAL_PWR_DisableSleepOnExit:
 811              	.LFB144:
 588:Drivers/STM32L4xx_HAL_Driver/Src/stm32l4xx_hal_pwr.c **** 
 589:Drivers/STM32L4xx_HAL_Driver/Src/stm32l4xx_hal_pwr.c **** 
 590:Drivers/STM32L4xx_HAL_Driver/Src/stm32l4xx_hal_pwr.c **** /**
 591:Drivers/STM32L4xx_HAL_Driver/Src/stm32l4xx_hal_pwr.c ****   * @brief Disable Sleep-On-Exit feature when returning from Handler mode to Thread mode.
 592:Drivers/STM32L4xx_HAL_Driver/Src/stm32l4xx_hal_pwr.c ****   * @note Clear SLEEPONEXIT bit of SCR register. When this bit is set, the processor
 593:Drivers/STM32L4xx_HAL_Driver/Src/stm32l4xx_hal_pwr.c ****   *       re-enters SLEEP mode when an interruption handling is over.
 594:Drivers/STM32L4xx_HAL_Driver/Src/stm32l4xx_hal_pwr.c ****   * @retval None
 595:Drivers/STM32L4xx_HAL_Driver/Src/stm32l4xx_hal_pwr.c ****   */
 596:Drivers/STM32L4xx_HAL_Driver/Src/stm32l4xx_hal_pwr.c **** void HAL_PWR_DisableSleepOnExit(void)
 597:Drivers/STM32L4xx_HAL_Driver/Src/stm32l4xx_hal_pwr.c **** {
 812              		.loc 1 597 1 is_stmt 1 view -0
 813              		.cfi_startproc
 814              		@ args = 0, pretend = 0, frame = 0
 815              		@ frame_needed = 0, uses_anonymous_args = 0
 816              		@ link register save eliminated.
 598:Drivers/STM32L4xx_HAL_Driver/Src/stm32l4xx_hal_pwr.c ****   /* Clear SLEEPONEXIT bit of Cortex System Control Register */
 599:Drivers/STM32L4xx_HAL_Driver/Src/stm32l4xx_hal_pwr.c ****   CLEAR_BIT(SCB->SCR, ((uint32_t)SCB_SCR_SLEEPONEXIT_Msk));
 817              		.loc 1 599 3 view .LVU146
 818 0000 024A     		ldr	r2, .L70
 819 0002 1369     		ldr	r3, [r2, #16]
 820 0004 23F00203 		bic	r3, r3, #2
 821 0008 1361     		str	r3, [r2, #16]
 600:Drivers/STM32L4xx_HAL_Driver/Src/stm32l4xx_hal_pwr.c **** }
 822              		.loc 1 600 1 is_stmt 0 view .LVU147
 823 000a 7047     		bx	lr
ARM GAS  C:\Users\andywei\AppData\Local\Temp\ccNhxarc.s 			page 26


 824              	.L71:
 825              		.align	2
 826              	.L70:
 827 000c 00ED00E0 		.word	-536810240
 828              		.cfi_endproc
 829              	.LFE144:
 831              		.section	.text.HAL_PWR_EnableSEVOnPend,"ax",%progbits
 832              		.align	1
 833              		.global	HAL_PWR_EnableSEVOnPend
 834              		.syntax unified
 835              		.thumb
 836              		.thumb_func
 837              		.fpu fpv4-sp-d16
 839              	HAL_PWR_EnableSEVOnPend:
 840              	.LFB145:
 601:Drivers/STM32L4xx_HAL_Driver/Src/stm32l4xx_hal_pwr.c **** 
 602:Drivers/STM32L4xx_HAL_Driver/Src/stm32l4xx_hal_pwr.c **** 
 603:Drivers/STM32L4xx_HAL_Driver/Src/stm32l4xx_hal_pwr.c **** 
 604:Drivers/STM32L4xx_HAL_Driver/Src/stm32l4xx_hal_pwr.c **** /**
 605:Drivers/STM32L4xx_HAL_Driver/Src/stm32l4xx_hal_pwr.c ****   * @brief Enable CORTEX M4 SEVONPEND bit.
 606:Drivers/STM32L4xx_HAL_Driver/Src/stm32l4xx_hal_pwr.c ****   * @note Set SEVONPEND bit of SCR register. When this bit is set, this causes
 607:Drivers/STM32L4xx_HAL_Driver/Src/stm32l4xx_hal_pwr.c ****   *       WFE to wake up when an interrupt moves from inactive to pended.
 608:Drivers/STM32L4xx_HAL_Driver/Src/stm32l4xx_hal_pwr.c ****   * @retval None
 609:Drivers/STM32L4xx_HAL_Driver/Src/stm32l4xx_hal_pwr.c ****   */
 610:Drivers/STM32L4xx_HAL_Driver/Src/stm32l4xx_hal_pwr.c **** void HAL_PWR_EnableSEVOnPend(void)
 611:Drivers/STM32L4xx_HAL_Driver/Src/stm32l4xx_hal_pwr.c **** {
 841              		.loc 1 611 1 is_stmt 1 view -0
 842              		.cfi_startproc
 843              		@ args = 0, pretend = 0, frame = 0
 844              		@ frame_needed = 0, uses_anonymous_args = 0
 845              		@ link register save eliminated.
 612:Drivers/STM32L4xx_HAL_Driver/Src/stm32l4xx_hal_pwr.c ****   /* Set SEVONPEND bit of Cortex System Control Register */
 613:Drivers/STM32L4xx_HAL_Driver/Src/stm32l4xx_hal_pwr.c ****   SET_BIT(SCB->SCR, ((uint32_t)SCB_SCR_SEVONPEND_Msk));
 846              		.loc 1 613 3 view .LVU149
 847 0000 024A     		ldr	r2, .L73
 848 0002 1369     		ldr	r3, [r2, #16]
 849 0004 43F01003 		orr	r3, r3, #16
 850 0008 1361     		str	r3, [r2, #16]
 614:Drivers/STM32L4xx_HAL_Driver/Src/stm32l4xx_hal_pwr.c **** }
 851              		.loc 1 614 1 is_stmt 0 view .LVU150
 852 000a 7047     		bx	lr
 853              	.L74:
 854              		.align	2
 855              	.L73:
 856 000c 00ED00E0 		.word	-536810240
 857              		.cfi_endproc
 858              	.LFE145:
 860              		.section	.text.HAL_PWR_DisableSEVOnPend,"ax",%progbits
 861              		.align	1
 862              		.global	HAL_PWR_DisableSEVOnPend
 863              		.syntax unified
 864              		.thumb
 865              		.thumb_func
 866              		.fpu fpv4-sp-d16
 868              	HAL_PWR_DisableSEVOnPend:
 869              	.LFB146:
 615:Drivers/STM32L4xx_HAL_Driver/Src/stm32l4xx_hal_pwr.c **** 
ARM GAS  C:\Users\andywei\AppData\Local\Temp\ccNhxarc.s 			page 27


 616:Drivers/STM32L4xx_HAL_Driver/Src/stm32l4xx_hal_pwr.c **** 
 617:Drivers/STM32L4xx_HAL_Driver/Src/stm32l4xx_hal_pwr.c **** /**
 618:Drivers/STM32L4xx_HAL_Driver/Src/stm32l4xx_hal_pwr.c ****   * @brief Disable CORTEX M4 SEVONPEND bit.
 619:Drivers/STM32L4xx_HAL_Driver/Src/stm32l4xx_hal_pwr.c ****   * @note Clear SEVONPEND bit of SCR register. When this bit is set, this causes
 620:Drivers/STM32L4xx_HAL_Driver/Src/stm32l4xx_hal_pwr.c ****   *       WFE to wake up when an interrupt moves from inactive to pended.
 621:Drivers/STM32L4xx_HAL_Driver/Src/stm32l4xx_hal_pwr.c ****   * @retval None
 622:Drivers/STM32L4xx_HAL_Driver/Src/stm32l4xx_hal_pwr.c ****   */
 623:Drivers/STM32L4xx_HAL_Driver/Src/stm32l4xx_hal_pwr.c **** void HAL_PWR_DisableSEVOnPend(void)
 624:Drivers/STM32L4xx_HAL_Driver/Src/stm32l4xx_hal_pwr.c **** {
 870              		.loc 1 624 1 is_stmt 1 view -0
 871              		.cfi_startproc
 872              		@ args = 0, pretend = 0, frame = 0
 873              		@ frame_needed = 0, uses_anonymous_args = 0
 874              		@ link register save eliminated.
 625:Drivers/STM32L4xx_HAL_Driver/Src/stm32l4xx_hal_pwr.c ****   /* Clear SEVONPEND bit of Cortex System Control Register */
 626:Drivers/STM32L4xx_HAL_Driver/Src/stm32l4xx_hal_pwr.c ****   CLEAR_BIT(SCB->SCR, ((uint32_t)SCB_SCR_SEVONPEND_Msk));
 875              		.loc 1 626 3 view .LVU152
 876 0000 024A     		ldr	r2, .L76
 877 0002 1369     		ldr	r3, [r2, #16]
 878 0004 23F01003 		bic	r3, r3, #16
 879 0008 1361     		str	r3, [r2, #16]
 627:Drivers/STM32L4xx_HAL_Driver/Src/stm32l4xx_hal_pwr.c **** }
 880              		.loc 1 627 1 is_stmt 0 view .LVU153
 881 000a 7047     		bx	lr
 882              	.L77:
 883              		.align	2
 884              	.L76:
 885 000c 00ED00E0 		.word	-536810240
 886              		.cfi_endproc
 887              	.LFE146:
 889              		.section	.text.HAL_PWR_PVDCallback,"ax",%progbits
 890              		.align	1
 891              		.weak	HAL_PWR_PVDCallback
 892              		.syntax unified
 893              		.thumb
 894              		.thumb_func
 895              		.fpu fpv4-sp-d16
 897              	HAL_PWR_PVDCallback:
 898              	.LFB147:
 628:Drivers/STM32L4xx_HAL_Driver/Src/stm32l4xx_hal_pwr.c **** 
 629:Drivers/STM32L4xx_HAL_Driver/Src/stm32l4xx_hal_pwr.c **** 
 630:Drivers/STM32L4xx_HAL_Driver/Src/stm32l4xx_hal_pwr.c **** 
 631:Drivers/STM32L4xx_HAL_Driver/Src/stm32l4xx_hal_pwr.c **** 
 632:Drivers/STM32L4xx_HAL_Driver/Src/stm32l4xx_hal_pwr.c **** 
 633:Drivers/STM32L4xx_HAL_Driver/Src/stm32l4xx_hal_pwr.c **** /**
 634:Drivers/STM32L4xx_HAL_Driver/Src/stm32l4xx_hal_pwr.c ****   * @brief PWR PVD interrupt callback
 635:Drivers/STM32L4xx_HAL_Driver/Src/stm32l4xx_hal_pwr.c ****   * @retval None
 636:Drivers/STM32L4xx_HAL_Driver/Src/stm32l4xx_hal_pwr.c ****   */
 637:Drivers/STM32L4xx_HAL_Driver/Src/stm32l4xx_hal_pwr.c **** __weak void HAL_PWR_PVDCallback(void)
 638:Drivers/STM32L4xx_HAL_Driver/Src/stm32l4xx_hal_pwr.c **** {
 899              		.loc 1 638 1 is_stmt 1 view -0
 900              		.cfi_startproc
 901              		@ args = 0, pretend = 0, frame = 0
 902              		@ frame_needed = 0, uses_anonymous_args = 0
 903              		@ link register save eliminated.
 639:Drivers/STM32L4xx_HAL_Driver/Src/stm32l4xx_hal_pwr.c ****   /* NOTE : This function should not be modified; when the callback is needed,
 640:Drivers/STM32L4xx_HAL_Driver/Src/stm32l4xx_hal_pwr.c ****             the HAL_PWR_PVDCallback can be implemented in the user file
ARM GAS  C:\Users\andywei\AppData\Local\Temp\ccNhxarc.s 			page 28


 641:Drivers/STM32L4xx_HAL_Driver/Src/stm32l4xx_hal_pwr.c ****    */
 642:Drivers/STM32L4xx_HAL_Driver/Src/stm32l4xx_hal_pwr.c **** }
 904              		.loc 1 642 1 view .LVU155
 905 0000 7047     		bx	lr
 906              		.cfi_endproc
 907              	.LFE147:
 909              		.text
 910              	.Letext0:
 911              		.file 2 "c:\\program files (x86)\\gnu arm embedded toolchain\\10 2020-q4-major\\arm-none-eabi\\inc
 912              		.file 3 "c:\\program files (x86)\\gnu arm embedded toolchain\\10 2020-q4-major\\arm-none-eabi\\inc
 913              		.file 4 "Drivers/CMSIS/Include/core_cm4.h"
 914              		.file 5 "Drivers/CMSIS/Device/ST/STM32L4xx/Include/stm32l476xx.h"
 915              		.file 6 "Drivers/CMSIS/Device/ST/STM32L4xx/Include/stm32l4xx.h"
 916              		.file 7 "Drivers/STM32L4xx_HAL_Driver/Inc/stm32l4xx_hal_def.h"
 917              		.file 8 "Drivers/STM32L4xx_HAL_Driver/Inc/stm32l4xx_hal_pwr.h"
 918              		.file 9 "Drivers/STM32L4xx_HAL_Driver/Inc/stm32l4xx_hal_pwr_ex.h"
 919              		.file 10 "Core/Inc/stm32l4xx_hal_conf.h"
ARM GAS  C:\Users\andywei\AppData\Local\Temp\ccNhxarc.s 			page 29

