ARM GAS  C:\Users\andywei\AppData\Local\Temp\ccZfFIOd.s 			page 1


   1              		.cpu cortex-m4
   2              		.eabi_attribute 27, 1
   3              		.eabi_attribute 28, 1
   4              		.eabi_attribute 20, 1
   5              		.eabi_attribute 21, 1
   6              		.eabi_attribute 23, 3
   7              		.eabi_attribute 24, 1
   8              		.eabi_attribute 25, 1
   9              		.eabi_attribute 26, 1
  10              		.eabi_attribute 30, 1
  11              		.eabi_attribute 34, 1
  12              		.eabi_attribute 18, 4
  13              		.file	"sx126x.c"
  14              		.text
  15              	.Ltext0:
  16              		.cfi_sections	.debug_frame
  17              		.section	.text.SX126xGetOperatingMode,"ax",%progbits
  18              		.align	1
  19              		.global	SX126xGetOperatingMode
  20              		.arch armv7e-m
  21              		.syntax unified
  22              		.thumb
  23              		.thumb_func
  24              		.fpu fpv4-sp-d16
  26              	SX126xGetOperatingMode:
  27              	.LFB136:
  28              		.file 1 "Core/Src/radio/sx126x/sx126x.c"
   1:Core/Src/radio/sx126x/sx126x.c **** /*!
   2:Core/Src/radio/sx126x/sx126x.c ****  * \file      sx126x.c
   3:Core/Src/radio/sx126x/sx126x.c ****  *
   4:Core/Src/radio/sx126x/sx126x.c ****  * \brief     SX126x driver implementation
   5:Core/Src/radio/sx126x/sx126x.c ****  *
   6:Core/Src/radio/sx126x/sx126x.c ****  * \copyright Revised BSD License, see section \ref LICENSE.
   7:Core/Src/radio/sx126x/sx126x.c ****  *
   8:Core/Src/radio/sx126x/sx126x.c ****  * \code
   9:Core/Src/radio/sx126x/sx126x.c ****  *                ______                              _
  10:Core/Src/radio/sx126x/sx126x.c ****  *               / _____)             _              | |
  11:Core/Src/radio/sx126x/sx126x.c ****  *              ( (____  _____ ____ _| |_ _____  ____| |__
  12:Core/Src/radio/sx126x/sx126x.c ****  *               \____ \| ___ |    (_   _) ___ |/ ___)  _ \
  13:Core/Src/radio/sx126x/sx126x.c ****  *               _____) ) ____| | | || |_| ____( (___| | | |
  14:Core/Src/radio/sx126x/sx126x.c ****  *              (______/|_____)_|_|_| \__)_____)\____)_| |_|
  15:Core/Src/radio/sx126x/sx126x.c ****  *              (C)2013-2017 Semtech
  16:Core/Src/radio/sx126x/sx126x.c ****  *
  17:Core/Src/radio/sx126x/sx126x.c ****  * \endcode
  18:Core/Src/radio/sx126x/sx126x.c ****  *
  19:Core/Src/radio/sx126x/sx126x.c ****  * \author    Miguel Luis ( Semtech )
  20:Core/Src/radio/sx126x/sx126x.c ****  *
  21:Core/Src/radio/sx126x/sx126x.c ****  * \author    Gregory Cristian ( Semtech )
  22:Core/Src/radio/sx126x/sx126x.c ****  */
  23:Core/Src/radio/sx126x/sx126x.c **** #include <math.h>
  24:Core/Src/radio/sx126x/sx126x.c **** #include <string.h>
  25:Core/Src/radio/sx126x/sx126x.c **** #include "board.h"
  26:Core/Src/radio/sx126x/sx126x.c **** #include "sx126x.h"
  27:Core/Src/radio/sx126x/sx126x.c **** #include "sx126x-board.h"
  28:Core/Src/radio/sx126x/sx126x.c **** 
  29:Core/Src/radio/sx126x/sx126x.c **** /*!
  30:Core/Src/radio/sx126x/sx126x.c ****  * \brief Radio registers definition
ARM GAS  C:\Users\andywei\AppData\Local\Temp\ccZfFIOd.s 			page 2


  31:Core/Src/radio/sx126x/sx126x.c ****  */
  32:Core/Src/radio/sx126x/sx126x.c **** typedef struct
  33:Core/Src/radio/sx126x/sx126x.c **** {
  34:Core/Src/radio/sx126x/sx126x.c ****     uint16_t      Addr;                             //!< The address of the register
  35:Core/Src/radio/sx126x/sx126x.c ****     uint8_t       Value;                            //!< The value of the register
  36:Core/Src/radio/sx126x/sx126x.c **** }RadioRegisters_t;
  37:Core/Src/radio/sx126x/sx126x.c **** 
  38:Core/Src/radio/sx126x/sx126x.c **** /*!
  39:Core/Src/radio/sx126x/sx126x.c ****  * \brief Holds the internal operating mode of the radio
  40:Core/Src/radio/sx126x/sx126x.c ****  */
  41:Core/Src/radio/sx126x/sx126x.c **** static RadioOperatingModes_t OperatingMode;
  42:Core/Src/radio/sx126x/sx126x.c **** 
  43:Core/Src/radio/sx126x/sx126x.c **** /*!
  44:Core/Src/radio/sx126x/sx126x.c ****  * \brief Stores the current packet type set in the radio
  45:Core/Src/radio/sx126x/sx126x.c ****  */
  46:Core/Src/radio/sx126x/sx126x.c **** static RadioPacketTypes_t PacketType;
  47:Core/Src/radio/sx126x/sx126x.c **** 
  48:Core/Src/radio/sx126x/sx126x.c **** /*!
  49:Core/Src/radio/sx126x/sx126x.c ****  * \brief Stores the last frequency error measured on LoRa received packet
  50:Core/Src/radio/sx126x/sx126x.c ****  */
  51:Core/Src/radio/sx126x/sx126x.c **** volatile uint32_t FrequencyError = 0;
  52:Core/Src/radio/sx126x/sx126x.c **** 
  53:Core/Src/radio/sx126x/sx126x.c **** /*!
  54:Core/Src/radio/sx126x/sx126x.c ****  * \brief Hold the status of the Image calibration
  55:Core/Src/radio/sx126x/sx126x.c ****  */
  56:Core/Src/radio/sx126x/sx126x.c **** static bool ImageCalibrated = false;
  57:Core/Src/radio/sx126x/sx126x.c **** 
  58:Core/Src/radio/sx126x/sx126x.c **** /*
  59:Core/Src/radio/sx126x/sx126x.c ****  * SX126x DIO IRQ callback functions prototype
  60:Core/Src/radio/sx126x/sx126x.c ****  */
  61:Core/Src/radio/sx126x/sx126x.c **** 
  62:Core/Src/radio/sx126x/sx126x.c **** /*!
  63:Core/Src/radio/sx126x/sx126x.c ****  * \brief DIO 0 IRQ callback
  64:Core/Src/radio/sx126x/sx126x.c ****  */
  65:Core/Src/radio/sx126x/sx126x.c **** void SX126xOnDioIrq( void );
  66:Core/Src/radio/sx126x/sx126x.c **** 
  67:Core/Src/radio/sx126x/sx126x.c **** /*!
  68:Core/Src/radio/sx126x/sx126x.c ****  * \brief DIO 0 IRQ callback
  69:Core/Src/radio/sx126x/sx126x.c ****  */
  70:Core/Src/radio/sx126x/sx126x.c **** void SX126xSetPollingMode( void );
  71:Core/Src/radio/sx126x/sx126x.c **** 
  72:Core/Src/radio/sx126x/sx126x.c **** /*!
  73:Core/Src/radio/sx126x/sx126x.c ****  * \brief DIO 0 IRQ callback
  74:Core/Src/radio/sx126x/sx126x.c ****  */
  75:Core/Src/radio/sx126x/sx126x.c **** void SX126xSetInterruptMode( void );
  76:Core/Src/radio/sx126x/sx126x.c **** 
  77:Core/Src/radio/sx126x/sx126x.c **** /*
  78:Core/Src/radio/sx126x/sx126x.c ****  * \brief Process the IRQ if handled by the driver
  79:Core/Src/radio/sx126x/sx126x.c ****  */
  80:Core/Src/radio/sx126x/sx126x.c **** void SX126xProcessIrqs( void );
  81:Core/Src/radio/sx126x/sx126x.c **** 
  82:Core/Src/radio/sx126x/sx126x.c **** 
  83:Core/Src/radio/sx126x/sx126x.c **** void SX126xInit( DioIrqHandler dioIrq )
  84:Core/Src/radio/sx126x/sx126x.c **** {
  85:Core/Src/radio/sx126x/sx126x.c ****     SX126xReset( );
  86:Core/Src/radio/sx126x/sx126x.c **** 
  87:Core/Src/radio/sx126x/sx126x.c ****     SX126xIoIrqInit( dioIrq );
ARM GAS  C:\Users\andywei\AppData\Local\Temp\ccZfFIOd.s 			page 3


  88:Core/Src/radio/sx126x/sx126x.c **** 
  89:Core/Src/radio/sx126x/sx126x.c ****     SX126xWakeup( );
  90:Core/Src/radio/sx126x/sx126x.c ****     SX126xSetStandby( STDBY_RC );
  91:Core/Src/radio/sx126x/sx126x.c **** 
  92:Core/Src/radio/sx126x/sx126x.c **** // #ifdef USE_TCXO
  93:Core/Src/radio/sx126x/sx126x.c **** //     CalibrationParams_t calibParam;
  94:Core/Src/radio/sx126x/sx126x.c **** 
  95:Core/Src/radio/sx126x/sx126x.c **** //     SX126xSetDio3AsTcxoCtrl( TCXO_CTRL_1_7V, RADIO_TCXO_SETUP_TIME << 6 ); // convert from ms to
  96:Core/Src/radio/sx126x/sx126x.c **** //     calibParam.Value = 0x7F;
  97:Core/Src/radio/sx126x/sx126x.c **** //     SX126xCalibrate( calibParam );
  98:Core/Src/radio/sx126x/sx126x.c **** // #endif
  99:Core/Src/radio/sx126x/sx126x.c **** 
 100:Core/Src/radio/sx126x/sx126x.c ****     SX126xSetDio2AsRfSwitchCtrl( true );
 101:Core/Src/radio/sx126x/sx126x.c ****     OperatingMode = MODE_STDBY_RC;
 102:Core/Src/radio/sx126x/sx126x.c **** }
 103:Core/Src/radio/sx126x/sx126x.c **** 
 104:Core/Src/radio/sx126x/sx126x.c **** RadioOperatingModes_t SX126xGetOperatingMode( void )
 105:Core/Src/radio/sx126x/sx126x.c **** {
  29              		.loc 1 105 1 view -0
  30              		.cfi_startproc
  31              		@ args = 0, pretend = 0, frame = 0
  32              		@ frame_needed = 0, uses_anonymous_args = 0
  33              		@ link register save eliminated.
 106:Core/Src/radio/sx126x/sx126x.c ****     return OperatingMode;
  34              		.loc 1 106 5 view .LVU1
 107:Core/Src/radio/sx126x/sx126x.c **** }
  35              		.loc 1 107 1 is_stmt 0 view .LVU2
  36 0000 014B     		ldr	r3, .L2
  37 0002 1878     		ldrb	r0, [r3]	@ zero_extendqisi2
  38 0004 7047     		bx	lr
  39              	.L3:
  40 0006 00BF     		.align	2
  41              	.L2:
  42 0008 00000000 		.word	.LANCHOR0
  43              		.cfi_endproc
  44              	.LFE136:
  46              		.section	.text.SX126xCheckDeviceReady,"ax",%progbits
  47              		.align	1
  48              		.global	SX126xCheckDeviceReady
  49              		.syntax unified
  50              		.thumb
  51              		.thumb_func
  52              		.fpu fpv4-sp-d16
  54              	SX126xCheckDeviceReady:
  55              	.LFB137:
 108:Core/Src/radio/sx126x/sx126x.c **** 
 109:Core/Src/radio/sx126x/sx126x.c **** void SX126xCheckDeviceReady( void )
 110:Core/Src/radio/sx126x/sx126x.c **** {
  56              		.loc 1 110 1 is_stmt 1 view -0
  57              		.cfi_startproc
  58              		@ args = 0, pretend = 0, frame = 0
  59              		@ frame_needed = 0, uses_anonymous_args = 0
  60 0000 08B5     		push	{r3, lr}
  61              	.LCFI0:
  62              		.cfi_def_cfa_offset 8
  63              		.cfi_offset 3, -8
  64              		.cfi_offset 14, -4
ARM GAS  C:\Users\andywei\AppData\Local\Temp\ccZfFIOd.s 			page 4


 111:Core/Src/radio/sx126x/sx126x.c ****     if( ( SX126xGetOperatingMode( ) == MODE_SLEEP ) || ( SX126xGetOperatingMode( ) == MODE_RX_DC ) 
  65              		.loc 1 111 5 view .LVU4
  66              		.loc 1 111 11 is_stmt 0 view .LVU5
  67 0002 FFF7FEFF 		bl	SX126xGetOperatingMode
  68              	.LVL0:
  69              		.loc 1 111 7 view .LVU6
  70 0006 08B1     		cbz	r0, .L5
  71              		.loc 1 111 53 discriminator 1 view .LVU7
  72 0008 0628     		cmp	r0, #6
  73 000a 03D1     		bne	.L6
  74              	.L5:
 112:Core/Src/radio/sx126x/sx126x.c ****     {
 113:Core/Src/radio/sx126x/sx126x.c ****         SX126xWakeup( );
  75              		.loc 1 113 9 is_stmt 1 view .LVU8
  76 000c FFF7FEFF 		bl	SX126xWakeup
  77              	.LVL1:
 114:Core/Src/radio/sx126x/sx126x.c ****         // Switch is turned off when device is in sleep mode and turned on is all other modes
 115:Core/Src/radio/sx126x/sx126x.c ****         SX126xAntSwOn( );
  78              		.loc 1 115 9 view .LVU9
  79 0010 FFF7FEFF 		bl	SX126xAntSwOn
  80              	.LVL2:
  81              	.L6:
 116:Core/Src/radio/sx126x/sx126x.c ****     }
 117:Core/Src/radio/sx126x/sx126x.c ****     SX126xWaitOnBusy( );
  82              		.loc 1 117 5 view .LVU10
  83 0014 FFF7FEFF 		bl	SX126xWaitOnBusy
  84              	.LVL3:
 118:Core/Src/radio/sx126x/sx126x.c **** }
  85              		.loc 1 118 1 is_stmt 0 view .LVU11
  86 0018 08BD     		pop	{r3, pc}
  87              		.cfi_endproc
  88              	.LFE137:
  90              		.section	.text.SX126xSetPayload,"ax",%progbits
  91              		.align	1
  92              		.global	SX126xSetPayload
  93              		.syntax unified
  94              		.thumb
  95              		.thumb_func
  96              		.fpu fpv4-sp-d16
  98              	SX126xSetPayload:
  99              	.LVL4:
 100              	.LFB138:
 119:Core/Src/radio/sx126x/sx126x.c **** 
 120:Core/Src/radio/sx126x/sx126x.c **** void SX126xSetPayload( uint8_t *payload, uint8_t size )
 121:Core/Src/radio/sx126x/sx126x.c **** {
 101              		.loc 1 121 1 is_stmt 1 view -0
 102              		.cfi_startproc
 103              		@ args = 0, pretend = 0, frame = 0
 104              		@ frame_needed = 0, uses_anonymous_args = 0
 105              		.loc 1 121 1 is_stmt 0 view .LVU13
 106 0000 08B5     		push	{r3, lr}
 107              	.LCFI1:
 108              		.cfi_def_cfa_offset 8
 109              		.cfi_offset 3, -8
 110              		.cfi_offset 14, -4
 111 0002 0A46     		mov	r2, r1
 122:Core/Src/radio/sx126x/sx126x.c ****     SX126xWriteBuffer( 0x00, payload, size );
ARM GAS  C:\Users\andywei\AppData\Local\Temp\ccZfFIOd.s 			page 5


 112              		.loc 1 122 5 is_stmt 1 view .LVU14
 113 0004 0146     		mov	r1, r0
 114              	.LVL5:
 115              		.loc 1 122 5 is_stmt 0 view .LVU15
 116 0006 0020     		movs	r0, #0
 117              	.LVL6:
 118              		.loc 1 122 5 view .LVU16
 119 0008 FFF7FEFF 		bl	SX126xWriteBuffer
 120              	.LVL7:
 123:Core/Src/radio/sx126x/sx126x.c **** }
 121              		.loc 1 123 1 view .LVU17
 122 000c 08BD     		pop	{r3, pc}
 123              		.cfi_endproc
 124              	.LFE138:
 126              		.section	.text.SX126xSetSyncWord,"ax",%progbits
 127              		.align	1
 128              		.global	SX126xSetSyncWord
 129              		.syntax unified
 130              		.thumb
 131              		.thumb_func
 132              		.fpu fpv4-sp-d16
 134              	SX126xSetSyncWord:
 135              	.LVL8:
 136              	.LFB141:
 124:Core/Src/radio/sx126x/sx126x.c **** 
 125:Core/Src/radio/sx126x/sx126x.c **** uint8_t SX126xGetPayload( uint8_t *buffer, uint8_t *size,  uint8_t maxSize )
 126:Core/Src/radio/sx126x/sx126x.c **** {
 127:Core/Src/radio/sx126x/sx126x.c ****     uint8_t offset = 0;
 128:Core/Src/radio/sx126x/sx126x.c **** 
 129:Core/Src/radio/sx126x/sx126x.c ****     SX126xGetRxBufferStatus( size, &offset );
 130:Core/Src/radio/sx126x/sx126x.c ****     if( *size > maxSize )
 131:Core/Src/radio/sx126x/sx126x.c ****     {
 132:Core/Src/radio/sx126x/sx126x.c ****         return 1;
 133:Core/Src/radio/sx126x/sx126x.c ****     }
 134:Core/Src/radio/sx126x/sx126x.c ****     SX126xReadBuffer( offset, buffer, *size );
 135:Core/Src/radio/sx126x/sx126x.c ****     return 0;
 136:Core/Src/radio/sx126x/sx126x.c **** }
 137:Core/Src/radio/sx126x/sx126x.c **** 
 138:Core/Src/radio/sx126x/sx126x.c **** void SX126xSendPayload( uint8_t *payload, uint8_t size, uint32_t timeout )
 139:Core/Src/radio/sx126x/sx126x.c **** {
 140:Core/Src/radio/sx126x/sx126x.c ****     SX126xSetPayload( payload, size );
 141:Core/Src/radio/sx126x/sx126x.c ****     SX126xSetTx( timeout );
 142:Core/Src/radio/sx126x/sx126x.c **** }
 143:Core/Src/radio/sx126x/sx126x.c **** 
 144:Core/Src/radio/sx126x/sx126x.c **** uint8_t SX126xSetSyncWord( uint8_t *syncWord )
 145:Core/Src/radio/sx126x/sx126x.c **** {
 137              		.loc 1 145 1 is_stmt 1 view -0
 138              		.cfi_startproc
 139              		@ args = 0, pretend = 0, frame = 0
 140              		@ frame_needed = 0, uses_anonymous_args = 0
 141              		.loc 1 145 1 is_stmt 0 view .LVU19
 142 0000 08B5     		push	{r3, lr}
 143              	.LCFI2:
 144              		.cfi_def_cfa_offset 8
 145              		.cfi_offset 3, -8
 146              		.cfi_offset 14, -4
 147 0002 0146     		mov	r1, r0
ARM GAS  C:\Users\andywei\AppData\Local\Temp\ccZfFIOd.s 			page 6


 146:Core/Src/radio/sx126x/sx126x.c ****     SX126xWriteRegisters( REG_LR_SYNCWORDBASEADDRESS, syncWord, 8 );
 148              		.loc 1 146 5 is_stmt 1 view .LVU20
 149 0004 0822     		movs	r2, #8
 150 0006 4FF4D860 		mov	r0, #1728
 151              	.LVL9:
 152              		.loc 1 146 5 is_stmt 0 view .LVU21
 153 000a FFF7FEFF 		bl	SX126xWriteRegisters
 154              	.LVL10:
 147:Core/Src/radio/sx126x/sx126x.c ****     return 0;
 155              		.loc 1 147 5 is_stmt 1 view .LVU22
 148:Core/Src/radio/sx126x/sx126x.c **** }
 156              		.loc 1 148 1 is_stmt 0 view .LVU23
 157 000e 0020     		movs	r0, #0
 158 0010 08BD     		pop	{r3, pc}
 159              		.cfi_endproc
 160              	.LFE141:
 162              		.section	.text.SX126xSetSleep,"ax",%progbits
 163              		.align	1
 164              		.global	SX126xSetSleep
 165              		.syntax unified
 166              		.thumb
 167              		.thumb_func
 168              		.fpu fpv4-sp-d16
 170              	SX126xSetSleep:
 171              	.LFB146:
 149:Core/Src/radio/sx126x/sx126x.c **** 
 150:Core/Src/radio/sx126x/sx126x.c **** void SX126xSetCrcSeed( uint16_t seed )
 151:Core/Src/radio/sx126x/sx126x.c **** {
 152:Core/Src/radio/sx126x/sx126x.c ****     uint8_t buf[2];
 153:Core/Src/radio/sx126x/sx126x.c **** 
 154:Core/Src/radio/sx126x/sx126x.c ****     buf[0] = ( uint8_t )( ( seed >> 8 ) & 0xFF );
 155:Core/Src/radio/sx126x/sx126x.c ****     buf[1] = ( uint8_t )( seed & 0xFF );
 156:Core/Src/radio/sx126x/sx126x.c **** 
 157:Core/Src/radio/sx126x/sx126x.c ****     switch( SX126xGetPacketType( ) )
 158:Core/Src/radio/sx126x/sx126x.c ****     {
 159:Core/Src/radio/sx126x/sx126x.c ****         case PACKET_TYPE_GFSK:
 160:Core/Src/radio/sx126x/sx126x.c ****             SX126xWriteRegisters( REG_LR_CRCSEEDBASEADDR, buf, 2 );
 161:Core/Src/radio/sx126x/sx126x.c ****             break;
 162:Core/Src/radio/sx126x/sx126x.c **** 
 163:Core/Src/radio/sx126x/sx126x.c ****         default:
 164:Core/Src/radio/sx126x/sx126x.c ****             break;
 165:Core/Src/radio/sx126x/sx126x.c ****     }
 166:Core/Src/radio/sx126x/sx126x.c **** }
 167:Core/Src/radio/sx126x/sx126x.c **** 
 168:Core/Src/radio/sx126x/sx126x.c **** void SX126xSetCrcPolynomial( uint16_t polynomial )
 169:Core/Src/radio/sx126x/sx126x.c **** {
 170:Core/Src/radio/sx126x/sx126x.c ****     uint8_t buf[2];
 171:Core/Src/radio/sx126x/sx126x.c **** 
 172:Core/Src/radio/sx126x/sx126x.c ****     buf[0] = ( uint8_t )( ( polynomial >> 8 ) & 0xFF );
 173:Core/Src/radio/sx126x/sx126x.c ****     buf[1] = ( uint8_t )( polynomial & 0xFF );
 174:Core/Src/radio/sx126x/sx126x.c **** 
 175:Core/Src/radio/sx126x/sx126x.c ****     switch( SX126xGetPacketType( ) )
 176:Core/Src/radio/sx126x/sx126x.c ****     {
 177:Core/Src/radio/sx126x/sx126x.c ****         case PACKET_TYPE_GFSK:
 178:Core/Src/radio/sx126x/sx126x.c ****             SX126xWriteRegisters( REG_LR_CRCPOLYBASEADDR, buf, 2 );
 179:Core/Src/radio/sx126x/sx126x.c ****             break;
 180:Core/Src/radio/sx126x/sx126x.c **** 
ARM GAS  C:\Users\andywei\AppData\Local\Temp\ccZfFIOd.s 			page 7


 181:Core/Src/radio/sx126x/sx126x.c ****         default:
 182:Core/Src/radio/sx126x/sx126x.c ****             break;
 183:Core/Src/radio/sx126x/sx126x.c ****     }
 184:Core/Src/radio/sx126x/sx126x.c **** }
 185:Core/Src/radio/sx126x/sx126x.c **** 
 186:Core/Src/radio/sx126x/sx126x.c **** void SX126xSetWhiteningSeed( uint16_t seed )
 187:Core/Src/radio/sx126x/sx126x.c **** {
 188:Core/Src/radio/sx126x/sx126x.c ****     uint8_t regValue = 0;
 189:Core/Src/radio/sx126x/sx126x.c ****     
 190:Core/Src/radio/sx126x/sx126x.c ****     switch( SX126xGetPacketType( ) )
 191:Core/Src/radio/sx126x/sx126x.c ****     {
 192:Core/Src/radio/sx126x/sx126x.c ****         case PACKET_TYPE_GFSK:
 193:Core/Src/radio/sx126x/sx126x.c ****             regValue = SX126xReadRegister( REG_LR_WHITSEEDBASEADDR_MSB ) & 0xFE;
 194:Core/Src/radio/sx126x/sx126x.c ****             regValue = ( ( seed >> 8 ) & 0x01 ) | regValue;
 195:Core/Src/radio/sx126x/sx126x.c ****             SX126xWriteRegister( REG_LR_WHITSEEDBASEADDR_MSB, regValue ); // only 1 bit.
 196:Core/Src/radio/sx126x/sx126x.c ****             SX126xWriteRegister( REG_LR_WHITSEEDBASEADDR_LSB, ( uint8_t )seed );
 197:Core/Src/radio/sx126x/sx126x.c ****             break;
 198:Core/Src/radio/sx126x/sx126x.c **** 
 199:Core/Src/radio/sx126x/sx126x.c ****         default:
 200:Core/Src/radio/sx126x/sx126x.c ****             break;
 201:Core/Src/radio/sx126x/sx126x.c ****     }
 202:Core/Src/radio/sx126x/sx126x.c **** }
 203:Core/Src/radio/sx126x/sx126x.c **** 
 204:Core/Src/radio/sx126x/sx126x.c **** uint32_t SX126xGetRandom( void )
 205:Core/Src/radio/sx126x/sx126x.c **** {
 206:Core/Src/radio/sx126x/sx126x.c ****     uint8_t buf[] = { 0, 0, 0, 0 };
 207:Core/Src/radio/sx126x/sx126x.c **** 
 208:Core/Src/radio/sx126x/sx126x.c ****     // Set radio in continuous reception
 209:Core/Src/radio/sx126x/sx126x.c ****     SX126xSetRx( 0 );
 210:Core/Src/radio/sx126x/sx126x.c **** 
 211:Core/Src/radio/sx126x/sx126x.c ****     DelayMs( 1 );
 212:Core/Src/radio/sx126x/sx126x.c **** 
 213:Core/Src/radio/sx126x/sx126x.c ****     SX126xReadRegisters( RANDOM_NUMBER_GENERATORBASEADDR, buf, 4 );
 214:Core/Src/radio/sx126x/sx126x.c **** 
 215:Core/Src/radio/sx126x/sx126x.c ****     SX126xSetStandby( STDBY_RC );
 216:Core/Src/radio/sx126x/sx126x.c **** 
 217:Core/Src/radio/sx126x/sx126x.c ****     return ( buf[0] << 24 ) | ( buf[1] << 16 ) | ( buf[2] << 8 ) | buf[3];
 218:Core/Src/radio/sx126x/sx126x.c **** }
 219:Core/Src/radio/sx126x/sx126x.c **** 
 220:Core/Src/radio/sx126x/sx126x.c **** void SX126xSetSleep( SleepParams_t sleepConfig )
 221:Core/Src/radio/sx126x/sx126x.c **** {
 172              		.loc 1 221 1 is_stmt 1 view -0
 173              		.cfi_startproc
 174              		@ args = 0, pretend = 0, frame = 8
 175              		@ frame_needed = 0, uses_anonymous_args = 0
 176 0000 00B5     		push	{lr}
 177              	.LCFI3:
 178              		.cfi_def_cfa_offset 4
 179              		.cfi_offset 14, -4
 180 0002 83B0     		sub	sp, sp, #12
 181              	.LCFI4:
 182              		.cfi_def_cfa_offset 16
 183 0004 8DF80400 		strb	r0, [sp, #4]
 222:Core/Src/radio/sx126x/sx126x.c ****     SX126xAntSwOff( );
 184              		.loc 1 222 5 view .LVU25
 185 0008 FFF7FEFF 		bl	SX126xAntSwOff
 186              	.LVL11:
ARM GAS  C:\Users\andywei\AppData\Local\Temp\ccZfFIOd.s 			page 8


 223:Core/Src/radio/sx126x/sx126x.c **** 
 224:Core/Src/radio/sx126x/sx126x.c ****     SX126xWriteCommand( RADIO_SET_SLEEP, &sleepConfig.Value, 1 );
 187              		.loc 1 224 5 view .LVU26
 188 000c 0122     		movs	r2, #1
 189 000e 01A9     		add	r1, sp, #4
 190 0010 8420     		movs	r0, #132
 191 0012 FFF7FEFF 		bl	SX126xWriteCommand
 192              	.LVL12:
 225:Core/Src/radio/sx126x/sx126x.c ****     OperatingMode = MODE_SLEEP;
 193              		.loc 1 225 5 view .LVU27
 194              		.loc 1 225 19 is_stmt 0 view .LVU28
 195 0016 034B     		ldr	r3, .L14
 196 0018 0022     		movs	r2, #0
 197 001a 1A70     		strb	r2, [r3]
 226:Core/Src/radio/sx126x/sx126x.c **** }
 198              		.loc 1 226 1 view .LVU29
 199 001c 03B0     		add	sp, sp, #12
 200              	.LCFI5:
 201              		.cfi_def_cfa_offset 4
 202              		@ sp needed
 203 001e 5DF804FB 		ldr	pc, [sp], #4
 204              	.L15:
 205 0022 00BF     		.align	2
 206              	.L14:
 207 0024 00000000 		.word	.LANCHOR0
 208              		.cfi_endproc
 209              	.LFE146:
 211              		.section	.text.SX126xSetStandby,"ax",%progbits
 212              		.align	1
 213              		.global	SX126xSetStandby
 214              		.syntax unified
 215              		.thumb
 216              		.thumb_func
 217              		.fpu fpv4-sp-d16
 219              	SX126xSetStandby:
 220              	.LVL13:
 221              	.LFB147:
 227:Core/Src/radio/sx126x/sx126x.c **** 
 228:Core/Src/radio/sx126x/sx126x.c **** void SX126xSetStandby( RadioStandbyModes_t standbyConfig )
 229:Core/Src/radio/sx126x/sx126x.c **** {
 222              		.loc 1 229 1 is_stmt 1 view -0
 223              		.cfi_startproc
 224              		@ args = 0, pretend = 0, frame = 8
 225              		@ frame_needed = 0, uses_anonymous_args = 0
 226              		.loc 1 229 1 is_stmt 0 view .LVU31
 227 0000 00B5     		push	{lr}
 228              	.LCFI6:
 229              		.cfi_def_cfa_offset 4
 230              		.cfi_offset 14, -4
 231 0002 83B0     		sub	sp, sp, #12
 232              	.LCFI7:
 233              		.cfi_def_cfa_offset 16
 234 0004 8DF80700 		strb	r0, [sp, #7]
 230:Core/Src/radio/sx126x/sx126x.c ****     SX126xWriteCommand( RADIO_SET_STANDBY, ( uint8_t* )&standbyConfig, 1 );
 235              		.loc 1 230 5 is_stmt 1 view .LVU32
 236 0008 0122     		movs	r2, #1
 237 000a 0DF10701 		add	r1, sp, #7
ARM GAS  C:\Users\andywei\AppData\Local\Temp\ccZfFIOd.s 			page 9


 238 000e 8020     		movs	r0, #128
 239              	.LVL14:
 240              		.loc 1 230 5 is_stmt 0 view .LVU33
 241 0010 FFF7FEFF 		bl	SX126xWriteCommand
 242              	.LVL15:
 231:Core/Src/radio/sx126x/sx126x.c ****     if( standbyConfig == STDBY_RC )
 243              		.loc 1 231 5 is_stmt 1 view .LVU34
 244              		.loc 1 231 23 is_stmt 0 view .LVU35
 245 0014 9DF80730 		ldrb	r3, [sp, #7]	@ zero_extendqisi2
 246              		.loc 1 231 7 view .LVU36
 247 0018 2BB9     		cbnz	r3, .L17
 232:Core/Src/radio/sx126x/sx126x.c ****     {
 233:Core/Src/radio/sx126x/sx126x.c ****         OperatingMode = MODE_STDBY_RC;
 248              		.loc 1 233 9 is_stmt 1 view .LVU37
 249              		.loc 1 233 23 is_stmt 0 view .LVU38
 250 001a 054B     		ldr	r3, .L20
 251 001c 0122     		movs	r2, #1
 252 001e 1A70     		strb	r2, [r3]
 253              	.L16:
 234:Core/Src/radio/sx126x/sx126x.c ****     }
 235:Core/Src/radio/sx126x/sx126x.c ****     else
 236:Core/Src/radio/sx126x/sx126x.c ****     {
 237:Core/Src/radio/sx126x/sx126x.c ****         OperatingMode = MODE_STDBY_XOSC;
 238:Core/Src/radio/sx126x/sx126x.c ****     }
 239:Core/Src/radio/sx126x/sx126x.c **** }
 254              		.loc 1 239 1 view .LVU39
 255 0020 03B0     		add	sp, sp, #12
 256              	.LCFI8:
 257              		.cfi_remember_state
 258              		.cfi_def_cfa_offset 4
 259              		@ sp needed
 260 0022 5DF804FB 		ldr	pc, [sp], #4
 261              	.L17:
 262              	.LCFI9:
 263              		.cfi_restore_state
 237:Core/Src/radio/sx126x/sx126x.c ****     }
 264              		.loc 1 237 9 is_stmt 1 view .LVU40
 237:Core/Src/radio/sx126x/sx126x.c ****     }
 265              		.loc 1 237 23 is_stmt 0 view .LVU41
 266 0026 024B     		ldr	r3, .L20
 267 0028 0222     		movs	r2, #2
 268 002a 1A70     		strb	r2, [r3]
 269              		.loc 1 239 1 view .LVU42
 270 002c F8E7     		b	.L16
 271              	.L21:
 272 002e 00BF     		.align	2
 273              	.L20:
 274 0030 00000000 		.word	.LANCHOR0
 275              		.cfi_endproc
 276              	.LFE147:
 278              		.section	.text.SX126xSetFs,"ax",%progbits
 279              		.align	1
 280              		.global	SX126xSetFs
 281              		.syntax unified
 282              		.thumb
 283              		.thumb_func
 284              		.fpu fpv4-sp-d16
ARM GAS  C:\Users\andywei\AppData\Local\Temp\ccZfFIOd.s 			page 10


 286              	SX126xSetFs:
 287              	.LFB148:
 240:Core/Src/radio/sx126x/sx126x.c **** 
 241:Core/Src/radio/sx126x/sx126x.c **** void SX126xSetFs( void )
 242:Core/Src/radio/sx126x/sx126x.c **** {
 288              		.loc 1 242 1 is_stmt 1 view -0
 289              		.cfi_startproc
 290              		@ args = 0, pretend = 0, frame = 0
 291              		@ frame_needed = 0, uses_anonymous_args = 0
 292 0000 08B5     		push	{r3, lr}
 293              	.LCFI10:
 294              		.cfi_def_cfa_offset 8
 295              		.cfi_offset 3, -8
 296              		.cfi_offset 14, -4
 243:Core/Src/radio/sx126x/sx126x.c ****     SX126xWriteCommand( RADIO_SET_FS, 0, 0 );
 297              		.loc 1 243 5 view .LVU44
 298 0002 0022     		movs	r2, #0
 299 0004 1146     		mov	r1, r2
 300 0006 C120     		movs	r0, #193
 301 0008 FFF7FEFF 		bl	SX126xWriteCommand
 302              	.LVL16:
 244:Core/Src/radio/sx126x/sx126x.c ****     OperatingMode = MODE_FS;
 303              		.loc 1 244 5 view .LVU45
 304              		.loc 1 244 19 is_stmt 0 view .LVU46
 305 000c 014B     		ldr	r3, .L24
 306 000e 0322     		movs	r2, #3
 307 0010 1A70     		strb	r2, [r3]
 245:Core/Src/radio/sx126x/sx126x.c **** }
 308              		.loc 1 245 1 view .LVU47
 309 0012 08BD     		pop	{r3, pc}
 310              	.L25:
 311              		.align	2
 312              	.L24:
 313 0014 00000000 		.word	.LANCHOR0
 314              		.cfi_endproc
 315              	.LFE148:
 317              		.section	.text.SX126xSetTx,"ax",%progbits
 318              		.align	1
 319              		.global	SX126xSetTx
 320              		.syntax unified
 321              		.thumb
 322              		.thumb_func
 323              		.fpu fpv4-sp-d16
 325              	SX126xSetTx:
 326              	.LVL17:
 327              	.LFB149:
 246:Core/Src/radio/sx126x/sx126x.c **** 
 247:Core/Src/radio/sx126x/sx126x.c **** void SX126xSetTx( uint32_t timeout )
 248:Core/Src/radio/sx126x/sx126x.c **** {
 328              		.loc 1 248 1 is_stmt 1 view -0
 329              		.cfi_startproc
 330              		@ args = 0, pretend = 0, frame = 8
 331              		@ frame_needed = 0, uses_anonymous_args = 0
 332              		.loc 1 248 1 is_stmt 0 view .LVU49
 333 0000 00B5     		push	{lr}
 334              	.LCFI11:
 335              		.cfi_def_cfa_offset 4
ARM GAS  C:\Users\andywei\AppData\Local\Temp\ccZfFIOd.s 			page 11


 336              		.cfi_offset 14, -4
 337 0002 83B0     		sub	sp, sp, #12
 338              	.LCFI12:
 339              		.cfi_def_cfa_offset 16
 249:Core/Src/radio/sx126x/sx126x.c ****     uint8_t buf[3];
 340              		.loc 1 249 5 is_stmt 1 view .LVU50
 250:Core/Src/radio/sx126x/sx126x.c **** 
 251:Core/Src/radio/sx126x/sx126x.c ****     OperatingMode = MODE_TX;
 341              		.loc 1 251 5 view .LVU51
 342              		.loc 1 251 19 is_stmt 0 view .LVU52
 343 0004 0A4B     		ldr	r3, .L28
 344 0006 0422     		movs	r2, #4
 345 0008 1A70     		strb	r2, [r3]
 252:Core/Src/radio/sx126x/sx126x.c **** 
 253:Core/Src/radio/sx126x/sx126x.c ****     buf[0] = ( uint8_t )( ( timeout >> 16 ) & 0xFF );
 346              		.loc 1 253 5 is_stmt 1 view .LVU53
 347              		.loc 1 253 14 is_stmt 0 view .LVU54
 348 000a C0F30743 		ubfx	r3, r0, #16, #8
 349              		.loc 1 253 12 view .LVU55
 350 000e 8DF80430 		strb	r3, [sp, #4]
 254:Core/Src/radio/sx126x/sx126x.c ****     buf[1] = ( uint8_t )( ( timeout >> 8 ) & 0xFF );
 351              		.loc 1 254 5 is_stmt 1 view .LVU56
 352              		.loc 1 254 14 is_stmt 0 view .LVU57
 353 0012 C0F30723 		ubfx	r3, r0, #8, #8
 354              		.loc 1 254 12 view .LVU58
 355 0016 8DF80530 		strb	r3, [sp, #5]
 255:Core/Src/radio/sx126x/sx126x.c ****     buf[2] = ( uint8_t )( timeout & 0xFF );
 356              		.loc 1 255 5 is_stmt 1 view .LVU59
 357              		.loc 1 255 12 is_stmt 0 view .LVU60
 358 001a 8DF80600 		strb	r0, [sp, #6]
 256:Core/Src/radio/sx126x/sx126x.c ****     SX126xWriteCommand( RADIO_SET_TX, buf, 3 );
 359              		.loc 1 256 5 is_stmt 1 view .LVU61
 360 001e 0322     		movs	r2, #3
 361 0020 01A9     		add	r1, sp, #4
 362 0022 8320     		movs	r0, #131
 363              	.LVL18:
 364              		.loc 1 256 5 is_stmt 0 view .LVU62
 365 0024 FFF7FEFF 		bl	SX126xWriteCommand
 366              	.LVL19:
 257:Core/Src/radio/sx126x/sx126x.c **** }
 367              		.loc 1 257 1 view .LVU63
 368 0028 03B0     		add	sp, sp, #12
 369              	.LCFI13:
 370              		.cfi_def_cfa_offset 4
 371              		@ sp needed
 372 002a 5DF804FB 		ldr	pc, [sp], #4
 373              	.L29:
 374 002e 00BF     		.align	2
 375              	.L28:
 376 0030 00000000 		.word	.LANCHOR0
 377              		.cfi_endproc
 378              	.LFE149:
 380              		.section	.text.SX126xSendPayload,"ax",%progbits
 381              		.align	1
 382              		.global	SX126xSendPayload
 383              		.syntax unified
 384              		.thumb
ARM GAS  C:\Users\andywei\AppData\Local\Temp\ccZfFIOd.s 			page 12


 385              		.thumb_func
 386              		.fpu fpv4-sp-d16
 388              	SX126xSendPayload:
 389              	.LVL20:
 390              	.LFB140:
 139:Core/Src/radio/sx126x/sx126x.c ****     SX126xSetPayload( payload, size );
 391              		.loc 1 139 1 is_stmt 1 view -0
 392              		.cfi_startproc
 393              		@ args = 0, pretend = 0, frame = 0
 394              		@ frame_needed = 0, uses_anonymous_args = 0
 139:Core/Src/radio/sx126x/sx126x.c ****     SX126xSetPayload( payload, size );
 395              		.loc 1 139 1 is_stmt 0 view .LVU65
 396 0000 10B5     		push	{r4, lr}
 397              	.LCFI14:
 398              		.cfi_def_cfa_offset 8
 399              		.cfi_offset 4, -8
 400              		.cfi_offset 14, -4
 401 0002 1446     		mov	r4, r2
 140:Core/Src/radio/sx126x/sx126x.c ****     SX126xSetTx( timeout );
 402              		.loc 1 140 5 is_stmt 1 view .LVU66
 403 0004 FFF7FEFF 		bl	SX126xSetPayload
 404              	.LVL21:
 141:Core/Src/radio/sx126x/sx126x.c **** }
 405              		.loc 1 141 5 view .LVU67
 406 0008 2046     		mov	r0, r4
 407 000a FFF7FEFF 		bl	SX126xSetTx
 408              	.LVL22:
 142:Core/Src/radio/sx126x/sx126x.c **** 
 409              		.loc 1 142 1 is_stmt 0 view .LVU68
 410 000e 10BD     		pop	{r4, pc}
 142:Core/Src/radio/sx126x/sx126x.c **** 
 411              		.loc 1 142 1 view .LVU69
 412              		.cfi_endproc
 413              	.LFE140:
 415              		.section	.text.SX126xSetRx,"ax",%progbits
 416              		.align	1
 417              		.global	SX126xSetRx
 418              		.syntax unified
 419              		.thumb
 420              		.thumb_func
 421              		.fpu fpv4-sp-d16
 423              	SX126xSetRx:
 424              	.LVL23:
 425              	.LFB150:
 258:Core/Src/radio/sx126x/sx126x.c **** 
 259:Core/Src/radio/sx126x/sx126x.c **** void SX126xSetRx( uint32_t timeout )
 260:Core/Src/radio/sx126x/sx126x.c **** {
 426              		.loc 1 260 1 is_stmt 1 view -0
 427              		.cfi_startproc
 428              		@ args = 0, pretend = 0, frame = 8
 429              		@ frame_needed = 0, uses_anonymous_args = 0
 430              		.loc 1 260 1 is_stmt 0 view .LVU71
 431 0000 00B5     		push	{lr}
 432              	.LCFI15:
 433              		.cfi_def_cfa_offset 4
 434              		.cfi_offset 14, -4
 435 0002 83B0     		sub	sp, sp, #12
ARM GAS  C:\Users\andywei\AppData\Local\Temp\ccZfFIOd.s 			page 13


 436              	.LCFI16:
 437              		.cfi_def_cfa_offset 16
 261:Core/Src/radio/sx126x/sx126x.c ****     uint8_t buf[3];
 438              		.loc 1 261 5 is_stmt 1 view .LVU72
 262:Core/Src/radio/sx126x/sx126x.c **** 
 263:Core/Src/radio/sx126x/sx126x.c ****     OperatingMode = MODE_RX;
 439              		.loc 1 263 5 view .LVU73
 440              		.loc 1 263 19 is_stmt 0 view .LVU74
 441 0004 0A4B     		ldr	r3, .L34
 442 0006 0522     		movs	r2, #5
 443 0008 1A70     		strb	r2, [r3]
 264:Core/Src/radio/sx126x/sx126x.c **** 
 265:Core/Src/radio/sx126x/sx126x.c ****     buf[0] = ( uint8_t )( ( timeout >> 16 ) & 0xFF );
 444              		.loc 1 265 5 is_stmt 1 view .LVU75
 445              		.loc 1 265 14 is_stmt 0 view .LVU76
 446 000a C0F30743 		ubfx	r3, r0, #16, #8
 447              		.loc 1 265 12 view .LVU77
 448 000e 8DF80430 		strb	r3, [sp, #4]
 266:Core/Src/radio/sx126x/sx126x.c ****     buf[1] = ( uint8_t )( ( timeout >> 8 ) & 0xFF );
 449              		.loc 1 266 5 is_stmt 1 view .LVU78
 450              		.loc 1 266 14 is_stmt 0 view .LVU79
 451 0012 C0F30723 		ubfx	r3, r0, #8, #8
 452              		.loc 1 266 12 view .LVU80
 453 0016 8DF80530 		strb	r3, [sp, #5]
 267:Core/Src/radio/sx126x/sx126x.c ****     buf[2] = ( uint8_t )( timeout & 0xFF );
 454              		.loc 1 267 5 is_stmt 1 view .LVU81
 455              		.loc 1 267 12 is_stmt 0 view .LVU82
 456 001a 8DF80600 		strb	r0, [sp, #6]
 268:Core/Src/radio/sx126x/sx126x.c ****     SX126xWriteCommand( RADIO_SET_RX, buf, 3 );
 457              		.loc 1 268 5 is_stmt 1 view .LVU83
 458 001e 0322     		movs	r2, #3
 459 0020 01A9     		add	r1, sp, #4
 460 0022 8220     		movs	r0, #130
 461              	.LVL24:
 462              		.loc 1 268 5 is_stmt 0 view .LVU84
 463 0024 FFF7FEFF 		bl	SX126xWriteCommand
 464              	.LVL25:
 269:Core/Src/radio/sx126x/sx126x.c **** }
 465              		.loc 1 269 1 view .LVU85
 466 0028 03B0     		add	sp, sp, #12
 467              	.LCFI17:
 468              		.cfi_def_cfa_offset 4
 469              		@ sp needed
 470 002a 5DF804FB 		ldr	pc, [sp], #4
 471              	.L35:
 472 002e 00BF     		.align	2
 473              	.L34:
 474 0030 00000000 		.word	.LANCHOR0
 475              		.cfi_endproc
 476              	.LFE150:
 478              		.section	.text.SX126xGetRandom,"ax",%progbits
 479              		.align	1
 480              		.global	SX126xGetRandom
 481              		.syntax unified
 482              		.thumb
 483              		.thumb_func
 484              		.fpu fpv4-sp-d16
ARM GAS  C:\Users\andywei\AppData\Local\Temp\ccZfFIOd.s 			page 14


 486              	SX126xGetRandom:
 487              	.LFB145:
 205:Core/Src/radio/sx126x/sx126x.c ****     uint8_t buf[] = { 0, 0, 0, 0 };
 488              		.loc 1 205 1 is_stmt 1 view -0
 489              		.cfi_startproc
 490              		@ args = 0, pretend = 0, frame = 8
 491              		@ frame_needed = 0, uses_anonymous_args = 0
 492 0000 10B5     		push	{r4, lr}
 493              	.LCFI18:
 494              		.cfi_def_cfa_offset 8
 495              		.cfi_offset 4, -8
 496              		.cfi_offset 14, -4
 497 0002 82B0     		sub	sp, sp, #8
 498              	.LCFI19:
 499              		.cfi_def_cfa_offset 16
 206:Core/Src/radio/sx126x/sx126x.c **** 
 500              		.loc 1 206 5 view .LVU87
 206:Core/Src/radio/sx126x/sx126x.c **** 
 501              		.loc 1 206 13 is_stmt 0 view .LVU88
 502 0004 0024     		movs	r4, #0
 503 0006 0194     		str	r4, [sp, #4]
 209:Core/Src/radio/sx126x/sx126x.c **** 
 504              		.loc 1 209 5 is_stmt 1 view .LVU89
 505 0008 2046     		mov	r0, r4
 506 000a FFF7FEFF 		bl	SX126xSetRx
 507              	.LVL26:
 211:Core/Src/radio/sx126x/sx126x.c **** 
 508              		.loc 1 211 5 view .LVU90
 509 000e 0120     		movs	r0, #1
 510 0010 FFF7FEFF 		bl	DelayMs
 511              	.LVL27:
 213:Core/Src/radio/sx126x/sx126x.c **** 
 512              		.loc 1 213 5 view .LVU91
 513 0014 0422     		movs	r2, #4
 514 0016 0DEB0201 		add	r1, sp, r2
 515 001a 40F61900 		movw	r0, #2073
 516 001e FFF7FEFF 		bl	SX126xReadRegisters
 517              	.LVL28:
 215:Core/Src/radio/sx126x/sx126x.c **** 
 518              		.loc 1 215 5 view .LVU92
 519 0022 2046     		mov	r0, r4
 520 0024 FFF7FEFF 		bl	SX126xSetStandby
 521              	.LVL29:
 217:Core/Src/radio/sx126x/sx126x.c **** }
 522              		.loc 1 217 5 view .LVU93
 217:Core/Src/radio/sx126x/sx126x.c **** }
 523              		.loc 1 217 17 is_stmt 0 view .LVU94
 524 0028 9DF80400 		ldrb	r0, [sp, #4]	@ zero_extendqisi2
 217:Core/Src/radio/sx126x/sx126x.c **** }
 525              		.loc 1 217 36 view .LVU95
 526 002c 9DF80530 		ldrb	r3, [sp, #5]	@ zero_extendqisi2
 217:Core/Src/radio/sx126x/sx126x.c **** }
 527              		.loc 1 217 40 view .LVU96
 528 0030 1B04     		lsls	r3, r3, #16
 217:Core/Src/radio/sx126x/sx126x.c **** }
 529              		.loc 1 217 29 view .LVU97
 530 0032 43EA0063 		orr	r3, r3, r0, lsl #24
ARM GAS  C:\Users\andywei\AppData\Local\Temp\ccZfFIOd.s 			page 15


 217:Core/Src/radio/sx126x/sx126x.c **** }
 531              		.loc 1 217 55 view .LVU98
 532 0036 9DF80600 		ldrb	r0, [sp, #6]	@ zero_extendqisi2
 217:Core/Src/radio/sx126x/sx126x.c **** }
 533              		.loc 1 217 48 view .LVU99
 534 003a 43EA0023 		orr	r3, r3, r0, lsl #8
 217:Core/Src/radio/sx126x/sx126x.c **** }
 535              		.loc 1 217 71 view .LVU100
 536 003e 9DF80700 		ldrb	r0, [sp, #7]	@ zero_extendqisi2
 218:Core/Src/radio/sx126x/sx126x.c **** 
 537              		.loc 1 218 1 view .LVU101
 538 0042 1843     		orrs	r0, r0, r3
 539 0044 02B0     		add	sp, sp, #8
 540              	.LCFI20:
 541              		.cfi_def_cfa_offset 8
 542              		@ sp needed
 543 0046 10BD     		pop	{r4, pc}
 544              		.cfi_endproc
 545              	.LFE145:
 547              		.section	.text.SX126xSetRxBoosted,"ax",%progbits
 548              		.align	1
 549              		.global	SX126xSetRxBoosted
 550              		.syntax unified
 551              		.thumb
 552              		.thumb_func
 553              		.fpu fpv4-sp-d16
 555              	SX126xSetRxBoosted:
 556              	.LVL30:
 557              	.LFB151:
 270:Core/Src/radio/sx126x/sx126x.c **** 
 271:Core/Src/radio/sx126x/sx126x.c **** void SX126xSetRxBoosted( uint32_t timeout )
 272:Core/Src/radio/sx126x/sx126x.c **** {
 558              		.loc 1 272 1 is_stmt 1 view -0
 559              		.cfi_startproc
 560              		@ args = 0, pretend = 0, frame = 8
 561              		@ frame_needed = 0, uses_anonymous_args = 0
 562              		.loc 1 272 1 is_stmt 0 view .LVU103
 563 0000 10B5     		push	{r4, lr}
 564              	.LCFI21:
 565              		.cfi_def_cfa_offset 8
 566              		.cfi_offset 4, -8
 567              		.cfi_offset 14, -4
 568 0002 82B0     		sub	sp, sp, #8
 569              	.LCFI22:
 570              		.cfi_def_cfa_offset 16
 571 0004 0446     		mov	r4, r0
 273:Core/Src/radio/sx126x/sx126x.c ****     uint8_t buf[3];
 572              		.loc 1 273 5 is_stmt 1 view .LVU104
 274:Core/Src/radio/sx126x/sx126x.c **** 
 275:Core/Src/radio/sx126x/sx126x.c ****     OperatingMode = MODE_RX;
 573              		.loc 1 275 5 view .LVU105
 574              		.loc 1 275 19 is_stmt 0 view .LVU106
 575 0006 0C4B     		ldr	r3, .L40
 576 0008 0522     		movs	r2, #5
 577 000a 1A70     		strb	r2, [r3]
 276:Core/Src/radio/sx126x/sx126x.c **** 
 277:Core/Src/radio/sx126x/sx126x.c ****     SX126xWriteRegister( REG_RX_GAIN, 0x96 ); // max LNA gain, increase current by ~2mA for around 
ARM GAS  C:\Users\andywei\AppData\Local\Temp\ccZfFIOd.s 			page 16


 578              		.loc 1 277 5 is_stmt 1 view .LVU107
 579 000c 9621     		movs	r1, #150
 580 000e 40F6AC00 		movw	r0, #2220
 581              	.LVL31:
 582              		.loc 1 277 5 is_stmt 0 view .LVU108
 583 0012 FFF7FEFF 		bl	SX126xWriteRegister
 584              	.LVL32:
 278:Core/Src/radio/sx126x/sx126x.c **** 
 279:Core/Src/radio/sx126x/sx126x.c ****     buf[0] = ( uint8_t )( ( timeout >> 16 ) & 0xFF );
 585              		.loc 1 279 5 is_stmt 1 view .LVU109
 586              		.loc 1 279 14 is_stmt 0 view .LVU110
 587 0016 C4F30743 		ubfx	r3, r4, #16, #8
 588              		.loc 1 279 12 view .LVU111
 589 001a 8DF80430 		strb	r3, [sp, #4]
 280:Core/Src/radio/sx126x/sx126x.c ****     buf[1] = ( uint8_t )( ( timeout >> 8 ) & 0xFF );
 590              		.loc 1 280 5 is_stmt 1 view .LVU112
 591              		.loc 1 280 14 is_stmt 0 view .LVU113
 592 001e C4F30723 		ubfx	r3, r4, #8, #8
 593              		.loc 1 280 12 view .LVU114
 594 0022 8DF80530 		strb	r3, [sp, #5]
 281:Core/Src/radio/sx126x/sx126x.c ****     buf[2] = ( uint8_t )( timeout & 0xFF );
 595              		.loc 1 281 5 is_stmt 1 view .LVU115
 596              		.loc 1 281 12 is_stmt 0 view .LVU116
 597 0026 8DF80640 		strb	r4, [sp, #6]
 282:Core/Src/radio/sx126x/sx126x.c ****     SX126xWriteCommand( RADIO_SET_RX, buf, 3 );
 598              		.loc 1 282 5 is_stmt 1 view .LVU117
 599 002a 0322     		movs	r2, #3
 600 002c 01A9     		add	r1, sp, #4
 601 002e 8220     		movs	r0, #130
 602 0030 FFF7FEFF 		bl	SX126xWriteCommand
 603              	.LVL33:
 283:Core/Src/radio/sx126x/sx126x.c **** }
 604              		.loc 1 283 1 is_stmt 0 view .LVU118
 605 0034 02B0     		add	sp, sp, #8
 606              	.LCFI23:
 607              		.cfi_def_cfa_offset 8
 608              		@ sp needed
 609 0036 10BD     		pop	{r4, pc}
 610              	.LVL34:
 611              	.L41:
 612              		.loc 1 283 1 view .LVU119
 613              		.align	2
 614              	.L40:
 615 0038 00000000 		.word	.LANCHOR0
 616              		.cfi_endproc
 617              	.LFE151:
 619              		.section	.text.SX126xSetRxDutyCycle,"ax",%progbits
 620              		.align	1
 621              		.global	SX126xSetRxDutyCycle
 622              		.syntax unified
 623              		.thumb
 624              		.thumb_func
 625              		.fpu fpv4-sp-d16
 627              	SX126xSetRxDutyCycle:
 628              	.LVL35:
 629              	.LFB152:
 284:Core/Src/radio/sx126x/sx126x.c **** 
ARM GAS  C:\Users\andywei\AppData\Local\Temp\ccZfFIOd.s 			page 17


 285:Core/Src/radio/sx126x/sx126x.c **** void SX126xSetRxDutyCycle( uint32_t rxTime, uint32_t sleepTime )
 286:Core/Src/radio/sx126x/sx126x.c **** {
 630              		.loc 1 286 1 is_stmt 1 view -0
 631              		.cfi_startproc
 632              		@ args = 0, pretend = 0, frame = 8
 633              		@ frame_needed = 0, uses_anonymous_args = 0
 634              		.loc 1 286 1 is_stmt 0 view .LVU121
 635 0000 00B5     		push	{lr}
 636              	.LCFI24:
 637              		.cfi_def_cfa_offset 4
 638              		.cfi_offset 14, -4
 639 0002 83B0     		sub	sp, sp, #12
 640              	.LCFI25:
 641              		.cfi_def_cfa_offset 16
 287:Core/Src/radio/sx126x/sx126x.c ****     uint8_t buf[6];
 642              		.loc 1 287 5 is_stmt 1 view .LVU122
 288:Core/Src/radio/sx126x/sx126x.c **** 
 289:Core/Src/radio/sx126x/sx126x.c ****     buf[0] = ( uint8_t )( ( rxTime >> 16 ) & 0xFF );
 643              		.loc 1 289 5 view .LVU123
 644              		.loc 1 289 14 is_stmt 0 view .LVU124
 645 0004 C0F30743 		ubfx	r3, r0, #16, #8
 646              		.loc 1 289 12 view .LVU125
 647 0008 8DF80030 		strb	r3, [sp]
 290:Core/Src/radio/sx126x/sx126x.c ****     buf[1] = ( uint8_t )( ( rxTime >> 8 ) & 0xFF );
 648              		.loc 1 290 5 is_stmt 1 view .LVU126
 649              		.loc 1 290 14 is_stmt 0 view .LVU127
 650 000c C0F30723 		ubfx	r3, r0, #8, #8
 651              		.loc 1 290 12 view .LVU128
 652 0010 8DF80130 		strb	r3, [sp, #1]
 291:Core/Src/radio/sx126x/sx126x.c ****     buf[2] = ( uint8_t )( rxTime & 0xFF );
 653              		.loc 1 291 5 is_stmt 1 view .LVU129
 654              		.loc 1 291 12 is_stmt 0 view .LVU130
 655 0014 8DF80200 		strb	r0, [sp, #2]
 292:Core/Src/radio/sx126x/sx126x.c ****     buf[3] = ( uint8_t )( ( sleepTime >> 16 ) & 0xFF );
 656              		.loc 1 292 5 is_stmt 1 view .LVU131
 657              		.loc 1 292 14 is_stmt 0 view .LVU132
 658 0018 C1F30743 		ubfx	r3, r1, #16, #8
 659              		.loc 1 292 12 view .LVU133
 660 001c 8DF80330 		strb	r3, [sp, #3]
 293:Core/Src/radio/sx126x/sx126x.c ****     buf[4] = ( uint8_t )( ( sleepTime >> 8 ) & 0xFF );
 661              		.loc 1 293 5 is_stmt 1 view .LVU134
 662              		.loc 1 293 14 is_stmt 0 view .LVU135
 663 0020 C1F30723 		ubfx	r3, r1, #8, #8
 664              		.loc 1 293 12 view .LVU136
 665 0024 8DF80430 		strb	r3, [sp, #4]
 294:Core/Src/radio/sx126x/sx126x.c ****     buf[5] = ( uint8_t )( sleepTime & 0xFF );
 666              		.loc 1 294 5 is_stmt 1 view .LVU137
 667              		.loc 1 294 12 is_stmt 0 view .LVU138
 668 0028 8DF80510 		strb	r1, [sp, #5]
 295:Core/Src/radio/sx126x/sx126x.c ****     SX126xWriteCommand( RADIO_SET_RXDUTYCYCLE, buf, 6 );
 669              		.loc 1 295 5 is_stmt 1 view .LVU139
 670 002c 0622     		movs	r2, #6
 671 002e 6946     		mov	r1, sp
 672              	.LVL36:
 673              		.loc 1 295 5 is_stmt 0 view .LVU140
 674 0030 9420     		movs	r0, #148
 675              	.LVL37:
ARM GAS  C:\Users\andywei\AppData\Local\Temp\ccZfFIOd.s 			page 18


 676              		.loc 1 295 5 view .LVU141
 677 0032 FFF7FEFF 		bl	SX126xWriteCommand
 678              	.LVL38:
 296:Core/Src/radio/sx126x/sx126x.c ****     OperatingMode = MODE_RX_DC;
 679              		.loc 1 296 5 is_stmt 1 view .LVU142
 680              		.loc 1 296 19 is_stmt 0 view .LVU143
 681 0036 034B     		ldr	r3, .L44
 682 0038 0622     		movs	r2, #6
 683 003a 1A70     		strb	r2, [r3]
 297:Core/Src/radio/sx126x/sx126x.c **** }
 684              		.loc 1 297 1 view .LVU144
 685 003c 03B0     		add	sp, sp, #12
 686              	.LCFI26:
 687              		.cfi_def_cfa_offset 4
 688              		@ sp needed
 689 003e 5DF804FB 		ldr	pc, [sp], #4
 690              	.L45:
 691 0042 00BF     		.align	2
 692              	.L44:
 693 0044 00000000 		.word	.LANCHOR0
 694              		.cfi_endproc
 695              	.LFE152:
 697              		.section	.text.SX126xSetCad,"ax",%progbits
 698              		.align	1
 699              		.global	SX126xSetCad
 700              		.syntax unified
 701              		.thumb
 702              		.thumb_func
 703              		.fpu fpv4-sp-d16
 705              	SX126xSetCad:
 706              	.LFB153:
 298:Core/Src/radio/sx126x/sx126x.c **** 
 299:Core/Src/radio/sx126x/sx126x.c **** void SX126xSetCad( void )
 300:Core/Src/radio/sx126x/sx126x.c **** {
 707              		.loc 1 300 1 is_stmt 1 view -0
 708              		.cfi_startproc
 709              		@ args = 0, pretend = 0, frame = 0
 710              		@ frame_needed = 0, uses_anonymous_args = 0
 711 0000 08B5     		push	{r3, lr}
 712              	.LCFI27:
 713              		.cfi_def_cfa_offset 8
 714              		.cfi_offset 3, -8
 715              		.cfi_offset 14, -4
 301:Core/Src/radio/sx126x/sx126x.c ****     SX126xWriteCommand( RADIO_SET_CAD, 0, 0 );
 716              		.loc 1 301 5 view .LVU146
 717 0002 0022     		movs	r2, #0
 718 0004 1146     		mov	r1, r2
 719 0006 C520     		movs	r0, #197
 720 0008 FFF7FEFF 		bl	SX126xWriteCommand
 721              	.LVL39:
 302:Core/Src/radio/sx126x/sx126x.c ****     OperatingMode = MODE_CAD;
 722              		.loc 1 302 5 view .LVU147
 723              		.loc 1 302 19 is_stmt 0 view .LVU148
 724 000c 014B     		ldr	r3, .L48
 725 000e 0722     		movs	r2, #7
 726 0010 1A70     		strb	r2, [r3]
 303:Core/Src/radio/sx126x/sx126x.c **** }
ARM GAS  C:\Users\andywei\AppData\Local\Temp\ccZfFIOd.s 			page 19


 727              		.loc 1 303 1 view .LVU149
 728 0012 08BD     		pop	{r3, pc}
 729              	.L49:
 730              		.align	2
 731              	.L48:
 732 0014 00000000 		.word	.LANCHOR0
 733              		.cfi_endproc
 734              	.LFE153:
 736              		.section	.text.SX126xSetTxContinuousWave,"ax",%progbits
 737              		.align	1
 738              		.global	SX126xSetTxContinuousWave
 739              		.syntax unified
 740              		.thumb
 741              		.thumb_func
 742              		.fpu fpv4-sp-d16
 744              	SX126xSetTxContinuousWave:
 745              	.LFB154:
 304:Core/Src/radio/sx126x/sx126x.c **** 
 305:Core/Src/radio/sx126x/sx126x.c **** void SX126xSetTxContinuousWave( void )
 306:Core/Src/radio/sx126x/sx126x.c **** {
 746              		.loc 1 306 1 is_stmt 1 view -0
 747              		.cfi_startproc
 748              		@ args = 0, pretend = 0, frame = 0
 749              		@ frame_needed = 0, uses_anonymous_args = 0
 750 0000 08B5     		push	{r3, lr}
 751              	.LCFI28:
 752              		.cfi_def_cfa_offset 8
 753              		.cfi_offset 3, -8
 754              		.cfi_offset 14, -4
 307:Core/Src/radio/sx126x/sx126x.c ****     SX126xWriteCommand( RADIO_SET_TXCONTINUOUSWAVE, 0, 0 );
 755              		.loc 1 307 5 view .LVU151
 756 0002 0022     		movs	r2, #0
 757 0004 1146     		mov	r1, r2
 758 0006 D120     		movs	r0, #209
 759 0008 FFF7FEFF 		bl	SX126xWriteCommand
 760              	.LVL40:
 308:Core/Src/radio/sx126x/sx126x.c **** }
 761              		.loc 1 308 1 is_stmt 0 view .LVU152
 762 000c 08BD     		pop	{r3, pc}
 763              		.cfi_endproc
 764              	.LFE154:
 766              		.section	.text.SX126xSetTxInfinitePreamble,"ax",%progbits
 767              		.align	1
 768              		.global	SX126xSetTxInfinitePreamble
 769              		.syntax unified
 770              		.thumb
 771              		.thumb_func
 772              		.fpu fpv4-sp-d16
 774              	SX126xSetTxInfinitePreamble:
 775              	.LFB155:
 309:Core/Src/radio/sx126x/sx126x.c **** 
 310:Core/Src/radio/sx126x/sx126x.c **** void SX126xSetTxInfinitePreamble( void )
 311:Core/Src/radio/sx126x/sx126x.c **** {
 776              		.loc 1 311 1 is_stmt 1 view -0
 777              		.cfi_startproc
 778              		@ args = 0, pretend = 0, frame = 0
 779              		@ frame_needed = 0, uses_anonymous_args = 0
ARM GAS  C:\Users\andywei\AppData\Local\Temp\ccZfFIOd.s 			page 20


 780 0000 08B5     		push	{r3, lr}
 781              	.LCFI29:
 782              		.cfi_def_cfa_offset 8
 783              		.cfi_offset 3, -8
 784              		.cfi_offset 14, -4
 312:Core/Src/radio/sx126x/sx126x.c ****     SX126xWriteCommand( RADIO_SET_TXCONTINUOUSPREAMBLE, 0, 0 );
 785              		.loc 1 312 5 view .LVU154
 786 0002 0022     		movs	r2, #0
 787 0004 1146     		mov	r1, r2
 788 0006 D220     		movs	r0, #210
 789 0008 FFF7FEFF 		bl	SX126xWriteCommand
 790              	.LVL41:
 313:Core/Src/radio/sx126x/sx126x.c **** }
 791              		.loc 1 313 1 is_stmt 0 view .LVU155
 792 000c 08BD     		pop	{r3, pc}
 793              		.cfi_endproc
 794              	.LFE155:
 796              		.section	.text.SX126xSetStopRxTimerOnPreambleDetect,"ax",%progbits
 797              		.align	1
 798              		.global	SX126xSetStopRxTimerOnPreambleDetect
 799              		.syntax unified
 800              		.thumb
 801              		.thumb_func
 802              		.fpu fpv4-sp-d16
 804              	SX126xSetStopRxTimerOnPreambleDetect:
 805              	.LVL42:
 806              	.LFB156:
 314:Core/Src/radio/sx126x/sx126x.c **** 
 315:Core/Src/radio/sx126x/sx126x.c **** void SX126xSetStopRxTimerOnPreambleDetect( bool enable )
 316:Core/Src/radio/sx126x/sx126x.c **** {
 807              		.loc 1 316 1 is_stmt 1 view -0
 808              		.cfi_startproc
 809              		@ args = 0, pretend = 0, frame = 8
 810              		@ frame_needed = 0, uses_anonymous_args = 0
 811              		.loc 1 316 1 is_stmt 0 view .LVU157
 812 0000 00B5     		push	{lr}
 813              	.LCFI30:
 814              		.cfi_def_cfa_offset 4
 815              		.cfi_offset 14, -4
 816 0002 83B0     		sub	sp, sp, #12
 817              	.LCFI31:
 818              		.cfi_def_cfa_offset 16
 819 0004 8DF80700 		strb	r0, [sp, #7]
 317:Core/Src/radio/sx126x/sx126x.c ****     SX126xWriteCommand( RADIO_SET_STOPRXTIMERONPREAMBLE, ( uint8_t* )&enable, 1 );
 820              		.loc 1 317 5 is_stmt 1 view .LVU158
 821 0008 0122     		movs	r2, #1
 822 000a 0DF10701 		add	r1, sp, #7
 823 000e 9F20     		movs	r0, #159
 824              	.LVL43:
 825              		.loc 1 317 5 is_stmt 0 view .LVU159
 826 0010 FFF7FEFF 		bl	SX126xWriteCommand
 827              	.LVL44:
 318:Core/Src/radio/sx126x/sx126x.c **** }
 828              		.loc 1 318 1 view .LVU160
 829 0014 03B0     		add	sp, sp, #12
 830              	.LCFI32:
 831              		.cfi_def_cfa_offset 4
ARM GAS  C:\Users\andywei\AppData\Local\Temp\ccZfFIOd.s 			page 21


 832              		@ sp needed
 833 0016 5DF804FB 		ldr	pc, [sp], #4
 834              		.cfi_endproc
 835              	.LFE156:
 837              		.section	.text.SX126xSetLoRaSymbNumTimeout,"ax",%progbits
 838              		.align	1
 839              		.global	SX126xSetLoRaSymbNumTimeout
 840              		.syntax unified
 841              		.thumb
 842              		.thumb_func
 843              		.fpu fpv4-sp-d16
 845              	SX126xSetLoRaSymbNumTimeout:
 846              	.LVL45:
 847              	.LFB157:
 319:Core/Src/radio/sx126x/sx126x.c **** 
 320:Core/Src/radio/sx126x/sx126x.c **** void SX126xSetLoRaSymbNumTimeout( uint8_t SymbNum )
 321:Core/Src/radio/sx126x/sx126x.c **** {
 848              		.loc 1 321 1 is_stmt 1 view -0
 849              		.cfi_startproc
 850              		@ args = 0, pretend = 0, frame = 8
 851              		@ frame_needed = 0, uses_anonymous_args = 0
 852              		.loc 1 321 1 is_stmt 0 view .LVU162
 853 0000 00B5     		push	{lr}
 854              	.LCFI33:
 855              		.cfi_def_cfa_offset 4
 856              		.cfi_offset 14, -4
 857 0002 83B0     		sub	sp, sp, #12
 858              	.LCFI34:
 859              		.cfi_def_cfa_offset 16
 860 0004 8DF80700 		strb	r0, [sp, #7]
 322:Core/Src/radio/sx126x/sx126x.c ****     SX126xWriteCommand( RADIO_SET_LORASYMBTIMEOUT, &SymbNum, 1 );
 861              		.loc 1 322 5 is_stmt 1 view .LVU163
 862 0008 0122     		movs	r2, #1
 863 000a 0DF10701 		add	r1, sp, #7
 864 000e A020     		movs	r0, #160
 865              	.LVL46:
 866              		.loc 1 322 5 is_stmt 0 view .LVU164
 867 0010 FFF7FEFF 		bl	SX126xWriteCommand
 868              	.LVL47:
 323:Core/Src/radio/sx126x/sx126x.c **** }
 869              		.loc 1 323 1 view .LVU165
 870 0014 03B0     		add	sp, sp, #12
 871              	.LCFI35:
 872              		.cfi_def_cfa_offset 4
 873              		@ sp needed
 874 0016 5DF804FB 		ldr	pc, [sp], #4
 875              		.cfi_endproc
 876              	.LFE157:
 878              		.section	.text.SX126xSetRegulatorMode,"ax",%progbits
 879              		.align	1
 880              		.global	SX126xSetRegulatorMode
 881              		.syntax unified
 882              		.thumb
 883              		.thumb_func
 884              		.fpu fpv4-sp-d16
 886              	SX126xSetRegulatorMode:
 887              	.LVL48:
ARM GAS  C:\Users\andywei\AppData\Local\Temp\ccZfFIOd.s 			page 22


 888              	.LFB158:
 324:Core/Src/radio/sx126x/sx126x.c **** 
 325:Core/Src/radio/sx126x/sx126x.c **** void SX126xSetRegulatorMode( RadioRegulatorMode_t mode )
 326:Core/Src/radio/sx126x/sx126x.c **** {
 889              		.loc 1 326 1 is_stmt 1 view -0
 890              		.cfi_startproc
 891              		@ args = 0, pretend = 0, frame = 8
 892              		@ frame_needed = 0, uses_anonymous_args = 0
 893              		.loc 1 326 1 is_stmt 0 view .LVU167
 894 0000 00B5     		push	{lr}
 895              	.LCFI36:
 896              		.cfi_def_cfa_offset 4
 897              		.cfi_offset 14, -4
 898 0002 83B0     		sub	sp, sp, #12
 899              	.LCFI37:
 900              		.cfi_def_cfa_offset 16
 901 0004 8DF80700 		strb	r0, [sp, #7]
 327:Core/Src/radio/sx126x/sx126x.c ****     SX126xWriteCommand( RADIO_SET_REGULATORMODE, ( uint8_t* )&mode, 1 );
 902              		.loc 1 327 5 is_stmt 1 view .LVU168
 903 0008 0122     		movs	r2, #1
 904 000a 0DF10701 		add	r1, sp, #7
 905 000e 9620     		movs	r0, #150
 906              	.LVL49:
 907              		.loc 1 327 5 is_stmt 0 view .LVU169
 908 0010 FFF7FEFF 		bl	SX126xWriteCommand
 909              	.LVL50:
 328:Core/Src/radio/sx126x/sx126x.c **** }
 910              		.loc 1 328 1 view .LVU170
 911 0014 03B0     		add	sp, sp, #12
 912              	.LCFI38:
 913              		.cfi_def_cfa_offset 4
 914              		@ sp needed
 915 0016 5DF804FB 		ldr	pc, [sp], #4
 916              		.cfi_endproc
 917              	.LFE158:
 919              		.section	.text.SX126xCalibrate,"ax",%progbits
 920              		.align	1
 921              		.global	SX126xCalibrate
 922              		.syntax unified
 923              		.thumb
 924              		.thumb_func
 925              		.fpu fpv4-sp-d16
 927              	SX126xCalibrate:
 928              	.LFB159:
 329:Core/Src/radio/sx126x/sx126x.c **** 
 330:Core/Src/radio/sx126x/sx126x.c **** void SX126xCalibrate( CalibrationParams_t calibParam )
 331:Core/Src/radio/sx126x/sx126x.c **** {
 929              		.loc 1 331 1 is_stmt 1 view -0
 930              		.cfi_startproc
 931              		@ args = 0, pretend = 0, frame = 8
 932              		@ frame_needed = 0, uses_anonymous_args = 0
 933 0000 00B5     		push	{lr}
 934              	.LCFI39:
 935              		.cfi_def_cfa_offset 4
 936              		.cfi_offset 14, -4
 937 0002 83B0     		sub	sp, sp, #12
 938              	.LCFI40:
ARM GAS  C:\Users\andywei\AppData\Local\Temp\ccZfFIOd.s 			page 23


 939              		.cfi_def_cfa_offset 16
 940 0004 8DF80400 		strb	r0, [sp, #4]
 332:Core/Src/radio/sx126x/sx126x.c ****     SX126xWriteCommand( RADIO_CALIBRATE, ( uint8_t* )&calibParam, 1 );
 941              		.loc 1 332 5 view .LVU172
 942 0008 0122     		movs	r2, #1
 943 000a 01A9     		add	r1, sp, #4
 944 000c 8920     		movs	r0, #137
 945 000e FFF7FEFF 		bl	SX126xWriteCommand
 946              	.LVL51:
 333:Core/Src/radio/sx126x/sx126x.c **** }
 947              		.loc 1 333 1 is_stmt 0 view .LVU173
 948 0012 03B0     		add	sp, sp, #12
 949              	.LCFI41:
 950              		.cfi_def_cfa_offset 4
 951              		@ sp needed
 952 0014 5DF804FB 		ldr	pc, [sp], #4
 953              		.cfi_endproc
 954              	.LFE159:
 956              		.section	.text.SX126xCalibrateImage,"ax",%progbits
 957              		.align	1
 958              		.global	SX126xCalibrateImage
 959              		.syntax unified
 960              		.thumb
 961              		.thumb_func
 962              		.fpu fpv4-sp-d16
 964              	SX126xCalibrateImage:
 965              	.LVL52:
 966              	.LFB160:
 334:Core/Src/radio/sx126x/sx126x.c **** 
 335:Core/Src/radio/sx126x/sx126x.c **** void SX126xCalibrateImage( uint32_t freq )
 336:Core/Src/radio/sx126x/sx126x.c **** {
 967              		.loc 1 336 1 is_stmt 1 view -0
 968              		.cfi_startproc
 969              		@ args = 0, pretend = 0, frame = 8
 970              		@ frame_needed = 0, uses_anonymous_args = 0
 971              		.loc 1 336 1 is_stmt 0 view .LVU175
 972 0000 00B5     		push	{lr}
 973              	.LCFI42:
 974              		.cfi_def_cfa_offset 4
 975              		.cfi_offset 14, -4
 976 0002 83B0     		sub	sp, sp, #12
 977              	.LCFI43:
 978              		.cfi_def_cfa_offset 16
 337:Core/Src/radio/sx126x/sx126x.c ****     uint8_t calFreq[2];
 979              		.loc 1 337 5 is_stmt 1 view .LVU176
 338:Core/Src/radio/sx126x/sx126x.c **** 
 339:Core/Src/radio/sx126x/sx126x.c ****     if( freq > 900000000 )
 980              		.loc 1 339 5 view .LVU177
 981              		.loc 1 339 7 is_stmt 0 view .LVU178
 982 0004 1C4B     		ldr	r3, .L69
 983 0006 9842     		cmp	r0, r3
 984 0008 0DD9     		bls	.L63
 340:Core/Src/radio/sx126x/sx126x.c ****     {
 341:Core/Src/radio/sx126x/sx126x.c ****         calFreq[0] = 0xE1;
 985              		.loc 1 341 9 is_stmt 1 view .LVU179
 986              		.loc 1 341 20 is_stmt 0 view .LVU180
 987 000a E123     		movs	r3, #225
ARM GAS  C:\Users\andywei\AppData\Local\Temp\ccZfFIOd.s 			page 24


 988 000c 8DF80430 		strb	r3, [sp, #4]
 342:Core/Src/radio/sx126x/sx126x.c ****         calFreq[1] = 0xE9;
 989              		.loc 1 342 9 is_stmt 1 view .LVU181
 990              		.loc 1 342 20 is_stmt 0 view .LVU182
 991 0010 E923     		movs	r3, #233
 992 0012 8DF80530 		strb	r3, [sp, #5]
 993              	.L64:
 343:Core/Src/radio/sx126x/sx126x.c ****     }
 344:Core/Src/radio/sx126x/sx126x.c ****     else if( freq > 850000000 )
 345:Core/Src/radio/sx126x/sx126x.c ****     {
 346:Core/Src/radio/sx126x/sx126x.c ****         calFreq[0] = 0xD7;
 347:Core/Src/radio/sx126x/sx126x.c ****         calFreq[1] = 0xDB;
 348:Core/Src/radio/sx126x/sx126x.c ****     }
 349:Core/Src/radio/sx126x/sx126x.c ****     else if( freq > 770000000 )
 350:Core/Src/radio/sx126x/sx126x.c ****     {
 351:Core/Src/radio/sx126x/sx126x.c ****         calFreq[0] = 0xC1;
 352:Core/Src/radio/sx126x/sx126x.c ****         calFreq[1] = 0xC5;
 353:Core/Src/radio/sx126x/sx126x.c ****     }
 354:Core/Src/radio/sx126x/sx126x.c ****     else if( freq > 460000000 )
 355:Core/Src/radio/sx126x/sx126x.c ****     {
 356:Core/Src/radio/sx126x/sx126x.c ****         calFreq[0] = 0x75;
 357:Core/Src/radio/sx126x/sx126x.c ****         calFreq[1] = 0x81;
 358:Core/Src/radio/sx126x/sx126x.c ****     }
 359:Core/Src/radio/sx126x/sx126x.c ****     else if( freq > 425000000 )
 360:Core/Src/radio/sx126x/sx126x.c ****     {
 361:Core/Src/radio/sx126x/sx126x.c ****         calFreq[0] = 0x6B;
 362:Core/Src/radio/sx126x/sx126x.c ****         calFreq[1] = 0x6F;
 363:Core/Src/radio/sx126x/sx126x.c ****     }
 364:Core/Src/radio/sx126x/sx126x.c ****     SX126xWriteCommand( RADIO_CALIBRATEIMAGE, calFreq, 2 );
 994              		.loc 1 364 5 is_stmt 1 view .LVU183
 995 0016 0222     		movs	r2, #2
 996 0018 01A9     		add	r1, sp, #4
 997 001a 9820     		movs	r0, #152
 998              	.LVL53:
 999              		.loc 1 364 5 is_stmt 0 view .LVU184
 1000 001c FFF7FEFF 		bl	SX126xWriteCommand
 1001              	.LVL54:
 365:Core/Src/radio/sx126x/sx126x.c **** }
 1002              		.loc 1 365 1 view .LVU185
 1003 0020 03B0     		add	sp, sp, #12
 1004              	.LCFI44:
 1005              		.cfi_remember_state
 1006              		.cfi_def_cfa_offset 4
 1007              		@ sp needed
 1008 0022 5DF804FB 		ldr	pc, [sp], #4
 1009              	.LVL55:
 1010              	.L63:
 1011              	.LCFI45:
 1012              		.cfi_restore_state
 344:Core/Src/radio/sx126x/sx126x.c ****     {
 1013              		.loc 1 344 10 is_stmt 1 view .LVU186
 344:Core/Src/radio/sx126x/sx126x.c ****     {
 1014              		.loc 1 344 12 is_stmt 0 view .LVU187
 1015 0026 154B     		ldr	r3, .L69+4
 1016 0028 9842     		cmp	r0, r3
 1017 002a 06D9     		bls	.L65
 346:Core/Src/radio/sx126x/sx126x.c ****         calFreq[1] = 0xDB;
ARM GAS  C:\Users\andywei\AppData\Local\Temp\ccZfFIOd.s 			page 25


 1018              		.loc 1 346 9 is_stmt 1 view .LVU188
 346:Core/Src/radio/sx126x/sx126x.c ****         calFreq[1] = 0xDB;
 1019              		.loc 1 346 20 is_stmt 0 view .LVU189
 1020 002c D723     		movs	r3, #215
 1021 002e 8DF80430 		strb	r3, [sp, #4]
 347:Core/Src/radio/sx126x/sx126x.c ****     }
 1022              		.loc 1 347 9 is_stmt 1 view .LVU190
 347:Core/Src/radio/sx126x/sx126x.c ****     }
 1023              		.loc 1 347 20 is_stmt 0 view .LVU191
 1024 0032 DB23     		movs	r3, #219
 1025 0034 8DF80530 		strb	r3, [sp, #5]
 1026 0038 EDE7     		b	.L64
 1027              	.L65:
 349:Core/Src/radio/sx126x/sx126x.c ****     {
 1028              		.loc 1 349 10 is_stmt 1 view .LVU192
 349:Core/Src/radio/sx126x/sx126x.c ****     {
 1029              		.loc 1 349 12 is_stmt 0 view .LVU193
 1030 003a 114B     		ldr	r3, .L69+8
 1031 003c 9842     		cmp	r0, r3
 1032 003e 06D9     		bls	.L66
 351:Core/Src/radio/sx126x/sx126x.c ****         calFreq[1] = 0xC5;
 1033              		.loc 1 351 9 is_stmt 1 view .LVU194
 351:Core/Src/radio/sx126x/sx126x.c ****         calFreq[1] = 0xC5;
 1034              		.loc 1 351 20 is_stmt 0 view .LVU195
 1035 0040 C123     		movs	r3, #193
 1036 0042 8DF80430 		strb	r3, [sp, #4]
 352:Core/Src/radio/sx126x/sx126x.c ****     }
 1037              		.loc 1 352 9 is_stmt 1 view .LVU196
 352:Core/Src/radio/sx126x/sx126x.c ****     }
 1038              		.loc 1 352 20 is_stmt 0 view .LVU197
 1039 0046 C523     		movs	r3, #197
 1040 0048 8DF80530 		strb	r3, [sp, #5]
 1041 004c E3E7     		b	.L64
 1042              	.L66:
 354:Core/Src/radio/sx126x/sx126x.c ****     {
 1043              		.loc 1 354 10 is_stmt 1 view .LVU198
 354:Core/Src/radio/sx126x/sx126x.c ****     {
 1044              		.loc 1 354 12 is_stmt 0 view .LVU199
 1045 004e 0D4B     		ldr	r3, .L69+12
 1046 0050 9842     		cmp	r0, r3
 1047 0052 06D9     		bls	.L67
 356:Core/Src/radio/sx126x/sx126x.c ****         calFreq[1] = 0x81;
 1048              		.loc 1 356 9 is_stmt 1 view .LVU200
 356:Core/Src/radio/sx126x/sx126x.c ****         calFreq[1] = 0x81;
 1049              		.loc 1 356 20 is_stmt 0 view .LVU201
 1050 0054 7523     		movs	r3, #117
 1051 0056 8DF80430 		strb	r3, [sp, #4]
 357:Core/Src/radio/sx126x/sx126x.c ****     }
 1052              		.loc 1 357 9 is_stmt 1 view .LVU202
 357:Core/Src/radio/sx126x/sx126x.c ****     }
 1053              		.loc 1 357 20 is_stmt 0 view .LVU203
 1054 005a 8123     		movs	r3, #129
 1055 005c 8DF80530 		strb	r3, [sp, #5]
 1056 0060 D9E7     		b	.L64
 1057              	.L67:
 359:Core/Src/radio/sx126x/sx126x.c ****     {
 1058              		.loc 1 359 10 is_stmt 1 view .LVU204
ARM GAS  C:\Users\andywei\AppData\Local\Temp\ccZfFIOd.s 			page 26


 359:Core/Src/radio/sx126x/sx126x.c ****     {
 1059              		.loc 1 359 12 is_stmt 0 view .LVU205
 1060 0062 094B     		ldr	r3, .L69+16
 1061 0064 9842     		cmp	r0, r3
 1062 0066 D6D9     		bls	.L64
 361:Core/Src/radio/sx126x/sx126x.c ****         calFreq[1] = 0x6F;
 1063              		.loc 1 361 9 is_stmt 1 view .LVU206
 361:Core/Src/radio/sx126x/sx126x.c ****         calFreq[1] = 0x6F;
 1064              		.loc 1 361 20 is_stmt 0 view .LVU207
 1065 0068 6B23     		movs	r3, #107
 1066 006a 8DF80430 		strb	r3, [sp, #4]
 362:Core/Src/radio/sx126x/sx126x.c ****     }
 1067              		.loc 1 362 9 is_stmt 1 view .LVU208
 362:Core/Src/radio/sx126x/sx126x.c ****     }
 1068              		.loc 1 362 20 is_stmt 0 view .LVU209
 1069 006e 6F23     		movs	r3, #111
 1070 0070 8DF80530 		strb	r3, [sp, #5]
 1071 0074 CFE7     		b	.L64
 1072              	.L70:
 1073 0076 00BF     		.align	2
 1074              	.L69:
 1075 0078 00E9A435 		.word	900000000
 1076 007c 80F8A932 		.word	850000000
 1077 0080 8044E52D 		.word	770000000
 1078 0084 000B6B1B 		.word	460000000
 1079 0088 40FC5419 		.word	425000000
 1080              		.cfi_endproc
 1081              	.LFE160:
 1083              		.section	.text.SX126xSetPaConfig,"ax",%progbits
 1084              		.align	1
 1085              		.global	SX126xSetPaConfig
 1086              		.syntax unified
 1087              		.thumb
 1088              		.thumb_func
 1089              		.fpu fpv4-sp-d16
 1091              	SX126xSetPaConfig:
 1092              	.LVL56:
 1093              	.LFB161:
 366:Core/Src/radio/sx126x/sx126x.c **** 
 367:Core/Src/radio/sx126x/sx126x.c **** void SX126xSetPaConfig( uint8_t paDutyCycle, uint8_t hpMax, uint8_t deviceSel, uint8_t paLut )
 368:Core/Src/radio/sx126x/sx126x.c **** {
 1094              		.loc 1 368 1 is_stmt 1 view -0
 1095              		.cfi_startproc
 1096              		@ args = 0, pretend = 0, frame = 8
 1097              		@ frame_needed = 0, uses_anonymous_args = 0
 1098              		.loc 1 368 1 is_stmt 0 view .LVU211
 1099 0000 00B5     		push	{lr}
 1100              	.LCFI46:
 1101              		.cfi_def_cfa_offset 4
 1102              		.cfi_offset 14, -4
 1103 0002 83B0     		sub	sp, sp, #12
 1104              	.LCFI47:
 1105              		.cfi_def_cfa_offset 16
 369:Core/Src/radio/sx126x/sx126x.c ****     uint8_t buf[4];
 1106              		.loc 1 369 5 is_stmt 1 view .LVU212
 370:Core/Src/radio/sx126x/sx126x.c **** 
 371:Core/Src/radio/sx126x/sx126x.c ****     buf[0] = paDutyCycle;
ARM GAS  C:\Users\andywei\AppData\Local\Temp\ccZfFIOd.s 			page 27


 1107              		.loc 1 371 5 view .LVU213
 1108              		.loc 1 371 12 is_stmt 0 view .LVU214
 1109 0004 8DF80400 		strb	r0, [sp, #4]
 372:Core/Src/radio/sx126x/sx126x.c ****     buf[1] = hpMax;
 1110              		.loc 1 372 5 is_stmt 1 view .LVU215
 1111              		.loc 1 372 12 is_stmt 0 view .LVU216
 1112 0008 8DF80510 		strb	r1, [sp, #5]
 373:Core/Src/radio/sx126x/sx126x.c ****     buf[2] = deviceSel;
 1113              		.loc 1 373 5 is_stmt 1 view .LVU217
 1114              		.loc 1 373 12 is_stmt 0 view .LVU218
 1115 000c 8DF80620 		strb	r2, [sp, #6]
 374:Core/Src/radio/sx126x/sx126x.c ****     buf[3] = paLut;
 1116              		.loc 1 374 5 is_stmt 1 view .LVU219
 1117              		.loc 1 374 12 is_stmt 0 view .LVU220
 1118 0010 8DF80730 		strb	r3, [sp, #7]
 375:Core/Src/radio/sx126x/sx126x.c ****     SX126xWriteCommand( RADIO_SET_PACONFIG, buf, 4 );
 1119              		.loc 1 375 5 is_stmt 1 view .LVU221
 1120 0014 0422     		movs	r2, #4
 1121              	.LVL57:
 1122              		.loc 1 375 5 is_stmt 0 view .LVU222
 1123 0016 0DEB0201 		add	r1, sp, r2
 1124              	.LVL58:
 1125              		.loc 1 375 5 view .LVU223
 1126 001a 9520     		movs	r0, #149
 1127              	.LVL59:
 1128              		.loc 1 375 5 view .LVU224
 1129 001c FFF7FEFF 		bl	SX126xWriteCommand
 1130              	.LVL60:
 376:Core/Src/radio/sx126x/sx126x.c **** }
 1131              		.loc 1 376 1 view .LVU225
 1132 0020 03B0     		add	sp, sp, #12
 1133              	.LCFI48:
 1134              		.cfi_def_cfa_offset 4
 1135              		@ sp needed
 1136 0022 5DF804FB 		ldr	pc, [sp], #4
 1137              		.cfi_endproc
 1138              	.LFE161:
 1140              		.section	.text.SX126xSetRxTxFallbackMode,"ax",%progbits
 1141              		.align	1
 1142              		.global	SX126xSetRxTxFallbackMode
 1143              		.syntax unified
 1144              		.thumb
 1145              		.thumb_func
 1146              		.fpu fpv4-sp-d16
 1148              	SX126xSetRxTxFallbackMode:
 1149              	.LVL61:
 1150              	.LFB162:
 377:Core/Src/radio/sx126x/sx126x.c **** 
 378:Core/Src/radio/sx126x/sx126x.c **** void SX126xSetRxTxFallbackMode( uint8_t fallbackMode )
 379:Core/Src/radio/sx126x/sx126x.c **** {
 1151              		.loc 1 379 1 is_stmt 1 view -0
 1152              		.cfi_startproc
 1153              		@ args = 0, pretend = 0, frame = 8
 1154              		@ frame_needed = 0, uses_anonymous_args = 0
 1155              		.loc 1 379 1 is_stmt 0 view .LVU227
 1156 0000 00B5     		push	{lr}
 1157              	.LCFI49:
ARM GAS  C:\Users\andywei\AppData\Local\Temp\ccZfFIOd.s 			page 28


 1158              		.cfi_def_cfa_offset 4
 1159              		.cfi_offset 14, -4
 1160 0002 83B0     		sub	sp, sp, #12
 1161              	.LCFI50:
 1162              		.cfi_def_cfa_offset 16
 1163 0004 8DF80700 		strb	r0, [sp, #7]
 380:Core/Src/radio/sx126x/sx126x.c ****     SX126xWriteCommand( RADIO_SET_TXFALLBACKMODE, &fallbackMode, 1 );
 1164              		.loc 1 380 5 is_stmt 1 view .LVU228
 1165 0008 0122     		movs	r2, #1
 1166 000a 0DF10701 		add	r1, sp, #7
 1167 000e 9320     		movs	r0, #147
 1168              	.LVL62:
 1169              		.loc 1 380 5 is_stmt 0 view .LVU229
 1170 0010 FFF7FEFF 		bl	SX126xWriteCommand
 1171              	.LVL63:
 381:Core/Src/radio/sx126x/sx126x.c **** }
 1172              		.loc 1 381 1 view .LVU230
 1173 0014 03B0     		add	sp, sp, #12
 1174              	.LCFI51:
 1175              		.cfi_def_cfa_offset 4
 1176              		@ sp needed
 1177 0016 5DF804FB 		ldr	pc, [sp], #4
 1178              		.cfi_endproc
 1179              	.LFE162:
 1181              		.section	.text.SX126xSetDioIrqParams,"ax",%progbits
 1182              		.align	1
 1183              		.global	SX126xSetDioIrqParams
 1184              		.syntax unified
 1185              		.thumb
 1186              		.thumb_func
 1187              		.fpu fpv4-sp-d16
 1189              	SX126xSetDioIrqParams:
 1190              	.LVL64:
 1191              	.LFB163:
 382:Core/Src/radio/sx126x/sx126x.c **** 
 383:Core/Src/radio/sx126x/sx126x.c **** void SX126xSetDioIrqParams( uint16_t irqMask, uint16_t dio1Mask, uint16_t dio2Mask, uint16_t dio3Ma
 384:Core/Src/radio/sx126x/sx126x.c **** {
 1192              		.loc 1 384 1 is_stmt 1 view -0
 1193              		.cfi_startproc
 1194              		@ args = 0, pretend = 0, frame = 8
 1195              		@ frame_needed = 0, uses_anonymous_args = 0
 1196              		.loc 1 384 1 is_stmt 0 view .LVU232
 1197 0000 00B5     		push	{lr}
 1198              	.LCFI52:
 1199              		.cfi_def_cfa_offset 4
 1200              		.cfi_offset 14, -4
 1201 0002 83B0     		sub	sp, sp, #12
 1202              	.LCFI53:
 1203              		.cfi_def_cfa_offset 16
 385:Core/Src/radio/sx126x/sx126x.c ****     uint8_t buf[8];
 1204              		.loc 1 385 5 is_stmt 1 view .LVU233
 386:Core/Src/radio/sx126x/sx126x.c **** 
 387:Core/Src/radio/sx126x/sx126x.c ****     buf[0] = ( uint8_t )( ( irqMask >> 8 ) & 0x00FF );
 1205              		.loc 1 387 5 view .LVU234
 1206              		.loc 1 387 14 is_stmt 0 view .LVU235
 1207 0004 4FEA102C 		lsr	ip, r0, #8
 1208              		.loc 1 387 12 view .LVU236
ARM GAS  C:\Users\andywei\AppData\Local\Temp\ccZfFIOd.s 			page 29


 1209 0008 8DF800C0 		strb	ip, [sp]
 388:Core/Src/radio/sx126x/sx126x.c ****     buf[1] = ( uint8_t )( irqMask & 0x00FF );
 1210              		.loc 1 388 5 is_stmt 1 view .LVU237
 1211              		.loc 1 388 12 is_stmt 0 view .LVU238
 1212 000c 8DF80100 		strb	r0, [sp, #1]
 389:Core/Src/radio/sx126x/sx126x.c ****     buf[2] = ( uint8_t )( ( dio1Mask >> 8 ) & 0x00FF );
 1213              		.loc 1 389 5 is_stmt 1 view .LVU239
 1214              		.loc 1 389 14 is_stmt 0 view .LVU240
 1215 0010 080A     		lsrs	r0, r1, #8
 1216              	.LVL65:
 1217              		.loc 1 389 12 view .LVU241
 1218 0012 8DF80200 		strb	r0, [sp, #2]
 390:Core/Src/radio/sx126x/sx126x.c ****     buf[3] = ( uint8_t )( dio1Mask & 0x00FF );
 1219              		.loc 1 390 5 is_stmt 1 view .LVU242
 1220              		.loc 1 390 12 is_stmt 0 view .LVU243
 1221 0016 8DF80310 		strb	r1, [sp, #3]
 391:Core/Src/radio/sx126x/sx126x.c ****     buf[4] = ( uint8_t )( ( dio2Mask >> 8 ) & 0x00FF );
 1222              		.loc 1 391 5 is_stmt 1 view .LVU244
 1223              		.loc 1 391 14 is_stmt 0 view .LVU245
 1224 001a 110A     		lsrs	r1, r2, #8
 1225              	.LVL66:
 1226              		.loc 1 391 12 view .LVU246
 1227 001c 8DF80410 		strb	r1, [sp, #4]
 392:Core/Src/radio/sx126x/sx126x.c ****     buf[5] = ( uint8_t )( dio2Mask & 0x00FF );
 1228              		.loc 1 392 5 is_stmt 1 view .LVU247
 1229              		.loc 1 392 12 is_stmt 0 view .LVU248
 1230 0020 8DF80520 		strb	r2, [sp, #5]
 393:Core/Src/radio/sx126x/sx126x.c ****     buf[6] = ( uint8_t )( ( dio3Mask >> 8 ) & 0x00FF );
 1231              		.loc 1 393 5 is_stmt 1 view .LVU249
 1232              		.loc 1 393 14 is_stmt 0 view .LVU250
 1233 0024 1A0A     		lsrs	r2, r3, #8
 1234              	.LVL67:
 1235              		.loc 1 393 12 view .LVU251
 1236 0026 8DF80620 		strb	r2, [sp, #6]
 394:Core/Src/radio/sx126x/sx126x.c ****     buf[7] = ( uint8_t )( dio3Mask & 0x00FF );
 1237              		.loc 1 394 5 is_stmt 1 view .LVU252
 1238              		.loc 1 394 12 is_stmt 0 view .LVU253
 1239 002a 8DF80730 		strb	r3, [sp, #7]
 395:Core/Src/radio/sx126x/sx126x.c ****     SX126xWriteCommand( RADIO_CFG_DIOIRQ, buf, 8 );
 1240              		.loc 1 395 5 is_stmt 1 view .LVU254
 1241 002e 0822     		movs	r2, #8
 1242 0030 6946     		mov	r1, sp
 1243 0032 1046     		mov	r0, r2
 1244 0034 FFF7FEFF 		bl	SX126xWriteCommand
 1245              	.LVL68:
 396:Core/Src/radio/sx126x/sx126x.c **** }
 1246              		.loc 1 396 1 is_stmt 0 view .LVU255
 1247 0038 03B0     		add	sp, sp, #12
 1248              	.LCFI54:
 1249              		.cfi_def_cfa_offset 4
 1250              		@ sp needed
 1251 003a 5DF804FB 		ldr	pc, [sp], #4
 1252              		.cfi_endproc
 1253              	.LFE163:
 1255              		.section	.text.SX126xGetIrqStatus,"ax",%progbits
 1256              		.align	1
 1257              		.global	SX126xGetIrqStatus
ARM GAS  C:\Users\andywei\AppData\Local\Temp\ccZfFIOd.s 			page 30


 1258              		.syntax unified
 1259              		.thumb
 1260              		.thumb_func
 1261              		.fpu fpv4-sp-d16
 1263              	SX126xGetIrqStatus:
 1264              	.LFB164:
 397:Core/Src/radio/sx126x/sx126x.c **** 
 398:Core/Src/radio/sx126x/sx126x.c **** uint16_t SX126xGetIrqStatus( void )
 399:Core/Src/radio/sx126x/sx126x.c **** {
 1265              		.loc 1 399 1 is_stmt 1 view -0
 1266              		.cfi_startproc
 1267              		@ args = 0, pretend = 0, frame = 8
 1268              		@ frame_needed = 0, uses_anonymous_args = 0
 1269 0000 00B5     		push	{lr}
 1270              	.LCFI55:
 1271              		.cfi_def_cfa_offset 4
 1272              		.cfi_offset 14, -4
 1273 0002 83B0     		sub	sp, sp, #12
 1274              	.LCFI56:
 1275              		.cfi_def_cfa_offset 16
 400:Core/Src/radio/sx126x/sx126x.c ****     uint8_t irqStatus[2];
 1276              		.loc 1 400 5 view .LVU257
 401:Core/Src/radio/sx126x/sx126x.c **** 
 402:Core/Src/radio/sx126x/sx126x.c ****     SX126xReadCommand( RADIO_GET_IRQSTATUS, irqStatus, 2 );
 1277              		.loc 1 402 5 view .LVU258
 1278 0004 0222     		movs	r2, #2
 1279 0006 01A9     		add	r1, sp, #4
 1280 0008 1220     		movs	r0, #18
 1281 000a FFF7FEFF 		bl	SX126xReadCommand
 1282              	.LVL69:
 403:Core/Src/radio/sx126x/sx126x.c ****     return ( irqStatus[0] << 8 ) | irqStatus[1];
 1283              		.loc 1 403 5 view .LVU259
 1284              		.loc 1 403 23 is_stmt 0 view .LVU260
 1285 000e 9DF80400 		ldrb	r0, [sp, #4]	@ zero_extendqisi2
 1286              		.loc 1 403 45 view .LVU261
 1287 0012 9DF80530 		ldrb	r3, [sp, #5]	@ zero_extendqisi2
 404:Core/Src/radio/sx126x/sx126x.c **** }
 1288              		.loc 1 404 1 view .LVU262
 1289 0016 43EA0020 		orr	r0, r3, r0, lsl #8
 1290 001a 03B0     		add	sp, sp, #12
 1291              	.LCFI57:
 1292              		.cfi_def_cfa_offset 4
 1293              		@ sp needed
 1294 001c 5DF804FB 		ldr	pc, [sp], #4
 1295              		.cfi_endproc
 1296              	.LFE164:
 1298              		.section	.text.SX126xSetDio2AsRfSwitchCtrl,"ax",%progbits
 1299              		.align	1
 1300              		.global	SX126xSetDio2AsRfSwitchCtrl
 1301              		.syntax unified
 1302              		.thumb
 1303              		.thumb_func
 1304              		.fpu fpv4-sp-d16
 1306              	SX126xSetDio2AsRfSwitchCtrl:
 1307              	.LVL70:
 1308              	.LFB165:
 405:Core/Src/radio/sx126x/sx126x.c **** 
ARM GAS  C:\Users\andywei\AppData\Local\Temp\ccZfFIOd.s 			page 31


 406:Core/Src/radio/sx126x/sx126x.c **** void SX126xSetDio2AsRfSwitchCtrl( uint8_t enable )
 407:Core/Src/radio/sx126x/sx126x.c **** {
 1309              		.loc 1 407 1 is_stmt 1 view -0
 1310              		.cfi_startproc
 1311              		@ args = 0, pretend = 0, frame = 8
 1312              		@ frame_needed = 0, uses_anonymous_args = 0
 1313              		.loc 1 407 1 is_stmt 0 view .LVU264
 1314 0000 00B5     		push	{lr}
 1315              	.LCFI58:
 1316              		.cfi_def_cfa_offset 4
 1317              		.cfi_offset 14, -4
 1318 0002 83B0     		sub	sp, sp, #12
 1319              	.LCFI59:
 1320              		.cfi_def_cfa_offset 16
 1321 0004 8DF80700 		strb	r0, [sp, #7]
 408:Core/Src/radio/sx126x/sx126x.c ****     SX126xWriteCommand( RADIO_SET_RFSWITCHMODE, &enable, 1 );
 1322              		.loc 1 408 5 is_stmt 1 view .LVU265
 1323 0008 0122     		movs	r2, #1
 1324 000a 0DF10701 		add	r1, sp, #7
 1325 000e 9D20     		movs	r0, #157
 1326              	.LVL71:
 1327              		.loc 1 408 5 is_stmt 0 view .LVU266
 1328 0010 FFF7FEFF 		bl	SX126xWriteCommand
 1329              	.LVL72:
 409:Core/Src/radio/sx126x/sx126x.c **** }
 1330              		.loc 1 409 1 view .LVU267
 1331 0014 03B0     		add	sp, sp, #12
 1332              	.LCFI60:
 1333              		.cfi_def_cfa_offset 4
 1334              		@ sp needed
 1335 0016 5DF804FB 		ldr	pc, [sp], #4
 1336              		.cfi_endproc
 1337              	.LFE165:
 1339              		.section	.text.SX126xInit,"ax",%progbits
 1340              		.align	1
 1341              		.global	SX126xInit
 1342              		.syntax unified
 1343              		.thumb
 1344              		.thumb_func
 1345              		.fpu fpv4-sp-d16
 1347              	SX126xInit:
 1348              	.LVL73:
 1349              	.LFB135:
  84:Core/Src/radio/sx126x/sx126x.c ****     SX126xReset( );
 1350              		.loc 1 84 1 is_stmt 1 view -0
 1351              		.cfi_startproc
 1352              		@ args = 0, pretend = 0, frame = 0
 1353              		@ frame_needed = 0, uses_anonymous_args = 0
  84:Core/Src/radio/sx126x/sx126x.c ****     SX126xReset( );
 1354              		.loc 1 84 1 is_stmt 0 view .LVU269
 1355 0000 10B5     		push	{r4, lr}
 1356              	.LCFI61:
 1357              		.cfi_def_cfa_offset 8
 1358              		.cfi_offset 4, -8
 1359              		.cfi_offset 14, -4
 1360 0002 0446     		mov	r4, r0
  85:Core/Src/radio/sx126x/sx126x.c **** 
ARM GAS  C:\Users\andywei\AppData\Local\Temp\ccZfFIOd.s 			page 32


 1361              		.loc 1 85 5 is_stmt 1 view .LVU270
 1362 0004 FFF7FEFF 		bl	SX126xReset
 1363              	.LVL74:
  87:Core/Src/radio/sx126x/sx126x.c **** 
 1364              		.loc 1 87 5 view .LVU271
 1365 0008 2046     		mov	r0, r4
 1366 000a FFF7FEFF 		bl	SX126xIoIrqInit
 1367              	.LVL75:
  89:Core/Src/radio/sx126x/sx126x.c ****     SX126xSetStandby( STDBY_RC );
 1368              		.loc 1 89 5 view .LVU272
 1369 000e FFF7FEFF 		bl	SX126xWakeup
 1370              	.LVL76:
  90:Core/Src/radio/sx126x/sx126x.c **** 
 1371              		.loc 1 90 5 view .LVU273
 1372 0012 0020     		movs	r0, #0
 1373 0014 FFF7FEFF 		bl	SX126xSetStandby
 1374              	.LVL77:
 100:Core/Src/radio/sx126x/sx126x.c ****     OperatingMode = MODE_STDBY_RC;
 1375              		.loc 1 100 5 view .LVU274
 1376 0018 0120     		movs	r0, #1
 1377 001a FFF7FEFF 		bl	SX126xSetDio2AsRfSwitchCtrl
 1378              	.LVL78:
 101:Core/Src/radio/sx126x/sx126x.c **** }
 1379              		.loc 1 101 5 view .LVU275
 101:Core/Src/radio/sx126x/sx126x.c **** }
 1380              		.loc 1 101 19 is_stmt 0 view .LVU276
 1381 001e 024B     		ldr	r3, .L83
 1382 0020 0122     		movs	r2, #1
 1383 0022 1A70     		strb	r2, [r3]
 102:Core/Src/radio/sx126x/sx126x.c **** 
 1384              		.loc 1 102 1 view .LVU277
 1385 0024 10BD     		pop	{r4, pc}
 1386              	.LVL79:
 1387              	.L84:
 102:Core/Src/radio/sx126x/sx126x.c **** 
 1388              		.loc 1 102 1 view .LVU278
 1389 0026 00BF     		.align	2
 1390              	.L83:
 1391 0028 00000000 		.word	.LANCHOR0
 1392              		.cfi_endproc
 1393              	.LFE135:
 1395              		.section	.text.SX126xSetDio3AsTcxoCtrl,"ax",%progbits
 1396              		.align	1
 1397              		.global	SX126xSetDio3AsTcxoCtrl
 1398              		.syntax unified
 1399              		.thumb
 1400              		.thumb_func
 1401              		.fpu fpv4-sp-d16
 1403              	SX126xSetDio3AsTcxoCtrl:
 1404              	.LVL80:
 1405              	.LFB166:
 410:Core/Src/radio/sx126x/sx126x.c **** 
 411:Core/Src/radio/sx126x/sx126x.c **** void SX126xSetDio3AsTcxoCtrl( RadioTcxoCtrlVoltage_t tcxoVoltage, uint32_t timeout )
 412:Core/Src/radio/sx126x/sx126x.c **** {
 1406              		.loc 1 412 1 is_stmt 1 view -0
 1407              		.cfi_startproc
 1408              		@ args = 0, pretend = 0, frame = 8
ARM GAS  C:\Users\andywei\AppData\Local\Temp\ccZfFIOd.s 			page 33


 1409              		@ frame_needed = 0, uses_anonymous_args = 0
 1410              		.loc 1 412 1 is_stmt 0 view .LVU280
 1411 0000 00B5     		push	{lr}
 1412              	.LCFI62:
 1413              		.cfi_def_cfa_offset 4
 1414              		.cfi_offset 14, -4
 1415 0002 83B0     		sub	sp, sp, #12
 1416              	.LCFI63:
 1417              		.cfi_def_cfa_offset 16
 413:Core/Src/radio/sx126x/sx126x.c ****     uint8_t buf[4];
 1418              		.loc 1 413 5 is_stmt 1 view .LVU281
 414:Core/Src/radio/sx126x/sx126x.c **** 
 415:Core/Src/radio/sx126x/sx126x.c ****     buf[0] = tcxoVoltage & 0x07;
 1419              		.loc 1 415 5 view .LVU282
 1420              		.loc 1 415 26 is_stmt 0 view .LVU283
 1421 0004 00F00700 		and	r0, r0, #7
 1422              	.LVL81:
 1423              		.loc 1 415 12 view .LVU284
 1424 0008 8DF80400 		strb	r0, [sp, #4]
 416:Core/Src/radio/sx126x/sx126x.c ****     buf[1] = ( uint8_t )( ( timeout >> 16 ) & 0xFF );
 1425              		.loc 1 416 5 is_stmt 1 view .LVU285
 1426              		.loc 1 416 14 is_stmt 0 view .LVU286
 1427 000c C1F30743 		ubfx	r3, r1, #16, #8
 1428              		.loc 1 416 12 view .LVU287
 1429 0010 8DF80530 		strb	r3, [sp, #5]
 417:Core/Src/radio/sx126x/sx126x.c ****     buf[2] = ( uint8_t )( ( timeout >> 8 ) & 0xFF );
 1430              		.loc 1 417 5 is_stmt 1 view .LVU288
 1431              		.loc 1 417 14 is_stmt 0 view .LVU289
 1432 0014 C1F30723 		ubfx	r3, r1, #8, #8
 1433              		.loc 1 417 12 view .LVU290
 1434 0018 8DF80630 		strb	r3, [sp, #6]
 418:Core/Src/radio/sx126x/sx126x.c ****     buf[3] = ( uint8_t )( timeout & 0xFF );
 1435              		.loc 1 418 5 is_stmt 1 view .LVU291
 1436              		.loc 1 418 12 is_stmt 0 view .LVU292
 1437 001c 8DF80710 		strb	r1, [sp, #7]
 419:Core/Src/radio/sx126x/sx126x.c **** 
 420:Core/Src/radio/sx126x/sx126x.c ****     SX126xWriteCommand( RADIO_SET_TCXOMODE, buf, 4 );
 1438              		.loc 1 420 5 is_stmt 1 view .LVU293
 1439 0020 0422     		movs	r2, #4
 1440 0022 0DEB0201 		add	r1, sp, r2
 1441              	.LVL82:
 1442              		.loc 1 420 5 is_stmt 0 view .LVU294
 1443 0026 9720     		movs	r0, #151
 1444 0028 FFF7FEFF 		bl	SX126xWriteCommand
 1445              	.LVL83:
 421:Core/Src/radio/sx126x/sx126x.c **** }
 1446              		.loc 1 421 1 view .LVU295
 1447 002c 03B0     		add	sp, sp, #12
 1448              	.LCFI64:
 1449              		.cfi_def_cfa_offset 4
 1450              		@ sp needed
 1451 002e 5DF804FB 		ldr	pc, [sp], #4
 1452              		.cfi_endproc
 1453              	.LFE166:
 1455              		.global	__aeabi_ui2d
 1456              		.global	__aeabi_ddiv
 1457              		.global	__aeabi_d2uiz
ARM GAS  C:\Users\andywei\AppData\Local\Temp\ccZfFIOd.s 			page 34


 1458              		.section	.text.SX126xSetRfFrequency,"ax",%progbits
 1459              		.align	1
 1460              		.global	SX126xSetRfFrequency
 1461              		.syntax unified
 1462              		.thumb
 1463              		.thumb_func
 1464              		.fpu fpv4-sp-d16
 1466              	SX126xSetRfFrequency:
 1467              	.LVL84:
 1468              	.LFB167:
 422:Core/Src/radio/sx126x/sx126x.c **** 
 423:Core/Src/radio/sx126x/sx126x.c **** void SX126xSetRfFrequency( uint32_t frequency )
 424:Core/Src/radio/sx126x/sx126x.c **** {
 1469              		.loc 1 424 1 is_stmt 1 view -0
 1470              		.cfi_startproc
 1471              		@ args = 0, pretend = 0, frame = 8
 1472              		@ frame_needed = 0, uses_anonymous_args = 0
 1473              		.loc 1 424 1 is_stmt 0 view .LVU297
 1474 0000 10B5     		push	{r4, lr}
 1475              	.LCFI65:
 1476              		.cfi_def_cfa_offset 8
 1477              		.cfi_offset 4, -8
 1478              		.cfi_offset 14, -4
 1479 0002 82B0     		sub	sp, sp, #8
 1480              	.LCFI66:
 1481              		.cfi_def_cfa_offset 16
 1482 0004 0446     		mov	r4, r0
 425:Core/Src/radio/sx126x/sx126x.c ****     uint8_t buf[4];
 1483              		.loc 1 425 5 is_stmt 1 view .LVU298
 426:Core/Src/radio/sx126x/sx126x.c ****     uint32_t freq = 0;
 1484              		.loc 1 426 5 view .LVU299
 1485              	.LVL85:
 427:Core/Src/radio/sx126x/sx126x.c **** 
 428:Core/Src/radio/sx126x/sx126x.c ****     if( ImageCalibrated == false )
 1486              		.loc 1 428 5 view .LVU300
 1487              		.loc 1 428 25 is_stmt 0 view .LVU301
 1488 0006 164B     		ldr	r3, .L91+8
 1489 0008 1B78     		ldrb	r3, [r3]	@ zero_extendqisi2
 1490              		.loc 1 428 7 view .LVU302
 1491 000a F3B1     		cbz	r3, .L90
 1492              	.LVL86:
 1493              	.L88:
 429:Core/Src/radio/sx126x/sx126x.c ****     {
 430:Core/Src/radio/sx126x/sx126x.c ****         SX126xCalibrateImage( frequency );
 431:Core/Src/radio/sx126x/sx126x.c ****         ImageCalibrated = true;
 432:Core/Src/radio/sx126x/sx126x.c ****     }
 433:Core/Src/radio/sx126x/sx126x.c **** 
 434:Core/Src/radio/sx126x/sx126x.c ****     freq = ( uint32_t )( ( double )frequency / ( double )FREQ_STEP );
 1494              		.loc 1 434 5 is_stmt 1 view .LVU303
 1495              		.loc 1 434 26 is_stmt 0 view .LVU304
 1496 000c 2046     		mov	r0, r4
 1497 000e FFF7FEFF 		bl	__aeabi_ui2d
 1498              	.LVL87:
 1499              		.loc 1 434 46 view .LVU305
 1500 0012 11A3     		adr	r3, .L91
 1501 0014 D3E90023 		ldrd	r2, [r3]
 1502 0018 FFF7FEFF 		bl	__aeabi_ddiv
ARM GAS  C:\Users\andywei\AppData\Local\Temp\ccZfFIOd.s 			page 35


 1503              	.LVL88:
 1504              		.loc 1 434 10 view .LVU306
 1505 001c FFF7FEFF 		bl	__aeabi_d2uiz
 1506              	.LVL89:
 435:Core/Src/radio/sx126x/sx126x.c ****     buf[0] = ( uint8_t )( ( freq >> 24 ) & 0xFF );
 1507              		.loc 1 435 5 is_stmt 1 view .LVU307
 1508              		.loc 1 435 14 is_stmt 0 view .LVU308
 1509 0020 030E     		lsrs	r3, r0, #24
 1510              		.loc 1 435 12 view .LVU309
 1511 0022 8DF80430 		strb	r3, [sp, #4]
 436:Core/Src/radio/sx126x/sx126x.c ****     buf[1] = ( uint8_t )( ( freq >> 16 ) & 0xFF );
 1512              		.loc 1 436 5 is_stmt 1 view .LVU310
 1513              		.loc 1 436 14 is_stmt 0 view .LVU311
 1514 0026 C0F30743 		ubfx	r3, r0, #16, #8
 1515              		.loc 1 436 12 view .LVU312
 1516 002a 8DF80530 		strb	r3, [sp, #5]
 437:Core/Src/radio/sx126x/sx126x.c ****     buf[2] = ( uint8_t )( ( freq >> 8 ) & 0xFF );
 1517              		.loc 1 437 5 is_stmt 1 view .LVU313
 1518              		.loc 1 437 14 is_stmt 0 view .LVU314
 1519 002e C0F30723 		ubfx	r3, r0, #8, #8
 1520              		.loc 1 437 12 view .LVU315
 1521 0032 8DF80630 		strb	r3, [sp, #6]
 438:Core/Src/radio/sx126x/sx126x.c ****     buf[3] = ( uint8_t )( freq & 0xFF );
 1522              		.loc 1 438 5 is_stmt 1 view .LVU316
 1523              		.loc 1 438 12 is_stmt 0 view .LVU317
 1524 0036 8DF80700 		strb	r0, [sp, #7]
 439:Core/Src/radio/sx126x/sx126x.c ****     SX126xWriteCommand( RADIO_SET_RFFREQUENCY, buf, 4 );
 1525              		.loc 1 439 5 is_stmt 1 view .LVU318
 1526 003a 0422     		movs	r2, #4
 1527 003c 0DEB0201 		add	r1, sp, r2
 1528 0040 8620     		movs	r0, #134
 1529              	.LVL90:
 1530              		.loc 1 439 5 is_stmt 0 view .LVU319
 1531 0042 FFF7FEFF 		bl	SX126xWriteCommand
 1532              	.LVL91:
 440:Core/Src/radio/sx126x/sx126x.c **** }
 1533              		.loc 1 440 1 view .LVU320
 1534 0046 02B0     		add	sp, sp, #8
 1535              	.LCFI67:
 1536              		.cfi_remember_state
 1537              		.cfi_def_cfa_offset 8
 1538              		@ sp needed
 1539 0048 10BD     		pop	{r4, pc}
 1540              	.LVL92:
 1541              	.L90:
 1542              	.LCFI68:
 1543              		.cfi_restore_state
 430:Core/Src/radio/sx126x/sx126x.c ****         ImageCalibrated = true;
 1544              		.loc 1 430 9 is_stmt 1 view .LVU321
 1545 004a FFF7FEFF 		bl	SX126xCalibrateImage
 1546              	.LVL93:
 431:Core/Src/radio/sx126x/sx126x.c ****     }
 1547              		.loc 1 431 9 view .LVU322
 431:Core/Src/radio/sx126x/sx126x.c ****     }
 1548              		.loc 1 431 25 is_stmt 0 view .LVU323
 1549 004e 044B     		ldr	r3, .L91+8
 1550 0050 0122     		movs	r2, #1
ARM GAS  C:\Users\andywei\AppData\Local\Temp\ccZfFIOd.s 			page 36


 1551 0052 1A70     		strb	r2, [r3]
 1552 0054 DAE7     		b	.L88
 1553              	.L92:
 1554 0056 00BF     		.align	3
 1555              	.L91:
 1556 0058 00000000 		.word	0
 1557 005c 8084EE3F 		.word	1072596096
 1558 0060 00000000 		.word	.LANCHOR1
 1559              		.cfi_endproc
 1560              	.LFE167:
 1562              		.section	.text.SX126xSetPacketType,"ax",%progbits
 1563              		.align	1
 1564              		.global	SX126xSetPacketType
 1565              		.syntax unified
 1566              		.thumb
 1567              		.thumb_func
 1568              		.fpu fpv4-sp-d16
 1570              	SX126xSetPacketType:
 1571              	.LVL94:
 1572              	.LFB168:
 441:Core/Src/radio/sx126x/sx126x.c **** 
 442:Core/Src/radio/sx126x/sx126x.c **** void SX126xSetPacketType( RadioPacketTypes_t packetType )
 443:Core/Src/radio/sx126x/sx126x.c **** {
 1573              		.loc 1 443 1 is_stmt 1 view -0
 1574              		.cfi_startproc
 1575              		@ args = 0, pretend = 0, frame = 8
 1576              		@ frame_needed = 0, uses_anonymous_args = 0
 1577              		.loc 1 443 1 is_stmt 0 view .LVU325
 1578 0000 00B5     		push	{lr}
 1579              	.LCFI69:
 1580              		.cfi_def_cfa_offset 4
 1581              		.cfi_offset 14, -4
 1582 0002 83B0     		sub	sp, sp, #12
 1583              	.LCFI70:
 1584              		.cfi_def_cfa_offset 16
 1585 0004 8DF80700 		strb	r0, [sp, #7]
 444:Core/Src/radio/sx126x/sx126x.c ****     // Save packet type internally to avoid questioning the radio
 445:Core/Src/radio/sx126x/sx126x.c ****     PacketType = packetType;
 1586              		.loc 1 445 5 is_stmt 1 view .LVU326
 1587              		.loc 1 445 16 is_stmt 0 view .LVU327
 1588 0008 C2B2     		uxtb	r2, r0
 1589 000a 054B     		ldr	r3, .L95
 1590 000c 1A70     		strb	r2, [r3]
 446:Core/Src/radio/sx126x/sx126x.c ****     SX126xWriteCommand( RADIO_SET_PACKETTYPE, ( uint8_t* )&packetType, 1 );
 1591              		.loc 1 446 5 is_stmt 1 view .LVU328
 1592 000e 0122     		movs	r2, #1
 1593 0010 0DF10701 		add	r1, sp, #7
 1594 0014 8A20     		movs	r0, #138
 1595              	.LVL95:
 1596              		.loc 1 446 5 is_stmt 0 view .LVU329
 1597 0016 FFF7FEFF 		bl	SX126xWriteCommand
 1598              	.LVL96:
 447:Core/Src/radio/sx126x/sx126x.c **** }
 1599              		.loc 1 447 1 view .LVU330
 1600 001a 03B0     		add	sp, sp, #12
 1601              	.LCFI71:
 1602              		.cfi_def_cfa_offset 4
ARM GAS  C:\Users\andywei\AppData\Local\Temp\ccZfFIOd.s 			page 37


 1603              		@ sp needed
 1604 001c 5DF804FB 		ldr	pc, [sp], #4
 1605              	.L96:
 1606              		.align	2
 1607              	.L95:
 1608 0020 00000000 		.word	.LANCHOR2
 1609              		.cfi_endproc
 1610              	.LFE168:
 1612              		.section	.text.SX126xGetPacketType,"ax",%progbits
 1613              		.align	1
 1614              		.global	SX126xGetPacketType
 1615              		.syntax unified
 1616              		.thumb
 1617              		.thumb_func
 1618              		.fpu fpv4-sp-d16
 1620              	SX126xGetPacketType:
 1621              	.LFB169:
 448:Core/Src/radio/sx126x/sx126x.c **** 
 449:Core/Src/radio/sx126x/sx126x.c **** RadioPacketTypes_t SX126xGetPacketType( void )
 450:Core/Src/radio/sx126x/sx126x.c **** {
 1622              		.loc 1 450 1 is_stmt 1 view -0
 1623              		.cfi_startproc
 1624              		@ args = 0, pretend = 0, frame = 0
 1625              		@ frame_needed = 0, uses_anonymous_args = 0
 1626              		@ link register save eliminated.
 451:Core/Src/radio/sx126x/sx126x.c ****     return PacketType;
 1627              		.loc 1 451 5 view .LVU332
 452:Core/Src/radio/sx126x/sx126x.c **** }
 1628              		.loc 1 452 1 is_stmt 0 view .LVU333
 1629 0000 014B     		ldr	r3, .L98
 1630 0002 1878     		ldrb	r0, [r3]	@ zero_extendqisi2
 1631 0004 7047     		bx	lr
 1632              	.L99:
 1633 0006 00BF     		.align	2
 1634              	.L98:
 1635 0008 00000000 		.word	.LANCHOR2
 1636              		.cfi_endproc
 1637              	.LFE169:
 1639              		.section	.text.SX126xSetCrcSeed,"ax",%progbits
 1640              		.align	1
 1641              		.global	SX126xSetCrcSeed
 1642              		.syntax unified
 1643              		.thumb
 1644              		.thumb_func
 1645              		.fpu fpv4-sp-d16
 1647              	SX126xSetCrcSeed:
 1648              	.LVL97:
 1649              	.LFB142:
 151:Core/Src/radio/sx126x/sx126x.c ****     uint8_t buf[2];
 1650              		.loc 1 151 1 is_stmt 1 view -0
 1651              		.cfi_startproc
 1652              		@ args = 0, pretend = 0, frame = 8
 1653              		@ frame_needed = 0, uses_anonymous_args = 0
 151:Core/Src/radio/sx126x/sx126x.c ****     uint8_t buf[2];
 1654              		.loc 1 151 1 is_stmt 0 view .LVU335
 1655 0000 00B5     		push	{lr}
 1656              	.LCFI72:
ARM GAS  C:\Users\andywei\AppData\Local\Temp\ccZfFIOd.s 			page 38


 1657              		.cfi_def_cfa_offset 4
 1658              		.cfi_offset 14, -4
 1659 0002 83B0     		sub	sp, sp, #12
 1660              	.LCFI73:
 1661              		.cfi_def_cfa_offset 16
 152:Core/Src/radio/sx126x/sx126x.c **** 
 1662              		.loc 1 152 5 is_stmt 1 view .LVU336
 154:Core/Src/radio/sx126x/sx126x.c ****     buf[1] = ( uint8_t )( seed & 0xFF );
 1663              		.loc 1 154 5 view .LVU337
 154:Core/Src/radio/sx126x/sx126x.c ****     buf[1] = ( uint8_t )( seed & 0xFF );
 1664              		.loc 1 154 14 is_stmt 0 view .LVU338
 1665 0004 030A     		lsrs	r3, r0, #8
 154:Core/Src/radio/sx126x/sx126x.c ****     buf[1] = ( uint8_t )( seed & 0xFF );
 1666              		.loc 1 154 12 view .LVU339
 1667 0006 8DF80430 		strb	r3, [sp, #4]
 155:Core/Src/radio/sx126x/sx126x.c **** 
 1668              		.loc 1 155 5 is_stmt 1 view .LVU340
 155:Core/Src/radio/sx126x/sx126x.c **** 
 1669              		.loc 1 155 12 is_stmt 0 view .LVU341
 1670 000a 8DF80500 		strb	r0, [sp, #5]
 157:Core/Src/radio/sx126x/sx126x.c ****     {
 1671              		.loc 1 157 5 is_stmt 1 view .LVU342
 157:Core/Src/radio/sx126x/sx126x.c ****     {
 1672              		.loc 1 157 13 is_stmt 0 view .LVU343
 1673 000e FFF7FEFF 		bl	SX126xGetPacketType
 1674              	.LVL98:
 157:Core/Src/radio/sx126x/sx126x.c ****     {
 1675              		.loc 1 157 5 view .LVU344
 1676 0012 10B1     		cbz	r0, .L103
 1677              	.L100:
 166:Core/Src/radio/sx126x/sx126x.c **** 
 1678              		.loc 1 166 1 view .LVU345
 1679 0014 03B0     		add	sp, sp, #12
 1680              	.LCFI74:
 1681              		.cfi_remember_state
 1682              		.cfi_def_cfa_offset 4
 1683              		@ sp needed
 1684 0016 5DF804FB 		ldr	pc, [sp], #4
 1685              	.L103:
 1686              	.LCFI75:
 1687              		.cfi_restore_state
 160:Core/Src/radio/sx126x/sx126x.c ****             break;
 1688              		.loc 1 160 13 is_stmt 1 view .LVU346
 1689 001a 0222     		movs	r2, #2
 1690 001c 01A9     		add	r1, sp, #4
 1691 001e 40F2BC60 		movw	r0, #1724
 1692 0022 FFF7FEFF 		bl	SX126xWriteRegisters
 1693              	.LVL99:
 161:Core/Src/radio/sx126x/sx126x.c **** 
 1694              		.loc 1 161 13 view .LVU347
 166:Core/Src/radio/sx126x/sx126x.c **** 
 1695              		.loc 1 166 1 is_stmt 0 view .LVU348
 1696 0026 F5E7     		b	.L100
 1697              		.cfi_endproc
 1698              	.LFE142:
 1700              		.section	.text.SX126xSetCrcPolynomial,"ax",%progbits
 1701              		.align	1
ARM GAS  C:\Users\andywei\AppData\Local\Temp\ccZfFIOd.s 			page 39


 1702              		.global	SX126xSetCrcPolynomial
 1703              		.syntax unified
 1704              		.thumb
 1705              		.thumb_func
 1706              		.fpu fpv4-sp-d16
 1708              	SX126xSetCrcPolynomial:
 1709              	.LVL100:
 1710              	.LFB143:
 169:Core/Src/radio/sx126x/sx126x.c ****     uint8_t buf[2];
 1711              		.loc 1 169 1 is_stmt 1 view -0
 1712              		.cfi_startproc
 1713              		@ args = 0, pretend = 0, frame = 8
 1714              		@ frame_needed = 0, uses_anonymous_args = 0
 169:Core/Src/radio/sx126x/sx126x.c ****     uint8_t buf[2];
 1715              		.loc 1 169 1 is_stmt 0 view .LVU350
 1716 0000 00B5     		push	{lr}
 1717              	.LCFI76:
 1718              		.cfi_def_cfa_offset 4
 1719              		.cfi_offset 14, -4
 1720 0002 83B0     		sub	sp, sp, #12
 1721              	.LCFI77:
 1722              		.cfi_def_cfa_offset 16
 170:Core/Src/radio/sx126x/sx126x.c **** 
 1723              		.loc 1 170 5 is_stmt 1 view .LVU351
 172:Core/Src/radio/sx126x/sx126x.c ****     buf[1] = ( uint8_t )( polynomial & 0xFF );
 1724              		.loc 1 172 5 view .LVU352
 172:Core/Src/radio/sx126x/sx126x.c ****     buf[1] = ( uint8_t )( polynomial & 0xFF );
 1725              		.loc 1 172 14 is_stmt 0 view .LVU353
 1726 0004 030A     		lsrs	r3, r0, #8
 172:Core/Src/radio/sx126x/sx126x.c ****     buf[1] = ( uint8_t )( polynomial & 0xFF );
 1727              		.loc 1 172 12 view .LVU354
 1728 0006 8DF80430 		strb	r3, [sp, #4]
 173:Core/Src/radio/sx126x/sx126x.c **** 
 1729              		.loc 1 173 5 is_stmt 1 view .LVU355
 173:Core/Src/radio/sx126x/sx126x.c **** 
 1730              		.loc 1 173 12 is_stmt 0 view .LVU356
 1731 000a 8DF80500 		strb	r0, [sp, #5]
 175:Core/Src/radio/sx126x/sx126x.c ****     {
 1732              		.loc 1 175 5 is_stmt 1 view .LVU357
 175:Core/Src/radio/sx126x/sx126x.c ****     {
 1733              		.loc 1 175 13 is_stmt 0 view .LVU358
 1734 000e FFF7FEFF 		bl	SX126xGetPacketType
 1735              	.LVL101:
 175:Core/Src/radio/sx126x/sx126x.c ****     {
 1736              		.loc 1 175 5 view .LVU359
 1737 0012 10B1     		cbz	r0, .L107
 1738              	.L104:
 184:Core/Src/radio/sx126x/sx126x.c **** 
 1739              		.loc 1 184 1 view .LVU360
 1740 0014 03B0     		add	sp, sp, #12
 1741              	.LCFI78:
 1742              		.cfi_remember_state
 1743              		.cfi_def_cfa_offset 4
 1744              		@ sp needed
 1745 0016 5DF804FB 		ldr	pc, [sp], #4
 1746              	.L107:
 1747              	.LCFI79:
ARM GAS  C:\Users\andywei\AppData\Local\Temp\ccZfFIOd.s 			page 40


 1748              		.cfi_restore_state
 178:Core/Src/radio/sx126x/sx126x.c ****             break;
 1749              		.loc 1 178 13 is_stmt 1 view .LVU361
 1750 001a 0222     		movs	r2, #2
 1751 001c 01A9     		add	r1, sp, #4
 1752 001e 40F2BE60 		movw	r0, #1726
 1753 0022 FFF7FEFF 		bl	SX126xWriteRegisters
 1754              	.LVL102:
 179:Core/Src/radio/sx126x/sx126x.c **** 
 1755              		.loc 1 179 13 view .LVU362
 184:Core/Src/radio/sx126x/sx126x.c **** 
 1756              		.loc 1 184 1 is_stmt 0 view .LVU363
 1757 0026 F5E7     		b	.L104
 1758              		.cfi_endproc
 1759              	.LFE143:
 1761              		.section	.text.SX126xSetWhiteningSeed,"ax",%progbits
 1762              		.align	1
 1763              		.global	SX126xSetWhiteningSeed
 1764              		.syntax unified
 1765              		.thumb
 1766              		.thumb_func
 1767              		.fpu fpv4-sp-d16
 1769              	SX126xSetWhiteningSeed:
 1770              	.LVL103:
 1771              	.LFB144:
 187:Core/Src/radio/sx126x/sx126x.c ****     uint8_t regValue = 0;
 1772              		.loc 1 187 1 is_stmt 1 view -0
 1773              		.cfi_startproc
 1774              		@ args = 0, pretend = 0, frame = 0
 1775              		@ frame_needed = 0, uses_anonymous_args = 0
 187:Core/Src/radio/sx126x/sx126x.c ****     uint8_t regValue = 0;
 1776              		.loc 1 187 1 is_stmt 0 view .LVU365
 1777 0000 10B5     		push	{r4, lr}
 1778              	.LCFI80:
 1779              		.cfi_def_cfa_offset 8
 1780              		.cfi_offset 4, -8
 1781              		.cfi_offset 14, -4
 1782 0002 0446     		mov	r4, r0
 188:Core/Src/radio/sx126x/sx126x.c ****     
 1783              		.loc 1 188 5 is_stmt 1 view .LVU366
 1784              	.LVL104:
 190:Core/Src/radio/sx126x/sx126x.c ****     {
 1785              		.loc 1 190 5 view .LVU367
 190:Core/Src/radio/sx126x/sx126x.c ****     {
 1786              		.loc 1 190 13 is_stmt 0 view .LVU368
 1787 0004 FFF7FEFF 		bl	SX126xGetPacketType
 1788              	.LVL105:
 190:Core/Src/radio/sx126x/sx126x.c ****     {
 1789              		.loc 1 190 5 view .LVU369
 1790 0008 00B1     		cbz	r0, .L111
 1791              	.LVL106:
 1792              	.L108:
 202:Core/Src/radio/sx126x/sx126x.c **** 
 1793              		.loc 1 202 1 view .LVU370
 1794 000a 10BD     		pop	{r4, pc}
 1795              	.LVL107:
 1796              	.L111:
ARM GAS  C:\Users\andywei\AppData\Local\Temp\ccZfFIOd.s 			page 41


 193:Core/Src/radio/sx126x/sx126x.c ****             regValue = ( ( seed >> 8 ) & 0x01 ) | regValue;
 1797              		.loc 1 193 13 is_stmt 1 view .LVU371
 193:Core/Src/radio/sx126x/sx126x.c ****             regValue = ( ( seed >> 8 ) & 0x01 ) | regValue;
 1798              		.loc 1 193 24 is_stmt 0 view .LVU372
 1799 000c 4FF4D760 		mov	r0, #1720
 1800 0010 FFF7FEFF 		bl	SX126xReadRegister
 1801              	.LVL108:
 193:Core/Src/radio/sx126x/sx126x.c ****             regValue = ( ( seed >> 8 ) & 0x01 ) | regValue;
 1802              		.loc 1 193 22 view .LVU373
 1803 0014 00F0FE00 		and	r0, r0, #254
 1804              	.LVL109:
 194:Core/Src/radio/sx126x/sx126x.c ****             SX126xWriteRegister( REG_LR_WHITSEEDBASEADDR_MSB, regValue ); // only 1 bit.
 1805              		.loc 1 194 13 is_stmt 1 view .LVU374
 194:Core/Src/radio/sx126x/sx126x.c ****             SX126xWriteRegister( REG_LR_WHITSEEDBASEADDR_MSB, regValue ); // only 1 bit.
 1806              		.loc 1 194 40 is_stmt 0 view .LVU375
 1807 0018 C4F30021 		ubfx	r1, r4, #8, #1
 1808              	.LVL110:
 195:Core/Src/radio/sx126x/sx126x.c ****             SX126xWriteRegister( REG_LR_WHITSEEDBASEADDR_LSB, ( uint8_t )seed );
 1809              		.loc 1 195 13 is_stmt 1 view .LVU376
 1810 001c 0143     		orrs	r1, r1, r0
 1811              	.LVL111:
 195:Core/Src/radio/sx126x/sx126x.c ****             SX126xWriteRegister( REG_LR_WHITSEEDBASEADDR_LSB, ( uint8_t )seed );
 1812              		.loc 1 195 13 is_stmt 0 view .LVU377
 1813 001e 4FF4D760 		mov	r0, #1720
 1814 0022 FFF7FEFF 		bl	SX126xWriteRegister
 1815              	.LVL112:
 196:Core/Src/radio/sx126x/sx126x.c ****             break;
 1816              		.loc 1 196 13 is_stmt 1 view .LVU378
 1817 0026 E1B2     		uxtb	r1, r4
 1818 0028 40F2B960 		movw	r0, #1721
 1819 002c FFF7FEFF 		bl	SX126xWriteRegister
 1820              	.LVL113:
 197:Core/Src/radio/sx126x/sx126x.c **** 
 1821              		.loc 1 197 13 view .LVU379
 202:Core/Src/radio/sx126x/sx126x.c **** 
 1822              		.loc 1 202 1 is_stmt 0 view .LVU380
 1823 0030 EBE7     		b	.L108
 1824              		.cfi_endproc
 1825              	.LFE144:
 1827              		.section	.text.SX126xSetTxParams,"ax",%progbits
 1828              		.align	1
 1829              		.global	SX126xSetTxParams
 1830              		.syntax unified
 1831              		.thumb
 1832              		.thumb_func
 1833              		.fpu fpv4-sp-d16
 1835              	SX126xSetTxParams:
 1836              	.LVL114:
 1837              	.LFB170:
 453:Core/Src/radio/sx126x/sx126x.c **** 
 454:Core/Src/radio/sx126x/sx126x.c **** void SX126xSetTxParams( int8_t power, RadioRampTimes_t rampTime )
 455:Core/Src/radio/sx126x/sx126x.c **** {
 1838              		.loc 1 455 1 is_stmt 1 view -0
 1839              		.cfi_startproc
 1840              		@ args = 0, pretend = 0, frame = 8
 1841              		@ frame_needed = 0, uses_anonymous_args = 0
 1842              		.loc 1 455 1 is_stmt 0 view .LVU382
ARM GAS  C:\Users\andywei\AppData\Local\Temp\ccZfFIOd.s 			page 42


 1843 0000 30B5     		push	{r4, r5, lr}
 1844              	.LCFI81:
 1845              		.cfi_def_cfa_offset 12
 1846              		.cfi_offset 4, -12
 1847              		.cfi_offset 5, -8
 1848              		.cfi_offset 14, -4
 1849 0002 83B0     		sub	sp, sp, #12
 1850              	.LCFI82:
 1851              		.cfi_def_cfa_offset 24
 1852 0004 0446     		mov	r4, r0
 1853 0006 0D46     		mov	r5, r1
 456:Core/Src/radio/sx126x/sx126x.c ****     uint8_t buf[2];
 1854              		.loc 1 456 5 is_stmt 1 view .LVU383
 457:Core/Src/radio/sx126x/sx126x.c **** 
 458:Core/Src/radio/sx126x/sx126x.c ****     if( SX126xGetPaSelect( 0 ) == SX1261 )
 1855              		.loc 1 458 5 view .LVU384
 1856              		.loc 1 458 9 is_stmt 0 view .LVU385
 1857 0008 0020     		movs	r0, #0
 1858              	.LVL115:
 1859              		.loc 1 458 9 view .LVU386
 1860 000a FFF7FEFF 		bl	SX126xGetPaSelect
 1861              	.LVL116:
 1862              		.loc 1 458 7 view .LVU387
 1863 000e 0128     		cmp	r0, #1
 1864 0010 27D1     		bne	.L113
 459:Core/Src/radio/sx126x/sx126x.c ****     {
 460:Core/Src/radio/sx126x/sx126x.c ****         if( power == 15 )
 1865              		.loc 1 460 9 is_stmt 1 view .LVU388
 1866              		.loc 1 460 11 is_stmt 0 view .LVU389
 1867 0012 0F2C     		cmp	r4, #15
 1868 0014 0DD0     		beq	.L124
 461:Core/Src/radio/sx126x/sx126x.c ****         {
 462:Core/Src/radio/sx126x/sx126x.c ****             SX126xSetPaConfig( 0x06, 0x00, 0x01, 0x01 );
 463:Core/Src/radio/sx126x/sx126x.c ****         }
 464:Core/Src/radio/sx126x/sx126x.c ****         else
 465:Core/Src/radio/sx126x/sx126x.c ****         {
 466:Core/Src/radio/sx126x/sx126x.c ****             SX126xSetPaConfig( 0x04, 0x00, 0x01, 0x01 );
 1869              		.loc 1 466 13 is_stmt 1 view .LVU390
 1870 0016 0123     		movs	r3, #1
 1871 0018 1A46     		mov	r2, r3
 1872 001a 0021     		movs	r1, #0
 1873 001c 0420     		movs	r0, #4
 1874 001e FFF7FEFF 		bl	SX126xSetPaConfig
 1875              	.LVL117:
 1876              	.L115:
 467:Core/Src/radio/sx126x/sx126x.c ****         }
 468:Core/Src/radio/sx126x/sx126x.c ****         if( power >= 14 )
 1877              		.loc 1 468 9 view .LVU391
 1878              		.loc 1 468 11 is_stmt 0 view .LVU392
 1879 0022 0D2C     		cmp	r4, #13
 1880 0024 0CDC     		bgt	.L119
 469:Core/Src/radio/sx126x/sx126x.c ****         {
 470:Core/Src/radio/sx126x/sx126x.c ****             power = 14;
 471:Core/Src/radio/sx126x/sx126x.c ****         }
 472:Core/Src/radio/sx126x/sx126x.c ****         else if( power < -3 )
 1881              		.loc 1 472 14 is_stmt 1 view .LVU393
 1882              		.loc 1 472 16 is_stmt 0 view .LVU394
ARM GAS  C:\Users\andywei\AppData\Local\Temp\ccZfFIOd.s 			page 43


 1883 0026 14F1030F 		cmn	r4, #3
 1884 002a 0ADA     		bge	.L116
 473:Core/Src/radio/sx126x/sx126x.c ****         {
 474:Core/Src/radio/sx126x/sx126x.c ****             power = -3;
 1885              		.loc 1 474 19 view .LVU395
 1886 002c 6FF00204 		mvn	r4, #2
 1887 0030 07E0     		b	.L116
 1888              	.L124:
 462:Core/Src/radio/sx126x/sx126x.c ****         }
 1889              		.loc 1 462 13 is_stmt 1 view .LVU396
 1890 0032 0123     		movs	r3, #1
 1891 0034 1A46     		mov	r2, r3
 1892 0036 0021     		movs	r1, #0
 1893 0038 0620     		movs	r0, #6
 1894 003a FFF7FEFF 		bl	SX126xSetPaConfig
 1895              	.LVL118:
 1896 003e F0E7     		b	.L115
 1897              	.L119:
 470:Core/Src/radio/sx126x/sx126x.c ****         }
 1898              		.loc 1 470 19 is_stmt 0 view .LVU397
 1899 0040 0E24     		movs	r4, #14
 1900              	.L116:
 1901              	.LVL119:
 475:Core/Src/radio/sx126x/sx126x.c ****         }
 476:Core/Src/radio/sx126x/sx126x.c ****         SX126xWriteRegister( REG_OCP, 0x18 ); // current max is 80 mA for the whole device
 1902              		.loc 1 476 9 is_stmt 1 view .LVU398
 1903 0042 1821     		movs	r1, #24
 1904 0044 40F6E700 		movw	r0, #2279
 1905 0048 FFF7FEFF 		bl	SX126xWriteRegister
 1906              	.LVL120:
 1907              	.L117:
 477:Core/Src/radio/sx126x/sx126x.c ****     }
 478:Core/Src/radio/sx126x/sx126x.c ****     else // sx1262
 479:Core/Src/radio/sx126x/sx126x.c ****     {
 480:Core/Src/radio/sx126x/sx126x.c ****         SX126xSetPaConfig( 0x04, 0x07, 0x00, 0x01 );
 481:Core/Src/radio/sx126x/sx126x.c ****         if( power > 22 )
 482:Core/Src/radio/sx126x/sx126x.c ****         {
 483:Core/Src/radio/sx126x/sx126x.c ****             power = 22;
 484:Core/Src/radio/sx126x/sx126x.c ****         }
 485:Core/Src/radio/sx126x/sx126x.c ****         else if( power < -3 )
 486:Core/Src/radio/sx126x/sx126x.c ****         {
 487:Core/Src/radio/sx126x/sx126x.c ****             power = -3;
 488:Core/Src/radio/sx126x/sx126x.c ****         }
 489:Core/Src/radio/sx126x/sx126x.c ****         SX126xWriteRegister( REG_OCP, 0x38 ); // current max 160mA for the whole device
 490:Core/Src/radio/sx126x/sx126x.c ****     }
 491:Core/Src/radio/sx126x/sx126x.c ****     buf[0] = power;
 1908              		.loc 1 491 5 view .LVU399
 1909              		.loc 1 491 12 is_stmt 0 view .LVU400
 1910 004c 8DF80440 		strb	r4, [sp, #4]
 492:Core/Src/radio/sx126x/sx126x.c ****     buf[1] = ( uint8_t )rampTime;
 1911              		.loc 1 492 5 is_stmt 1 view .LVU401
 1912              		.loc 1 492 12 is_stmt 0 view .LVU402
 1913 0050 8DF80550 		strb	r5, [sp, #5]
 493:Core/Src/radio/sx126x/sx126x.c ****     SX126xWriteCommand( RADIO_SET_TXPARAMS, buf, 2 );
 1914              		.loc 1 493 5 is_stmt 1 view .LVU403
 1915 0054 0222     		movs	r2, #2
 1916 0056 01A9     		add	r1, sp, #4
ARM GAS  C:\Users\andywei\AppData\Local\Temp\ccZfFIOd.s 			page 44


 1917 0058 8E20     		movs	r0, #142
 1918 005a FFF7FEFF 		bl	SX126xWriteCommand
 1919              	.LVL121:
 494:Core/Src/radio/sx126x/sx126x.c **** }
 1920              		.loc 1 494 1 is_stmt 0 view .LVU404
 1921 005e 03B0     		add	sp, sp, #12
 1922              	.LCFI83:
 1923              		.cfi_remember_state
 1924              		.cfi_def_cfa_offset 12
 1925              		@ sp needed
 1926 0060 30BD     		pop	{r4, r5, pc}
 1927              	.LVL122:
 1928              	.L113:
 1929              	.LCFI84:
 1930              		.cfi_restore_state
 480:Core/Src/radio/sx126x/sx126x.c ****         if( power > 22 )
 1931              		.loc 1 480 9 is_stmt 1 view .LVU405
 1932 0062 0123     		movs	r3, #1
 1933 0064 0022     		movs	r2, #0
 1934 0066 0721     		movs	r1, #7
 1935 0068 0420     		movs	r0, #4
 1936 006a FFF7FEFF 		bl	SX126xSetPaConfig
 1937              	.LVL123:
 481:Core/Src/radio/sx126x/sx126x.c ****         {
 1938              		.loc 1 481 9 view .LVU406
 481:Core/Src/radio/sx126x/sx126x.c ****         {
 1939              		.loc 1 481 11 is_stmt 0 view .LVU407
 1940 006e 162C     		cmp	r4, #22
 1941 0070 05DC     		bgt	.L121
 485:Core/Src/radio/sx126x/sx126x.c ****         {
 1942              		.loc 1 485 14 is_stmt 1 view .LVU408
 485:Core/Src/radio/sx126x/sx126x.c ****         {
 1943              		.loc 1 485 16 is_stmt 0 view .LVU409
 1944 0072 14F1030F 		cmn	r4, #3
 1945 0076 03DA     		bge	.L118
 487:Core/Src/radio/sx126x/sx126x.c ****         }
 1946              		.loc 1 487 19 view .LVU410
 1947 0078 6FF00204 		mvn	r4, #2
 1948 007c 00E0     		b	.L118
 1949              	.L121:
 483:Core/Src/radio/sx126x/sx126x.c ****         }
 1950              		.loc 1 483 19 view .LVU411
 1951 007e 1624     		movs	r4, #22
 1952              	.L118:
 1953              	.LVL124:
 489:Core/Src/radio/sx126x/sx126x.c ****     }
 1954              		.loc 1 489 9 is_stmt 1 view .LVU412
 1955 0080 3821     		movs	r1, #56
 1956 0082 40F6E700 		movw	r0, #2279
 1957 0086 FFF7FEFF 		bl	SX126xWriteRegister
 1958              	.LVL125:
 1959 008a DFE7     		b	.L117
 1960              		.cfi_endproc
 1961              	.LFE170:
 1963              		.global	__aeabi_dmul
 1964              		.section	.text.SX126xSetModulationParams,"ax",%progbits
 1965              		.align	1
ARM GAS  C:\Users\andywei\AppData\Local\Temp\ccZfFIOd.s 			page 45


 1966              		.global	SX126xSetModulationParams
 1967              		.syntax unified
 1968              		.thumb
 1969              		.thumb_func
 1970              		.fpu fpv4-sp-d16
 1972              	SX126xSetModulationParams:
 1973              	.LVL126:
 1974              	.LFB171:
 495:Core/Src/radio/sx126x/sx126x.c **** 
 496:Core/Src/radio/sx126x/sx126x.c **** void SX126xSetModulationParams( ModulationParams_t *modulationParams )
 497:Core/Src/radio/sx126x/sx126x.c **** {
 1975              		.loc 1 497 1 view -0
 1976              		.cfi_startproc
 1977              		@ args = 0, pretend = 0, frame = 8
 1978              		@ frame_needed = 0, uses_anonymous_args = 0
 1979              		.loc 1 497 1 is_stmt 0 view .LVU414
 1980 0000 10B5     		push	{r4, lr}
 1981              	.LCFI85:
 1982              		.cfi_def_cfa_offset 8
 1983              		.cfi_offset 4, -8
 1984              		.cfi_offset 14, -4
 1985 0002 82B0     		sub	sp, sp, #8
 1986              	.LCFI86:
 1987              		.cfi_def_cfa_offset 16
 1988 0004 0446     		mov	r4, r0
 498:Core/Src/radio/sx126x/sx126x.c ****     uint8_t n;
 1989              		.loc 1 498 5 is_stmt 1 view .LVU415
 499:Core/Src/radio/sx126x/sx126x.c ****     uint32_t tempVal = 0;
 1990              		.loc 1 499 5 view .LVU416
 1991              	.LVL127:
 500:Core/Src/radio/sx126x/sx126x.c ****     uint8_t buf[8] = { 0x00, 0x00, 0x00, 0x00, 0x00, 0x00, 0x00, 0x00 };
 1992              		.loc 1 500 5 view .LVU417
 1993              		.loc 1 500 13 is_stmt 0 view .LVU418
 1994 0006 324B     		ldr	r3, .L134+16
 1995 0008 93E80300 		ldm	r3, {r0, r1}
 1996              	.LVL128:
 1997              		.loc 1 500 13 view .LVU419
 1998 000c 02AB     		add	r3, sp, #8
 1999 000e 03E90300 		stmdb	r3, {r0, r1}
 501:Core/Src/radio/sx126x/sx126x.c **** 
 502:Core/Src/radio/sx126x/sx126x.c ****     // Check if required configuration corresponds to the stored packet type
 503:Core/Src/radio/sx126x/sx126x.c ****     // If not, silently update radio packet type
 504:Core/Src/radio/sx126x/sx126x.c ****     if( PacketType != modulationParams->PacketType )
 2000              		.loc 1 504 5 is_stmt 1 view .LVU420
 2001              		.loc 1 504 39 is_stmt 0 view .LVU421
 2002 0012 2078     		ldrb	r0, [r4]	@ zero_extendqisi2
 2003              		.loc 1 504 20 view .LVU422
 2004 0014 2F4B     		ldr	r3, .L134+20
 2005 0016 1B78     		ldrb	r3, [r3]	@ zero_extendqisi2
 2006              		.loc 1 504 7 view .LVU423
 2007 0018 9842     		cmp	r0, r3
 2008 001a 05D1     		bne	.L133
 2009              	.L126:
 505:Core/Src/radio/sx126x/sx126x.c ****     {
 506:Core/Src/radio/sx126x/sx126x.c ****         SX126xSetPacketType( modulationParams->PacketType );
 507:Core/Src/radio/sx126x/sx126x.c ****     }
 508:Core/Src/radio/sx126x/sx126x.c **** 
ARM GAS  C:\Users\andywei\AppData\Local\Temp\ccZfFIOd.s 			page 46


 509:Core/Src/radio/sx126x/sx126x.c ****     switch( modulationParams->PacketType )
 2010              		.loc 1 509 5 is_stmt 1 view .LVU424
 2011              		.loc 1 509 29 is_stmt 0 view .LVU425
 2012 001c 2378     		ldrb	r3, [r4]	@ zero_extendqisi2
 2013              		.loc 1 509 5 view .LVU426
 2014 001e 33B1     		cbz	r3, .L127
 2015 0020 012B     		cmp	r3, #1
 2016 0022 3AD0     		beq	.L128
 2017              	.LVL129:
 2018              	.L125:
 510:Core/Src/radio/sx126x/sx126x.c ****     {
 511:Core/Src/radio/sx126x/sx126x.c ****     case PACKET_TYPE_GFSK:
 512:Core/Src/radio/sx126x/sx126x.c ****         n = 8;
 513:Core/Src/radio/sx126x/sx126x.c ****         tempVal = ( uint32_t )( 32 * ( ( double )XTAL_FREQ / ( double )modulationParams->Params.Gfs
 514:Core/Src/radio/sx126x/sx126x.c ****         buf[0] = ( tempVal >> 16 ) & 0xFF;
 515:Core/Src/radio/sx126x/sx126x.c ****         buf[1] = ( tempVal >> 8 ) & 0xFF;
 516:Core/Src/radio/sx126x/sx126x.c ****         buf[2] = tempVal & 0xFF;
 517:Core/Src/radio/sx126x/sx126x.c ****         buf[3] = modulationParams->Params.Gfsk.ModulationShaping;
 518:Core/Src/radio/sx126x/sx126x.c ****         buf[4] = modulationParams->Params.Gfsk.Bandwidth;
 519:Core/Src/radio/sx126x/sx126x.c ****         tempVal = ( uint32_t )( ( double )modulationParams->Params.Gfsk.Fdev / ( double )FREQ_STEP 
 520:Core/Src/radio/sx126x/sx126x.c ****         buf[5] = ( tempVal >> 16 ) & 0xFF;
 521:Core/Src/radio/sx126x/sx126x.c ****         buf[6] = ( tempVal >> 8 ) & 0xFF;
 522:Core/Src/radio/sx126x/sx126x.c ****         buf[7] = ( tempVal& 0xFF );
 523:Core/Src/radio/sx126x/sx126x.c ****         SX126xWriteCommand( RADIO_SET_MODULATIONPARAMS, buf, n );
 524:Core/Src/radio/sx126x/sx126x.c ****         break;
 525:Core/Src/radio/sx126x/sx126x.c ****     case PACKET_TYPE_LORA:
 526:Core/Src/radio/sx126x/sx126x.c ****         n = 4;
 527:Core/Src/radio/sx126x/sx126x.c ****         buf[0] = modulationParams->Params.LoRa.SpreadingFactor;
 528:Core/Src/radio/sx126x/sx126x.c ****         buf[1] = modulationParams->Params.LoRa.Bandwidth;
 529:Core/Src/radio/sx126x/sx126x.c ****         buf[2] = modulationParams->Params.LoRa.CodingRate;
 530:Core/Src/radio/sx126x/sx126x.c ****         buf[3] = modulationParams->Params.LoRa.LowDatarateOptimize;
 531:Core/Src/radio/sx126x/sx126x.c **** 
 532:Core/Src/radio/sx126x/sx126x.c ****         SX126xWriteCommand( RADIO_SET_MODULATIONPARAMS, buf, n );
 533:Core/Src/radio/sx126x/sx126x.c **** 
 534:Core/Src/radio/sx126x/sx126x.c ****         break;
 535:Core/Src/radio/sx126x/sx126x.c ****     default:
 536:Core/Src/radio/sx126x/sx126x.c ****     case PACKET_TYPE_NONE:
 537:Core/Src/radio/sx126x/sx126x.c ****         return;
 538:Core/Src/radio/sx126x/sx126x.c ****     }
 539:Core/Src/radio/sx126x/sx126x.c **** }
 2019              		.loc 1 539 1 view .LVU427
 2020 0024 02B0     		add	sp, sp, #8
 2021              	.LCFI87:
 2022              		.cfi_remember_state
 2023              		.cfi_def_cfa_offset 8
 2024              		@ sp needed
 2025 0026 10BD     		pop	{r4, pc}
 2026              	.LVL130:
 2027              	.L133:
 2028              	.LCFI88:
 2029              		.cfi_restore_state
 506:Core/Src/radio/sx126x/sx126x.c ****     }
 2030              		.loc 1 506 9 is_stmt 1 view .LVU428
 2031 0028 FFF7FEFF 		bl	SX126xSetPacketType
 2032              	.LVL131:
 2033 002c F6E7     		b	.L126
 2034              	.L127:
ARM GAS  C:\Users\andywei\AppData\Local\Temp\ccZfFIOd.s 			page 47


 512:Core/Src/radio/sx126x/sx126x.c ****         tempVal = ( uint32_t )( 32 * ( ( double )XTAL_FREQ / ( double )modulationParams->Params.Gfs
 2035              		.loc 1 512 9 view .LVU429
 2036              	.LVL132:
 513:Core/Src/radio/sx126x/sx126x.c ****         buf[0] = ( tempVal >> 16 ) & 0xFF;
 2037              		.loc 1 513 9 view .LVU430
 513:Core/Src/radio/sx126x/sx126x.c ****         buf[0] = ( tempVal >> 16 ) & 0xFF;
 2038              		.loc 1 513 62 is_stmt 0 view .LVU431
 2039 002e 6068     		ldr	r0, [r4, #4]
 2040 0030 FFF7FEFF 		bl	__aeabi_ui2d
 2041              	.LVL133:
 2042 0034 0246     		mov	r2, r0
 2043 0036 0B46     		mov	r3, r1
 513:Core/Src/radio/sx126x/sx126x.c ****         buf[0] = ( tempVal >> 16 ) & 0xFF;
 2044              		.loc 1 513 60 view .LVU432
 2045 0038 21A1     		adr	r1, .L134
 2046 003a D1E90001 		ldrd	r0, [r1]
 2047 003e FFF7FEFF 		bl	__aeabi_ddiv
 2048              	.LVL134:
 513:Core/Src/radio/sx126x/sx126x.c ****         buf[0] = ( tempVal >> 16 ) & 0xFF;
 2049              		.loc 1 513 36 view .LVU433
 2050 0042 0022     		movs	r2, #0
 2051 0044 244B     		ldr	r3, .L134+24
 2052 0046 FFF7FEFF 		bl	__aeabi_dmul
 2053              	.LVL135:
 513:Core/Src/radio/sx126x/sx126x.c ****         buf[0] = ( tempVal >> 16 ) & 0xFF;
 2054              		.loc 1 513 17 view .LVU434
 2055 004a FFF7FEFF 		bl	__aeabi_d2uiz
 2056              	.LVL136:
 514:Core/Src/radio/sx126x/sx126x.c ****         buf[1] = ( tempVal >> 8 ) & 0xFF;
 2057              		.loc 1 514 9 is_stmt 1 view .LVU435
 514:Core/Src/radio/sx126x/sx126x.c ****         buf[1] = ( tempVal >> 8 ) & 0xFF;
 2058              		.loc 1 514 28 is_stmt 0 view .LVU436
 2059 004e 030C     		lsrs	r3, r0, #16
 514:Core/Src/radio/sx126x/sx126x.c ****         buf[1] = ( tempVal >> 8 ) & 0xFF;
 2060              		.loc 1 514 16 view .LVU437
 2061 0050 8DF80030 		strb	r3, [sp]
 515:Core/Src/radio/sx126x/sx126x.c ****         buf[2] = tempVal & 0xFF;
 2062              		.loc 1 515 9 is_stmt 1 view .LVU438
 515:Core/Src/radio/sx126x/sx126x.c ****         buf[2] = tempVal & 0xFF;
 2063              		.loc 1 515 28 is_stmt 0 view .LVU439
 2064 0054 030A     		lsrs	r3, r0, #8
 515:Core/Src/radio/sx126x/sx126x.c ****         buf[2] = tempVal & 0xFF;
 2065              		.loc 1 515 16 view .LVU440
 2066 0056 8DF80130 		strb	r3, [sp, #1]
 516:Core/Src/radio/sx126x/sx126x.c ****         buf[3] = modulationParams->Params.Gfsk.ModulationShaping;
 2067              		.loc 1 516 9 is_stmt 1 view .LVU441
 516:Core/Src/radio/sx126x/sx126x.c ****         buf[3] = modulationParams->Params.Gfsk.ModulationShaping;
 2068              		.loc 1 516 16 is_stmt 0 view .LVU442
 2069 005a 8DF80200 		strb	r0, [sp, #2]
 517:Core/Src/radio/sx126x/sx126x.c ****         buf[4] = modulationParams->Params.Gfsk.Bandwidth;
 2070              		.loc 1 517 9 is_stmt 1 view .LVU443
 517:Core/Src/radio/sx126x/sx126x.c ****         buf[4] = modulationParams->Params.Gfsk.Bandwidth;
 2071              		.loc 1 517 47 is_stmt 0 view .LVU444
 2072 005e 237B     		ldrb	r3, [r4, #12]	@ zero_extendqisi2
 517:Core/Src/radio/sx126x/sx126x.c ****         buf[4] = modulationParams->Params.Gfsk.Bandwidth;
 2073              		.loc 1 517 16 view .LVU445
 2074 0060 8DF80330 		strb	r3, [sp, #3]
ARM GAS  C:\Users\andywei\AppData\Local\Temp\ccZfFIOd.s 			page 48


 518:Core/Src/radio/sx126x/sx126x.c ****         tempVal = ( uint32_t )( ( double )modulationParams->Params.Gfsk.Fdev / ( double )FREQ_STEP 
 2075              		.loc 1 518 9 is_stmt 1 view .LVU446
 518:Core/Src/radio/sx126x/sx126x.c ****         tempVal = ( uint32_t )( ( double )modulationParams->Params.Gfsk.Fdev / ( double )FREQ_STEP 
 2076              		.loc 1 518 47 is_stmt 0 view .LVU447
 2077 0064 637B     		ldrb	r3, [r4, #13]	@ zero_extendqisi2
 518:Core/Src/radio/sx126x/sx126x.c ****         tempVal = ( uint32_t )( ( double )modulationParams->Params.Gfsk.Fdev / ( double )FREQ_STEP 
 2078              		.loc 1 518 16 view .LVU448
 2079 0066 8DF80430 		strb	r3, [sp, #4]
 519:Core/Src/radio/sx126x/sx126x.c ****         buf[5] = ( tempVal >> 16 ) & 0xFF;
 2080              		.loc 1 519 9 is_stmt 1 view .LVU449
 519:Core/Src/radio/sx126x/sx126x.c ****         buf[5] = ( tempVal >> 16 ) & 0xFF;
 2081              		.loc 1 519 33 is_stmt 0 view .LVU450
 2082 006a A068     		ldr	r0, [r4, #8]
 2083              	.LVL137:
 519:Core/Src/radio/sx126x/sx126x.c ****         buf[5] = ( tempVal >> 16 ) & 0xFF;
 2084              		.loc 1 519 33 view .LVU451
 2085 006c FFF7FEFF 		bl	__aeabi_ui2d
 2086              	.LVL138:
 519:Core/Src/radio/sx126x/sx126x.c ****         buf[5] = ( tempVal >> 16 ) & 0xFF;
 2087              		.loc 1 519 78 view .LVU452
 2088 0070 15A3     		adr	r3, .L134+8
 2089 0072 D3E90023 		ldrd	r2, [r3]
 2090 0076 FFF7FEFF 		bl	__aeabi_ddiv
 2091              	.LVL139:
 519:Core/Src/radio/sx126x/sx126x.c ****         buf[5] = ( tempVal >> 16 ) & 0xFF;
 2092              		.loc 1 519 17 view .LVU453
 2093 007a FFF7FEFF 		bl	__aeabi_d2uiz
 2094              	.LVL140:
 520:Core/Src/radio/sx126x/sx126x.c ****         buf[6] = ( tempVal >> 8 ) & 0xFF;
 2095              		.loc 1 520 9 is_stmt 1 view .LVU454
 520:Core/Src/radio/sx126x/sx126x.c ****         buf[6] = ( tempVal >> 8 ) & 0xFF;
 2096              		.loc 1 520 28 is_stmt 0 view .LVU455
 2097 007e 030C     		lsrs	r3, r0, #16
 520:Core/Src/radio/sx126x/sx126x.c ****         buf[6] = ( tempVal >> 8 ) & 0xFF;
 2098              		.loc 1 520 16 view .LVU456
 2099 0080 8DF80530 		strb	r3, [sp, #5]
 521:Core/Src/radio/sx126x/sx126x.c ****         buf[7] = ( tempVal& 0xFF );
 2100              		.loc 1 521 9 is_stmt 1 view .LVU457
 521:Core/Src/radio/sx126x/sx126x.c ****         buf[7] = ( tempVal& 0xFF );
 2101              		.loc 1 521 28 is_stmt 0 view .LVU458
 2102 0084 030A     		lsrs	r3, r0, #8
 521:Core/Src/radio/sx126x/sx126x.c ****         buf[7] = ( tempVal& 0xFF );
 2103              		.loc 1 521 16 view .LVU459
 2104 0086 8DF80630 		strb	r3, [sp, #6]
 522:Core/Src/radio/sx126x/sx126x.c ****         SX126xWriteCommand( RADIO_SET_MODULATIONPARAMS, buf, n );
 2105              		.loc 1 522 9 is_stmt 1 view .LVU460
 522:Core/Src/radio/sx126x/sx126x.c ****         SX126xWriteCommand( RADIO_SET_MODULATIONPARAMS, buf, n );
 2106              		.loc 1 522 16 is_stmt 0 view .LVU461
 2107 008a 8DF80700 		strb	r0, [sp, #7]
 523:Core/Src/radio/sx126x/sx126x.c ****         break;
 2108              		.loc 1 523 9 is_stmt 1 view .LVU462
 2109 008e 0822     		movs	r2, #8
 2110 0090 6946     		mov	r1, sp
 2111 0092 8B20     		movs	r0, #139
 2112              	.LVL141:
 523:Core/Src/radio/sx126x/sx126x.c ****         break;
 2113              		.loc 1 523 9 is_stmt 0 view .LVU463
ARM GAS  C:\Users\andywei\AppData\Local\Temp\ccZfFIOd.s 			page 49


 2114 0094 FFF7FEFF 		bl	SX126xWriteCommand
 2115              	.LVL142:
 524:Core/Src/radio/sx126x/sx126x.c ****     case PACKET_TYPE_LORA:
 2116              		.loc 1 524 9 is_stmt 1 view .LVU464
 2117 0098 C4E7     		b	.L125
 2118              	.LVL143:
 2119              	.L128:
 526:Core/Src/radio/sx126x/sx126x.c ****         buf[0] = modulationParams->Params.LoRa.SpreadingFactor;
 2120              		.loc 1 526 9 view .LVU465
 527:Core/Src/radio/sx126x/sx126x.c ****         buf[1] = modulationParams->Params.LoRa.Bandwidth;
 2121              		.loc 1 527 9 view .LVU466
 527:Core/Src/radio/sx126x/sx126x.c ****         buf[1] = modulationParams->Params.LoRa.Bandwidth;
 2122              		.loc 1 527 47 is_stmt 0 view .LVU467
 2123 009a 237C     		ldrb	r3, [r4, #16]	@ zero_extendqisi2
 527:Core/Src/radio/sx126x/sx126x.c ****         buf[1] = modulationParams->Params.LoRa.Bandwidth;
 2124              		.loc 1 527 16 view .LVU468
 2125 009c 8DF80030 		strb	r3, [sp]
 528:Core/Src/radio/sx126x/sx126x.c ****         buf[2] = modulationParams->Params.LoRa.CodingRate;
 2126              		.loc 1 528 9 is_stmt 1 view .LVU469
 528:Core/Src/radio/sx126x/sx126x.c ****         buf[2] = modulationParams->Params.LoRa.CodingRate;
 2127              		.loc 1 528 47 is_stmt 0 view .LVU470
 2128 00a0 637C     		ldrb	r3, [r4, #17]	@ zero_extendqisi2
 528:Core/Src/radio/sx126x/sx126x.c ****         buf[2] = modulationParams->Params.LoRa.CodingRate;
 2129              		.loc 1 528 16 view .LVU471
 2130 00a2 8DF80130 		strb	r3, [sp, #1]
 529:Core/Src/radio/sx126x/sx126x.c ****         buf[3] = modulationParams->Params.LoRa.LowDatarateOptimize;
 2131              		.loc 1 529 9 is_stmt 1 view .LVU472
 529:Core/Src/radio/sx126x/sx126x.c ****         buf[3] = modulationParams->Params.LoRa.LowDatarateOptimize;
 2132              		.loc 1 529 47 is_stmt 0 view .LVU473
 2133 00a6 A37C     		ldrb	r3, [r4, #18]	@ zero_extendqisi2
 529:Core/Src/radio/sx126x/sx126x.c ****         buf[3] = modulationParams->Params.LoRa.LowDatarateOptimize;
 2134              		.loc 1 529 16 view .LVU474
 2135 00a8 8DF80230 		strb	r3, [sp, #2]
 530:Core/Src/radio/sx126x/sx126x.c **** 
 2136              		.loc 1 530 9 is_stmt 1 view .LVU475
 530:Core/Src/radio/sx126x/sx126x.c **** 
 2137              		.loc 1 530 47 is_stmt 0 view .LVU476
 2138 00ac E37C     		ldrb	r3, [r4, #19]	@ zero_extendqisi2
 530:Core/Src/radio/sx126x/sx126x.c **** 
 2139              		.loc 1 530 16 view .LVU477
 2140 00ae 8DF80330 		strb	r3, [sp, #3]
 532:Core/Src/radio/sx126x/sx126x.c **** 
 2141              		.loc 1 532 9 is_stmt 1 view .LVU478
 2142 00b2 0422     		movs	r2, #4
 2143 00b4 6946     		mov	r1, sp
 2144 00b6 8B20     		movs	r0, #139
 2145 00b8 FFF7FEFF 		bl	SX126xWriteCommand
 2146              	.LVL144:
 534:Core/Src/radio/sx126x/sx126x.c ****     default:
 2147              		.loc 1 534 9 view .LVU479
 2148 00bc B2E7     		b	.L125
 2149              	.L135:
 2150 00be 00BF     		.align	3
 2151              	.L134:
 2152 00c0 00000000 		.word	0
 2153 00c4 80847E41 		.word	1098810496
 2154 00c8 00000000 		.word	0
ARM GAS  C:\Users\andywei\AppData\Local\Temp\ccZfFIOd.s 			page 50


 2155 00cc 8084EE3F 		.word	1072596096
 2156 00d0 00000000 		.word	.LANCHOR3
 2157 00d4 00000000 		.word	.LANCHOR2
 2158 00d8 00004040 		.word	1077936128
 2159              		.cfi_endproc
 2160              	.LFE171:
 2162              		.section	.text.SX126xSetPacketParams,"ax",%progbits
 2163              		.align	1
 2164              		.global	SX126xSetPacketParams
 2165              		.syntax unified
 2166              		.thumb
 2167              		.thumb_func
 2168              		.fpu fpv4-sp-d16
 2170              	SX126xSetPacketParams:
 2171              	.LVL145:
 2172              	.LFB172:
 540:Core/Src/radio/sx126x/sx126x.c **** 
 541:Core/Src/radio/sx126x/sx126x.c **** void SX126xSetPacketParams( PacketParams_t *packetParams )
 542:Core/Src/radio/sx126x/sx126x.c **** {
 2173              		.loc 1 542 1 view -0
 2174              		.cfi_startproc
 2175              		@ args = 0, pretend = 0, frame = 16
 2176              		@ frame_needed = 0, uses_anonymous_args = 0
 2177              		.loc 1 542 1 is_stmt 0 view .LVU481
 2178 0000 10B5     		push	{r4, lr}
 2179              	.LCFI89:
 2180              		.cfi_def_cfa_offset 8
 2181              		.cfi_offset 4, -8
 2182              		.cfi_offset 14, -4
 2183 0002 84B0     		sub	sp, sp, #16
 2184              	.LCFI90:
 2185              		.cfi_def_cfa_offset 24
 2186 0004 0446     		mov	r4, r0
 543:Core/Src/radio/sx126x/sx126x.c ****     uint8_t n;
 2187              		.loc 1 543 5 is_stmt 1 view .LVU482
 544:Core/Src/radio/sx126x/sx126x.c ****     uint8_t crcVal = 0;
 2188              		.loc 1 544 5 view .LVU483
 2189              	.LVL146:
 545:Core/Src/radio/sx126x/sx126x.c ****     uint8_t buf[9] = { 0x00, 0x00, 0x00, 0x00, 0x00, 0x00, 0x00, 0x00, 0x00 };
 2190              		.loc 1 545 5 view .LVU484
 2191              		.loc 1 545 13 is_stmt 0 view .LVU485
 2192 0006 01AB     		add	r3, sp, #4
 2193 0008 2E4A     		ldr	r2, .L149
 2194 000a 07CA     		ldm	r2, {r0, r1, r2}
 2195              	.LVL147:
 2196              		.loc 1 545 13 view .LVU486
 2197 000c 03C3     		stmia	r3!, {r0, r1}
 2198 000e 1A70     		strb	r2, [r3]
 546:Core/Src/radio/sx126x/sx126x.c **** 
 547:Core/Src/radio/sx126x/sx126x.c ****     // Check if required configuration corresponds to the stored packet type
 548:Core/Src/radio/sx126x/sx126x.c ****     // If not, silently update radio packet type
 549:Core/Src/radio/sx126x/sx126x.c ****     if( PacketType != packetParams->PacketType )
 2199              		.loc 1 549 5 is_stmt 1 view .LVU487
 2200              		.loc 1 549 35 is_stmt 0 view .LVU488
 2201 0010 2078     		ldrb	r0, [r4]	@ zero_extendqisi2
 2202              		.loc 1 549 20 view .LVU489
 2203 0012 2D4B     		ldr	r3, .L149+4
ARM GAS  C:\Users\andywei\AppData\Local\Temp\ccZfFIOd.s 			page 51


 2204 0014 1B78     		ldrb	r3, [r3]	@ zero_extendqisi2
 2205              		.loc 1 549 7 view .LVU490
 2206 0016 9842     		cmp	r0, r3
 2207 0018 17D1     		bne	.L146
 2208              	.L137:
 550:Core/Src/radio/sx126x/sx126x.c ****     {
 551:Core/Src/radio/sx126x/sx126x.c ****         SX126xSetPacketType( packetParams->PacketType );
 552:Core/Src/radio/sx126x/sx126x.c ****     }
 553:Core/Src/radio/sx126x/sx126x.c **** 
 554:Core/Src/radio/sx126x/sx126x.c ****     switch( packetParams->PacketType )
 2209              		.loc 1 554 5 is_stmt 1 view .LVU491
 2210              		.loc 1 554 25 is_stmt 0 view .LVU492
 2211 001a 2378     		ldrb	r3, [r4]	@ zero_extendqisi2
 2212              		.loc 1 554 5 view .LVU493
 2213 001c C3B1     		cbz	r3, .L138
 2214 001e 012B     		cmp	r3, #1
 2215 0020 3AD1     		bne	.L136
 555:Core/Src/radio/sx126x/sx126x.c ****     {
 556:Core/Src/radio/sx126x/sx126x.c ****     case PACKET_TYPE_GFSK:
 557:Core/Src/radio/sx126x/sx126x.c ****         if( packetParams->Params.Gfsk.CrcLength == RADIO_CRC_2_BYTES_IBM )
 558:Core/Src/radio/sx126x/sx126x.c ****         {
 559:Core/Src/radio/sx126x/sx126x.c ****             SX126xSetCrcSeed( CRC_IBM_SEED );
 560:Core/Src/radio/sx126x/sx126x.c ****             SX126xSetCrcPolynomial( CRC_POLYNOMIAL_IBM );
 561:Core/Src/radio/sx126x/sx126x.c ****             crcVal = RADIO_CRC_2_BYTES;
 562:Core/Src/radio/sx126x/sx126x.c ****         }
 563:Core/Src/radio/sx126x/sx126x.c ****         else if( packetParams->Params.Gfsk.CrcLength == RADIO_CRC_2_BYTES_CCIT )
 564:Core/Src/radio/sx126x/sx126x.c ****         {
 565:Core/Src/radio/sx126x/sx126x.c ****             SX126xSetCrcSeed( CRC_CCITT_SEED );
 566:Core/Src/radio/sx126x/sx126x.c ****             SX126xSetCrcPolynomial( CRC_POLYNOMIAL_CCITT );
 567:Core/Src/radio/sx126x/sx126x.c ****             crcVal = RADIO_CRC_2_BYTES_INV;
 568:Core/Src/radio/sx126x/sx126x.c ****         }
 569:Core/Src/radio/sx126x/sx126x.c ****         else
 570:Core/Src/radio/sx126x/sx126x.c ****         {
 571:Core/Src/radio/sx126x/sx126x.c ****             crcVal = packetParams->Params.Gfsk.CrcLength;
 572:Core/Src/radio/sx126x/sx126x.c ****         }
 573:Core/Src/radio/sx126x/sx126x.c ****         n = 9;
 574:Core/Src/radio/sx126x/sx126x.c ****         buf[0] = ( packetParams->Params.Gfsk.PreambleLength >> 8 ) & 0xFF;
 575:Core/Src/radio/sx126x/sx126x.c ****         buf[1] = packetParams->Params.Gfsk.PreambleLength;
 576:Core/Src/radio/sx126x/sx126x.c ****         buf[2] = packetParams->Params.Gfsk.PreambleMinDetect;
 577:Core/Src/radio/sx126x/sx126x.c ****         buf[3] = ( packetParams->Params.Gfsk.SyncWordLength /*<< 3*/ ); // convert from byte to bit
 578:Core/Src/radio/sx126x/sx126x.c ****         buf[4] = packetParams->Params.Gfsk.AddrComp;
 579:Core/Src/radio/sx126x/sx126x.c ****         buf[5] = packetParams->Params.Gfsk.HeaderType;
 580:Core/Src/radio/sx126x/sx126x.c ****         buf[6] = packetParams->Params.Gfsk.PayloadLength;
 581:Core/Src/radio/sx126x/sx126x.c ****         buf[7] = crcVal;
 582:Core/Src/radio/sx126x/sx126x.c ****         buf[8] = packetParams->Params.Gfsk.DcFree;
 583:Core/Src/radio/sx126x/sx126x.c ****         break;
 584:Core/Src/radio/sx126x/sx126x.c ****     case PACKET_TYPE_LORA:
 585:Core/Src/radio/sx126x/sx126x.c ****         n = 6;
 2216              		.loc 1 585 9 is_stmt 1 view .LVU494
 2217              	.LVL148:
 586:Core/Src/radio/sx126x/sx126x.c ****         buf[0] = ( packetParams->Params.LoRa.PreambleLength >> 8 ) & 0xFF;
 2218              		.loc 1 586 9 view .LVU495
 2219              		.loc 1 586 45 is_stmt 0 view .LVU496
 2220 0022 A389     		ldrh	r3, [r4, #12]
 2221              		.loc 1 586 16 view .LVU497
 2222 0024 1A0A     		lsrs	r2, r3, #8
 2223 0026 8DF80420 		strb	r2, [sp, #4]
ARM GAS  C:\Users\andywei\AppData\Local\Temp\ccZfFIOd.s 			page 52


 587:Core/Src/radio/sx126x/sx126x.c ****         buf[1] = packetParams->Params.LoRa.PreambleLength;
 2224              		.loc 1 587 9 is_stmt 1 view .LVU498
 2225              		.loc 1 587 16 is_stmt 0 view .LVU499
 2226 002a 8DF80530 		strb	r3, [sp, #5]
 588:Core/Src/radio/sx126x/sx126x.c ****         buf[2] = packetParams->Params.LoRa.HeaderType;
 2227              		.loc 1 588 9 is_stmt 1 view .LVU500
 2228              		.loc 1 588 43 is_stmt 0 view .LVU501
 2229 002e A37B     		ldrb	r3, [r4, #14]	@ zero_extendqisi2
 2230              		.loc 1 588 16 view .LVU502
 2231 0030 8DF80630 		strb	r3, [sp, #6]
 589:Core/Src/radio/sx126x/sx126x.c ****         buf[3] = packetParams->Params.LoRa.PayloadLength;
 2232              		.loc 1 589 9 is_stmt 1 view .LVU503
 2233              		.loc 1 589 43 is_stmt 0 view .LVU504
 2234 0034 E37B     		ldrb	r3, [r4, #15]	@ zero_extendqisi2
 2235              		.loc 1 589 16 view .LVU505
 2236 0036 8DF80730 		strb	r3, [sp, #7]
 590:Core/Src/radio/sx126x/sx126x.c ****         buf[4] = packetParams->Params.LoRa.CrcMode;
 2237              		.loc 1 590 9 is_stmt 1 view .LVU506
 2238              		.loc 1 590 43 is_stmt 0 view .LVU507
 2239 003a 237C     		ldrb	r3, [r4, #16]	@ zero_extendqisi2
 2240              		.loc 1 590 16 view .LVU508
 2241 003c 8DF80830 		strb	r3, [sp, #8]
 591:Core/Src/radio/sx126x/sx126x.c ****         buf[5] = packetParams->Params.LoRa.InvertIQ;
 2242              		.loc 1 591 9 is_stmt 1 view .LVU509
 2243              		.loc 1 591 43 is_stmt 0 view .LVU510
 2244 0040 637C     		ldrb	r3, [r4, #17]	@ zero_extendqisi2
 2245              		.loc 1 591 16 view .LVU511
 2246 0042 8DF80930 		strb	r3, [sp, #9]
 592:Core/Src/radio/sx126x/sx126x.c ****         break;
 2247              		.loc 1 592 9 is_stmt 1 view .LVU512
 585:Core/Src/radio/sx126x/sx126x.c ****         buf[0] = ( packetParams->Params.LoRa.PreambleLength >> 8 ) & 0xFF;
 2248              		.loc 1 585 11 is_stmt 0 view .LVU513
 2249 0046 0622     		movs	r2, #6
 2250              		.loc 1 592 9 view .LVU514
 2251 0048 22E0     		b	.L143
 2252              	.LVL149:
 2253              	.L146:
 551:Core/Src/radio/sx126x/sx126x.c ****     }
 2254              		.loc 1 551 9 is_stmt 1 view .LVU515
 2255 004a FFF7FEFF 		bl	SX126xSetPacketType
 2256              	.LVL150:
 2257 004e E4E7     		b	.L137
 2258              	.L138:
 557:Core/Src/radio/sx126x/sx126x.c ****         {
 2259              		.loc 1 557 9 view .LVU516
 557:Core/Src/radio/sx126x/sx126x.c ****         {
 2260              		.loc 1 557 38 is_stmt 0 view .LVU517
 2261 0050 637A     		ldrb	r3, [r4, #9]	@ zero_extendqisi2
 557:Core/Src/radio/sx126x/sx126x.c ****         {
 2262              		.loc 1 557 11 view .LVU518
 2263 0052 F12B     		cmp	r3, #241
 2264 0054 22D0     		beq	.L147
 563:Core/Src/radio/sx126x/sx126x.c ****         {
 2265              		.loc 1 563 14 is_stmt 1 view .LVU519
 563:Core/Src/radio/sx126x/sx126x.c ****         {
 2266              		.loc 1 563 16 is_stmt 0 view .LVU520
 2267 0056 F22B     		cmp	r3, #242
ARM GAS  C:\Users\andywei\AppData\Local\Temp\ccZfFIOd.s 			page 53


 2268 0058 2AD0     		beq	.L148
 2269              	.LVL151:
 2270              	.L142:
 573:Core/Src/radio/sx126x/sx126x.c ****         buf[0] = ( packetParams->Params.Gfsk.PreambleLength >> 8 ) & 0xFF;
 2271              		.loc 1 573 9 is_stmt 1 view .LVU521
 574:Core/Src/radio/sx126x/sx126x.c ****         buf[1] = packetParams->Params.Gfsk.PreambleLength;
 2272              		.loc 1 574 9 view .LVU522
 574:Core/Src/radio/sx126x/sx126x.c ****         buf[1] = packetParams->Params.Gfsk.PreambleLength;
 2273              		.loc 1 574 45 is_stmt 0 view .LVU523
 2274 005a 6288     		ldrh	r2, [r4, #2]
 574:Core/Src/radio/sx126x/sx126x.c ****         buf[1] = packetParams->Params.Gfsk.PreambleLength;
 2275              		.loc 1 574 16 view .LVU524
 2276 005c 110A     		lsrs	r1, r2, #8
 2277 005e 8DF80410 		strb	r1, [sp, #4]
 575:Core/Src/radio/sx126x/sx126x.c ****         buf[2] = packetParams->Params.Gfsk.PreambleMinDetect;
 2278              		.loc 1 575 9 is_stmt 1 view .LVU525
 575:Core/Src/radio/sx126x/sx126x.c ****         buf[2] = packetParams->Params.Gfsk.PreambleMinDetect;
 2279              		.loc 1 575 16 is_stmt 0 view .LVU526
 2280 0062 8DF80520 		strb	r2, [sp, #5]
 576:Core/Src/radio/sx126x/sx126x.c ****         buf[3] = ( packetParams->Params.Gfsk.SyncWordLength /*<< 3*/ ); // convert from byte to bit
 2281              		.loc 1 576 9 is_stmt 1 view .LVU527
 576:Core/Src/radio/sx126x/sx126x.c ****         buf[3] = ( packetParams->Params.Gfsk.SyncWordLength /*<< 3*/ ); // convert from byte to bit
 2282              		.loc 1 576 43 is_stmt 0 view .LVU528
 2283 0066 2279     		ldrb	r2, [r4, #4]	@ zero_extendqisi2
 576:Core/Src/radio/sx126x/sx126x.c ****         buf[3] = ( packetParams->Params.Gfsk.SyncWordLength /*<< 3*/ ); // convert from byte to bit
 2284              		.loc 1 576 16 view .LVU529
 2285 0068 8DF80620 		strb	r2, [sp, #6]
 577:Core/Src/radio/sx126x/sx126x.c ****         buf[4] = packetParams->Params.Gfsk.AddrComp;
 2286              		.loc 1 577 9 is_stmt 1 view .LVU530
 577:Core/Src/radio/sx126x/sx126x.c ****         buf[4] = packetParams->Params.Gfsk.AddrComp;
 2287              		.loc 1 577 45 is_stmt 0 view .LVU531
 2288 006c 6279     		ldrb	r2, [r4, #5]	@ zero_extendqisi2
 577:Core/Src/radio/sx126x/sx126x.c ****         buf[4] = packetParams->Params.Gfsk.AddrComp;
 2289              		.loc 1 577 16 view .LVU532
 2290 006e 8DF80720 		strb	r2, [sp, #7]
 578:Core/Src/radio/sx126x/sx126x.c ****         buf[5] = packetParams->Params.Gfsk.HeaderType;
 2291              		.loc 1 578 9 is_stmt 1 view .LVU533
 578:Core/Src/radio/sx126x/sx126x.c ****         buf[5] = packetParams->Params.Gfsk.HeaderType;
 2292              		.loc 1 578 43 is_stmt 0 view .LVU534
 2293 0072 A279     		ldrb	r2, [r4, #6]	@ zero_extendqisi2
 578:Core/Src/radio/sx126x/sx126x.c ****         buf[5] = packetParams->Params.Gfsk.HeaderType;
 2294              		.loc 1 578 16 view .LVU535
 2295 0074 8DF80820 		strb	r2, [sp, #8]
 579:Core/Src/radio/sx126x/sx126x.c ****         buf[6] = packetParams->Params.Gfsk.PayloadLength;
 2296              		.loc 1 579 9 is_stmt 1 view .LVU536
 579:Core/Src/radio/sx126x/sx126x.c ****         buf[6] = packetParams->Params.Gfsk.PayloadLength;
 2297              		.loc 1 579 43 is_stmt 0 view .LVU537
 2298 0078 E279     		ldrb	r2, [r4, #7]	@ zero_extendqisi2
 579:Core/Src/radio/sx126x/sx126x.c ****         buf[6] = packetParams->Params.Gfsk.PayloadLength;
 2299              		.loc 1 579 16 view .LVU538
 2300 007a 8DF80920 		strb	r2, [sp, #9]
 580:Core/Src/radio/sx126x/sx126x.c ****         buf[7] = crcVal;
 2301              		.loc 1 580 9 is_stmt 1 view .LVU539
 580:Core/Src/radio/sx126x/sx126x.c ****         buf[7] = crcVal;
 2302              		.loc 1 580 43 is_stmt 0 view .LVU540
 2303 007e 227A     		ldrb	r2, [r4, #8]	@ zero_extendqisi2
 580:Core/Src/radio/sx126x/sx126x.c ****         buf[7] = crcVal;
ARM GAS  C:\Users\andywei\AppData\Local\Temp\ccZfFIOd.s 			page 54


 2304              		.loc 1 580 16 view .LVU541
 2305 0080 8DF80A20 		strb	r2, [sp, #10]
 581:Core/Src/radio/sx126x/sx126x.c ****         buf[8] = packetParams->Params.Gfsk.DcFree;
 2306              		.loc 1 581 9 is_stmt 1 view .LVU542
 581:Core/Src/radio/sx126x/sx126x.c ****         buf[8] = packetParams->Params.Gfsk.DcFree;
 2307              		.loc 1 581 16 is_stmt 0 view .LVU543
 2308 0084 8DF80B30 		strb	r3, [sp, #11]
 582:Core/Src/radio/sx126x/sx126x.c ****         break;
 2309              		.loc 1 582 9 is_stmt 1 view .LVU544
 582:Core/Src/radio/sx126x/sx126x.c ****         break;
 2310              		.loc 1 582 43 is_stmt 0 view .LVU545
 2311 0088 A37A     		ldrb	r3, [r4, #10]	@ zero_extendqisi2
 2312              	.LVL152:
 582:Core/Src/radio/sx126x/sx126x.c ****         break;
 2313              		.loc 1 582 16 view .LVU546
 2314 008a 8DF80C30 		strb	r3, [sp, #12]
 583:Core/Src/radio/sx126x/sx126x.c ****     case PACKET_TYPE_LORA:
 2315              		.loc 1 583 9 is_stmt 1 view .LVU547
 573:Core/Src/radio/sx126x/sx126x.c ****         buf[0] = ( packetParams->Params.Gfsk.PreambleLength >> 8 ) & 0xFF;
 2316              		.loc 1 573 11 is_stmt 0 view .LVU548
 2317 008e 0922     		movs	r2, #9
 2318              	.LVL153:
 2319              	.L143:
 593:Core/Src/radio/sx126x/sx126x.c ****     default:
 594:Core/Src/radio/sx126x/sx126x.c ****     case PACKET_TYPE_NONE:
 595:Core/Src/radio/sx126x/sx126x.c ****         return;
 596:Core/Src/radio/sx126x/sx126x.c ****     }
 597:Core/Src/radio/sx126x/sx126x.c ****     SX126xWriteCommand( RADIO_SET_PACKETPARAMS, buf, n );
 2320              		.loc 1 597 5 is_stmt 1 view .LVU549
 2321 0090 01A9     		add	r1, sp, #4
 2322 0092 8C20     		movs	r0, #140
 2323 0094 FFF7FEFF 		bl	SX126xWriteCommand
 2324              	.LVL154:
 2325              	.L136:
 598:Core/Src/radio/sx126x/sx126x.c **** }
 2326              		.loc 1 598 1 is_stmt 0 view .LVU550
 2327 0098 04B0     		add	sp, sp, #16
 2328              	.LCFI91:
 2329              		.cfi_remember_state
 2330              		.cfi_def_cfa_offset 8
 2331              		@ sp needed
 2332 009a 10BD     		pop	{r4, pc}
 2333              	.LVL155:
 2334              	.L147:
 2335              	.LCFI92:
 2336              		.cfi_restore_state
 559:Core/Src/radio/sx126x/sx126x.c ****             SX126xSetCrcPolynomial( CRC_POLYNOMIAL_IBM );
 2337              		.loc 1 559 13 is_stmt 1 view .LVU551
 2338 009c 4FF6FF70 		movw	r0, #65535
 2339 00a0 FFF7FEFF 		bl	SX126xSetCrcSeed
 2340              	.LVL156:
 560:Core/Src/radio/sx126x/sx126x.c ****             crcVal = RADIO_CRC_2_BYTES;
 2341              		.loc 1 560 13 view .LVU552
 2342 00a4 48F20500 		movw	r0, #32773
 2343 00a8 FFF7FEFF 		bl	SX126xSetCrcPolynomial
 2344              	.LVL157:
 561:Core/Src/radio/sx126x/sx126x.c ****         }
ARM GAS  C:\Users\andywei\AppData\Local\Temp\ccZfFIOd.s 			page 55


 2345              		.loc 1 561 13 view .LVU553
 561:Core/Src/radio/sx126x/sx126x.c ****         }
 2346              		.loc 1 561 20 is_stmt 0 view .LVU554
 2347 00ac 0223     		movs	r3, #2
 2348 00ae D4E7     		b	.L142
 2349              	.LVL158:
 2350              	.L148:
 565:Core/Src/radio/sx126x/sx126x.c ****             SX126xSetCrcPolynomial( CRC_POLYNOMIAL_CCITT );
 2351              		.loc 1 565 13 is_stmt 1 view .LVU555
 2352 00b0 41F60F50 		movw	r0, #7439
 2353 00b4 FFF7FEFF 		bl	SX126xSetCrcSeed
 2354              	.LVL159:
 566:Core/Src/radio/sx126x/sx126x.c ****             crcVal = RADIO_CRC_2_BYTES_INV;
 2355              		.loc 1 566 13 view .LVU556
 2356 00b8 41F22100 		movw	r0, #4129
 2357 00bc FFF7FEFF 		bl	SX126xSetCrcPolynomial
 2358              	.LVL160:
 567:Core/Src/radio/sx126x/sx126x.c ****         }
 2359              		.loc 1 567 13 view .LVU557
 567:Core/Src/radio/sx126x/sx126x.c ****         }
 2360              		.loc 1 567 20 is_stmt 0 view .LVU558
 2361 00c0 0623     		movs	r3, #6
 2362 00c2 CAE7     		b	.L142
 2363              	.L150:
 2364              		.align	2
 2365              	.L149:
 2366 00c4 08000000 		.word	.LANCHOR3+8
 2367 00c8 00000000 		.word	.LANCHOR2
 2368              		.cfi_endproc
 2369              	.LFE172:
 2371              		.section	.text.SX126xSetCadParams,"ax",%progbits
 2372              		.align	1
 2373              		.global	SX126xSetCadParams
 2374              		.syntax unified
 2375              		.thumb
 2376              		.thumb_func
 2377              		.fpu fpv4-sp-d16
 2379              	SX126xSetCadParams:
 2380              	.LVL161:
 2381              	.LFB173:
 599:Core/Src/radio/sx126x/sx126x.c **** 
 600:Core/Src/radio/sx126x/sx126x.c **** void SX126xSetCadParams( RadioLoRaCadSymbols_t cadSymbolNum, uint8_t cadDetPeak, uint8_t cadDetMin,
 601:Core/Src/radio/sx126x/sx126x.c **** {
 2382              		.loc 1 601 1 is_stmt 1 view -0
 2383              		.cfi_startproc
 2384              		@ args = 4, pretend = 0, frame = 8
 2385              		@ frame_needed = 0, uses_anonymous_args = 0
 2386              		.loc 1 601 1 is_stmt 0 view .LVU560
 2387 0000 10B5     		push	{r4, lr}
 2388              	.LCFI93:
 2389              		.cfi_def_cfa_offset 8
 2390              		.cfi_offset 4, -8
 2391              		.cfi_offset 14, -4
 2392 0002 82B0     		sub	sp, sp, #8
 2393              	.LCFI94:
 2394              		.cfi_def_cfa_offset 16
 2395 0004 049C     		ldr	r4, [sp, #16]
ARM GAS  C:\Users\andywei\AppData\Local\Temp\ccZfFIOd.s 			page 56


 602:Core/Src/radio/sx126x/sx126x.c ****     uint8_t buf[7];
 2396              		.loc 1 602 5 is_stmt 1 view .LVU561
 603:Core/Src/radio/sx126x/sx126x.c **** 
 604:Core/Src/radio/sx126x/sx126x.c ****     buf[0] = ( uint8_t )cadSymbolNum;
 2397              		.loc 1 604 5 view .LVU562
 2398              		.loc 1 604 12 is_stmt 0 view .LVU563
 2399 0006 8DF80000 		strb	r0, [sp]
 605:Core/Src/radio/sx126x/sx126x.c ****     buf[1] = cadDetPeak;
 2400              		.loc 1 605 5 is_stmt 1 view .LVU564
 2401              		.loc 1 605 12 is_stmt 0 view .LVU565
 2402 000a 8DF80110 		strb	r1, [sp, #1]
 606:Core/Src/radio/sx126x/sx126x.c ****     buf[2] = cadDetMin;
 2403              		.loc 1 606 5 is_stmt 1 view .LVU566
 2404              		.loc 1 606 12 is_stmt 0 view .LVU567
 2405 000e 8DF80220 		strb	r2, [sp, #2]
 607:Core/Src/radio/sx126x/sx126x.c ****     buf[3] = ( uint8_t )cadExitMode;
 2406              		.loc 1 607 5 is_stmt 1 view .LVU568
 2407              		.loc 1 607 12 is_stmt 0 view .LVU569
 2408 0012 8DF80330 		strb	r3, [sp, #3]
 608:Core/Src/radio/sx126x/sx126x.c ****     buf[4] = ( uint8_t )( ( cadTimeout >> 16 ) & 0xFF );
 2409              		.loc 1 608 5 is_stmt 1 view .LVU570
 2410              		.loc 1 608 14 is_stmt 0 view .LVU571
 2411 0016 C4F30743 		ubfx	r3, r4, #16, #8
 2412              	.LVL162:
 2413              		.loc 1 608 12 view .LVU572
 2414 001a 8DF80430 		strb	r3, [sp, #4]
 609:Core/Src/radio/sx126x/sx126x.c ****     buf[5] = ( uint8_t )( ( cadTimeout >> 8 ) & 0xFF );
 2415              		.loc 1 609 5 is_stmt 1 view .LVU573
 2416              		.loc 1 609 14 is_stmt 0 view .LVU574
 2417 001e C4F30723 		ubfx	r3, r4, #8, #8
 2418              		.loc 1 609 12 view .LVU575
 2419 0022 8DF80530 		strb	r3, [sp, #5]
 610:Core/Src/radio/sx126x/sx126x.c ****     buf[6] = ( uint8_t )( cadTimeout & 0xFF );
 2420              		.loc 1 610 5 is_stmt 1 view .LVU576
 2421              		.loc 1 610 12 is_stmt 0 view .LVU577
 2422 0026 8DF80640 		strb	r4, [sp, #6]
 611:Core/Src/radio/sx126x/sx126x.c ****     SX126xWriteCommand( RADIO_SET_CADPARAMS, buf, 7 );
 2423              		.loc 1 611 5 is_stmt 1 view .LVU578
 2424 002a 0722     		movs	r2, #7
 2425              	.LVL163:
 2426              		.loc 1 611 5 is_stmt 0 view .LVU579
 2427 002c 6946     		mov	r1, sp
 2428              	.LVL164:
 2429              		.loc 1 611 5 view .LVU580
 2430 002e 8820     		movs	r0, #136
 2431              	.LVL165:
 2432              		.loc 1 611 5 view .LVU581
 2433 0030 FFF7FEFF 		bl	SX126xWriteCommand
 2434              	.LVL166:
 612:Core/Src/radio/sx126x/sx126x.c ****     OperatingMode = MODE_CAD;
 2435              		.loc 1 612 5 is_stmt 1 view .LVU582
 2436              		.loc 1 612 19 is_stmt 0 view .LVU583
 2437 0034 024B     		ldr	r3, .L153
 2438 0036 0722     		movs	r2, #7
 2439 0038 1A70     		strb	r2, [r3]
 613:Core/Src/radio/sx126x/sx126x.c **** }
 2440              		.loc 1 613 1 view .LVU584
ARM GAS  C:\Users\andywei\AppData\Local\Temp\ccZfFIOd.s 			page 57


 2441 003a 02B0     		add	sp, sp, #8
 2442              	.LCFI95:
 2443              		.cfi_def_cfa_offset 8
 2444              		@ sp needed
 2445 003c 10BD     		pop	{r4, pc}
 2446              	.LVL167:
 2447              	.L154:
 2448              		.loc 1 613 1 view .LVU585
 2449 003e 00BF     		.align	2
 2450              	.L153:
 2451 0040 00000000 		.word	.LANCHOR0
 2452              		.cfi_endproc
 2453              	.LFE173:
 2455              		.section	.text.SX126xSetBufferBaseAddress,"ax",%progbits
 2456              		.align	1
 2457              		.global	SX126xSetBufferBaseAddress
 2458              		.syntax unified
 2459              		.thumb
 2460              		.thumb_func
 2461              		.fpu fpv4-sp-d16
 2463              	SX126xSetBufferBaseAddress:
 2464              	.LVL168:
 2465              	.LFB174:
 614:Core/Src/radio/sx126x/sx126x.c **** 
 615:Core/Src/radio/sx126x/sx126x.c **** void SX126xSetBufferBaseAddress( uint8_t txBaseAddress, uint8_t rxBaseAddress )
 616:Core/Src/radio/sx126x/sx126x.c **** {
 2466              		.loc 1 616 1 is_stmt 1 view -0
 2467              		.cfi_startproc
 2468              		@ args = 0, pretend = 0, frame = 8
 2469              		@ frame_needed = 0, uses_anonymous_args = 0
 2470              		.loc 1 616 1 is_stmt 0 view .LVU587
 2471 0000 00B5     		push	{lr}
 2472              	.LCFI96:
 2473              		.cfi_def_cfa_offset 4
 2474              		.cfi_offset 14, -4
 2475 0002 83B0     		sub	sp, sp, #12
 2476              	.LCFI97:
 2477              		.cfi_def_cfa_offset 16
 617:Core/Src/radio/sx126x/sx126x.c ****     uint8_t buf[2];
 2478              		.loc 1 617 5 is_stmt 1 view .LVU588
 618:Core/Src/radio/sx126x/sx126x.c **** 
 619:Core/Src/radio/sx126x/sx126x.c ****     buf[0] = txBaseAddress;
 2479              		.loc 1 619 5 view .LVU589
 2480              		.loc 1 619 12 is_stmt 0 view .LVU590
 2481 0004 8DF80400 		strb	r0, [sp, #4]
 620:Core/Src/radio/sx126x/sx126x.c ****     buf[1] = rxBaseAddress;
 2482              		.loc 1 620 5 is_stmt 1 view .LVU591
 2483              		.loc 1 620 12 is_stmt 0 view .LVU592
 2484 0008 8DF80510 		strb	r1, [sp, #5]
 621:Core/Src/radio/sx126x/sx126x.c ****     SX126xWriteCommand( RADIO_SET_BUFFERBASEADDRESS, buf, 2 );
 2485              		.loc 1 621 5 is_stmt 1 view .LVU593
 2486 000c 0222     		movs	r2, #2
 2487 000e 01A9     		add	r1, sp, #4
 2488              	.LVL169:
 2489              		.loc 1 621 5 is_stmt 0 view .LVU594
 2490 0010 8F20     		movs	r0, #143
 2491              	.LVL170:
ARM GAS  C:\Users\andywei\AppData\Local\Temp\ccZfFIOd.s 			page 58


 2492              		.loc 1 621 5 view .LVU595
 2493 0012 FFF7FEFF 		bl	SX126xWriteCommand
 2494              	.LVL171:
 622:Core/Src/radio/sx126x/sx126x.c **** }
 2495              		.loc 1 622 1 view .LVU596
 2496 0016 03B0     		add	sp, sp, #12
 2497              	.LCFI98:
 2498              		.cfi_def_cfa_offset 4
 2499              		@ sp needed
 2500 0018 5DF804FB 		ldr	pc, [sp], #4
 2501              		.cfi_endproc
 2502              	.LFE174:
 2504              		.section	.text.SX126xGetStatus,"ax",%progbits
 2505              		.align	1
 2506              		.global	SX126xGetStatus
 2507              		.syntax unified
 2508              		.thumb
 2509              		.thumb_func
 2510              		.fpu fpv4-sp-d16
 2512              	SX126xGetStatus:
 2513              	.LFB175:
 623:Core/Src/radio/sx126x/sx126x.c **** 
 624:Core/Src/radio/sx126x/sx126x.c **** RadioStatus_t SX126xGetStatus( void )
 625:Core/Src/radio/sx126x/sx126x.c **** {
 2514              		.loc 1 625 1 is_stmt 1 view -0
 2515              		.cfi_startproc
 2516              		@ args = 0, pretend = 0, frame = 8
 2517              		@ frame_needed = 0, uses_anonymous_args = 0
 2518 0000 00B5     		push	{lr}
 2519              	.LCFI99:
 2520              		.cfi_def_cfa_offset 4
 2521              		.cfi_offset 14, -4
 2522 0002 83B0     		sub	sp, sp, #12
 2523              	.LCFI100:
 2524              		.cfi_def_cfa_offset 16
 626:Core/Src/radio/sx126x/sx126x.c ****     uint8_t stat = 0;
 2525              		.loc 1 626 5 view .LVU598
 2526              		.loc 1 626 13 is_stmt 0 view .LVU599
 2527 0004 0023     		movs	r3, #0
 2528 0006 8DF80730 		strb	r3, [sp, #7]
 627:Core/Src/radio/sx126x/sx126x.c ****     RadioStatus_t status;
 2529              		.loc 1 627 5 is_stmt 1 view .LVU600
 628:Core/Src/radio/sx126x/sx126x.c **** 
 629:Core/Src/radio/sx126x/sx126x.c ****     SX126xReadCommand( RADIO_GET_STATUS, ( uint8_t * )&stat, 1 );
 2530              		.loc 1 629 5 view .LVU601
 2531 000a 0122     		movs	r2, #1
 2532 000c 0DF10701 		add	r1, sp, #7
 2533 0010 C020     		movs	r0, #192
 2534 0012 FFF7FEFF 		bl	SX126xReadCommand
 2535              	.LVL172:
 630:Core/Src/radio/sx126x/sx126x.c ****     status.Value = stat;
 2536              		.loc 1 630 5 view .LVU602
 631:Core/Src/radio/sx126x/sx126x.c ****     return status;
 2537              		.loc 1 631 5 view .LVU603
 632:Core/Src/radio/sx126x/sx126x.c **** }
 2538              		.loc 1 632 1 is_stmt 0 view .LVU604
 2539 0016 9DF80700 		ldrb	r0, [sp, #7]	@ zero_extendqisi2
ARM GAS  C:\Users\andywei\AppData\Local\Temp\ccZfFIOd.s 			page 59


 2540 001a 03B0     		add	sp, sp, #12
 2541              	.LCFI101:
 2542              		.cfi_def_cfa_offset 4
 2543              		@ sp needed
 2544 001c 5DF804FB 		ldr	pc, [sp], #4
 2545              		.cfi_endproc
 2546              	.LFE175:
 2548              		.section	.text.SX126xGetRssiInst,"ax",%progbits
 2549              		.align	1
 2550              		.global	SX126xGetRssiInst
 2551              		.syntax unified
 2552              		.thumb
 2553              		.thumb_func
 2554              		.fpu fpv4-sp-d16
 2556              	SX126xGetRssiInst:
 2557              	.LFB176:
 633:Core/Src/radio/sx126x/sx126x.c **** 
 634:Core/Src/radio/sx126x/sx126x.c **** int8_t SX126xGetRssiInst( void )
 635:Core/Src/radio/sx126x/sx126x.c **** {
 2558              		.loc 1 635 1 is_stmt 1 view -0
 2559              		.cfi_startproc
 2560              		@ args = 0, pretend = 0, frame = 8
 2561              		@ frame_needed = 0, uses_anonymous_args = 0
 2562 0000 00B5     		push	{lr}
 2563              	.LCFI102:
 2564              		.cfi_def_cfa_offset 4
 2565              		.cfi_offset 14, -4
 2566 0002 83B0     		sub	sp, sp, #12
 2567              	.LCFI103:
 2568              		.cfi_def_cfa_offset 16
 636:Core/Src/radio/sx126x/sx126x.c ****     uint8_t buf[1];
 2569              		.loc 1 636 5 view .LVU606
 637:Core/Src/radio/sx126x/sx126x.c ****     int8_t rssi = 0;
 2570              		.loc 1 637 5 view .LVU607
 2571              	.LVL173:
 638:Core/Src/radio/sx126x/sx126x.c **** 
 639:Core/Src/radio/sx126x/sx126x.c ****     SX126xReadCommand( RADIO_GET_RSSIINST, buf, 1 );
 2572              		.loc 1 639 5 view .LVU608
 2573 0004 0122     		movs	r2, #1
 2574 0006 01A9     		add	r1, sp, #4
 2575 0008 1520     		movs	r0, #21
 2576 000a FFF7FEFF 		bl	SX126xReadCommand
 2577              	.LVL174:
 640:Core/Src/radio/sx126x/sx126x.c ****     rssi = -buf[0] >> 1;
 2578              		.loc 1 640 5 view .LVU609
 2579              		.loc 1 640 16 is_stmt 0 view .LVU610
 2580 000e 9DF80400 		ldrb	r0, [sp, #4]	@ zero_extendqisi2
 2581              		.loc 1 640 12 view .LVU611
 2582 0012 4042     		rsbs	r0, r0, #0
 2583              	.LVL175:
 641:Core/Src/radio/sx126x/sx126x.c ****     return rssi;
 2584              		.loc 1 641 5 is_stmt 1 view .LVU612
 642:Core/Src/radio/sx126x/sx126x.c **** }
 2585              		.loc 1 642 1 is_stmt 0 view .LVU613
 2586 0014 4010     		asrs	r0, r0, #1
 2587              	.LVL176:
 2588              		.loc 1 642 1 view .LVU614
ARM GAS  C:\Users\andywei\AppData\Local\Temp\ccZfFIOd.s 			page 60


 2589 0016 03B0     		add	sp, sp, #12
 2590              	.LCFI104:
 2591              		.cfi_def_cfa_offset 4
 2592              		@ sp needed
 2593 0018 5DF804FB 		ldr	pc, [sp], #4
 2594              		.loc 1 642 1 view .LVU615
 2595              		.cfi_endproc
 2596              	.LFE176:
 2598              		.section	.text.SX126xGetRxBufferStatus,"ax",%progbits
 2599              		.align	1
 2600              		.global	SX126xGetRxBufferStatus
 2601              		.syntax unified
 2602              		.thumb
 2603              		.thumb_func
 2604              		.fpu fpv4-sp-d16
 2606              	SX126xGetRxBufferStatus:
 2607              	.LVL177:
 2608              	.LFB177:
 643:Core/Src/radio/sx126x/sx126x.c **** 
 644:Core/Src/radio/sx126x/sx126x.c **** void SX126xGetRxBufferStatus( uint8_t *payloadLength, uint8_t *rxStartBufferPointer )
 645:Core/Src/radio/sx126x/sx126x.c **** {
 2609              		.loc 1 645 1 is_stmt 1 view -0
 2610              		.cfi_startproc
 2611              		@ args = 0, pretend = 0, frame = 8
 2612              		@ frame_needed = 0, uses_anonymous_args = 0
 2613              		.loc 1 645 1 is_stmt 0 view .LVU617
 2614 0000 30B5     		push	{r4, r5, lr}
 2615              	.LCFI105:
 2616              		.cfi_def_cfa_offset 12
 2617              		.cfi_offset 4, -12
 2618              		.cfi_offset 5, -8
 2619              		.cfi_offset 14, -4
 2620 0002 83B0     		sub	sp, sp, #12
 2621              	.LCFI106:
 2622              		.cfi_def_cfa_offset 24
 2623 0004 0546     		mov	r5, r0
 2624 0006 0C46     		mov	r4, r1
 646:Core/Src/radio/sx126x/sx126x.c ****     uint8_t status[2];
 2625              		.loc 1 646 5 is_stmt 1 view .LVU618
 647:Core/Src/radio/sx126x/sx126x.c **** 
 648:Core/Src/radio/sx126x/sx126x.c ****     SX126xReadCommand( RADIO_GET_RXBUFFERSTATUS, status, 2 );
 2626              		.loc 1 648 5 view .LVU619
 2627 0008 0222     		movs	r2, #2
 2628 000a 01A9     		add	r1, sp, #4
 2629              	.LVL178:
 2630              		.loc 1 648 5 is_stmt 0 view .LVU620
 2631 000c 1320     		movs	r0, #19
 2632              	.LVL179:
 2633              		.loc 1 648 5 view .LVU621
 2634 000e FFF7FEFF 		bl	SX126xReadCommand
 2635              	.LVL180:
 649:Core/Src/radio/sx126x/sx126x.c **** 
 650:Core/Src/radio/sx126x/sx126x.c ****     // In case of LORA fixed header, the payloadLength is obtained by reading
 651:Core/Src/radio/sx126x/sx126x.c ****     // the register REG_LR_PAYLOADLENGTH
 652:Core/Src/radio/sx126x/sx126x.c ****     if( ( SX126xGetPacketType( ) == PACKET_TYPE_LORA ) && ( SX126xReadRegister( REG_LR_PACKETPARAMS
 2636              		.loc 1 652 5 is_stmt 1 view .LVU622
 2637              		.loc 1 652 11 is_stmt 0 view .LVU623
ARM GAS  C:\Users\andywei\AppData\Local\Temp\ccZfFIOd.s 			page 61


 2638 0012 FFF7FEFF 		bl	SX126xGetPacketType
 2639              	.LVL181:
 2640              		.loc 1 652 7 view .LVU624
 2641 0016 0128     		cmp	r0, #1
 2642 0018 07D0     		beq	.L165
 2643              	.L162:
 653:Core/Src/radio/sx126x/sx126x.c ****     {
 654:Core/Src/radio/sx126x/sx126x.c ****         *payloadLength = SX126xReadRegister( REG_LR_PAYLOADLENGTH );
 655:Core/Src/radio/sx126x/sx126x.c ****     }
 656:Core/Src/radio/sx126x/sx126x.c ****     else
 657:Core/Src/radio/sx126x/sx126x.c ****     {
 658:Core/Src/radio/sx126x/sx126x.c ****         *payloadLength = status[0];
 2644              		.loc 1 658 9 is_stmt 1 view .LVU625
 2645              		.loc 1 658 32 is_stmt 0 view .LVU626
 2646 001a 9DF80430 		ldrb	r3, [sp, #4]	@ zero_extendqisi2
 2647              		.loc 1 658 24 view .LVU627
 2648 001e 2B70     		strb	r3, [r5]
 2649              	.L163:
 659:Core/Src/radio/sx126x/sx126x.c ****     }
 660:Core/Src/radio/sx126x/sx126x.c ****     *rxStartBufferPointer = status[1];
 2650              		.loc 1 660 5 is_stmt 1 view .LVU628
 2651              		.loc 1 660 35 is_stmt 0 view .LVU629
 2652 0020 9DF80530 		ldrb	r3, [sp, #5]	@ zero_extendqisi2
 2653              		.loc 1 660 27 view .LVU630
 2654 0024 2370     		strb	r3, [r4]
 661:Core/Src/radio/sx126x/sx126x.c **** }
 2655              		.loc 1 661 1 view .LVU631
 2656 0026 03B0     		add	sp, sp, #12
 2657              	.LCFI107:
 2658              		.cfi_remember_state
 2659              		.cfi_def_cfa_offset 12
 2660              		@ sp needed
 2661 0028 30BD     		pop	{r4, r5, pc}
 2662              	.LVL182:
 2663              	.L165:
 2664              	.LCFI108:
 2665              		.cfi_restore_state
 652:Core/Src/radio/sx126x/sx126x.c ****     {
 2666              		.loc 1 652 61 discriminator 1 view .LVU632
 2667 002a 40F20470 		movw	r0, #1796
 2668 002e FFF7FEFF 		bl	SX126xReadRegister
 2669              	.LVL183:
 652:Core/Src/radio/sx126x/sx126x.c ****     {
 2670              		.loc 1 652 108 discriminator 1 view .LVU633
 2671 0032 C0F3C710 		ubfx	r0, r0, #7, #8
 652:Core/Src/radio/sx126x/sx126x.c ****     {
 2672              		.loc 1 652 56 discriminator 1 view .LVU634
 2673 0036 0128     		cmp	r0, #1
 2674 0038 EFD1     		bne	.L162
 654:Core/Src/radio/sx126x/sx126x.c ****     }
 2675              		.loc 1 654 9 is_stmt 1 view .LVU635
 654:Core/Src/radio/sx126x/sx126x.c ****     }
 2676              		.loc 1 654 26 is_stmt 0 view .LVU636
 2677 003a 40F20270 		movw	r0, #1794
 2678 003e FFF7FEFF 		bl	SX126xReadRegister
 2679              	.LVL184:
 654:Core/Src/radio/sx126x/sx126x.c ****     }
ARM GAS  C:\Users\andywei\AppData\Local\Temp\ccZfFIOd.s 			page 62


 2680              		.loc 1 654 24 view .LVU637
 2681 0042 2870     		strb	r0, [r5]
 2682 0044 ECE7     		b	.L163
 2683              		.cfi_endproc
 2684              	.LFE177:
 2686              		.section	.text.SX126xGetPayload,"ax",%progbits
 2687              		.align	1
 2688              		.global	SX126xGetPayload
 2689              		.syntax unified
 2690              		.thumb
 2691              		.thumb_func
 2692              		.fpu fpv4-sp-d16
 2694              	SX126xGetPayload:
 2695              	.LVL185:
 2696              	.LFB139:
 126:Core/Src/radio/sx126x/sx126x.c ****     uint8_t offset = 0;
 2697              		.loc 1 126 1 is_stmt 1 view -0
 2698              		.cfi_startproc
 2699              		@ args = 0, pretend = 0, frame = 8
 2700              		@ frame_needed = 0, uses_anonymous_args = 0
 126:Core/Src/radio/sx126x/sx126x.c ****     uint8_t offset = 0;
 2701              		.loc 1 126 1 is_stmt 0 view .LVU639
 2702 0000 70B5     		push	{r4, r5, r6, lr}
 2703              	.LCFI109:
 2704              		.cfi_def_cfa_offset 16
 2705              		.cfi_offset 4, -16
 2706              		.cfi_offset 5, -12
 2707              		.cfi_offset 6, -8
 2708              		.cfi_offset 14, -4
 2709 0002 82B0     		sub	sp, sp, #8
 2710              	.LCFI110:
 2711              		.cfi_def_cfa_offset 24
 2712 0004 0646     		mov	r6, r0
 2713 0006 0C46     		mov	r4, r1
 2714 0008 1546     		mov	r5, r2
 127:Core/Src/radio/sx126x/sx126x.c **** 
 2715              		.loc 1 127 5 is_stmt 1 view .LVU640
 127:Core/Src/radio/sx126x/sx126x.c **** 
 2716              		.loc 1 127 13 is_stmt 0 view .LVU641
 2717 000a 0023     		movs	r3, #0
 2718 000c 8DF80730 		strb	r3, [sp, #7]
 129:Core/Src/radio/sx126x/sx126x.c ****     if( *size > maxSize )
 2719              		.loc 1 129 5 is_stmt 1 view .LVU642
 2720 0010 0DF10701 		add	r1, sp, #7
 2721              	.LVL186:
 129:Core/Src/radio/sx126x/sx126x.c ****     if( *size > maxSize )
 2722              		.loc 1 129 5 is_stmt 0 view .LVU643
 2723 0014 2046     		mov	r0, r4
 2724              	.LVL187:
 129:Core/Src/radio/sx126x/sx126x.c ****     if( *size > maxSize )
 2725              		.loc 1 129 5 view .LVU644
 2726 0016 FFF7FEFF 		bl	SX126xGetRxBufferStatus
 2727              	.LVL188:
 130:Core/Src/radio/sx126x/sx126x.c ****     {
 2728              		.loc 1 130 5 is_stmt 1 view .LVU645
 130:Core/Src/radio/sx126x/sx126x.c ****     {
 2729              		.loc 1 130 9 is_stmt 0 view .LVU646
ARM GAS  C:\Users\andywei\AppData\Local\Temp\ccZfFIOd.s 			page 63


 2730 001a 2278     		ldrb	r2, [r4]	@ zero_extendqisi2
 130:Core/Src/radio/sx126x/sx126x.c ****     {
 2731              		.loc 1 130 7 view .LVU647
 2732 001c AA42     		cmp	r2, r5
 2733 001e 02D9     		bls	.L170
 132:Core/Src/radio/sx126x/sx126x.c ****     }
 2734              		.loc 1 132 16 view .LVU648
 2735 0020 0120     		movs	r0, #1
 2736              	.L167:
 136:Core/Src/radio/sx126x/sx126x.c **** 
 2737              		.loc 1 136 1 view .LVU649
 2738 0022 02B0     		add	sp, sp, #8
 2739              	.LCFI111:
 2740              		.cfi_remember_state
 2741              		.cfi_def_cfa_offset 16
 2742              		@ sp needed
 2743 0024 70BD     		pop	{r4, r5, r6, pc}
 2744              	.LVL189:
 2745              	.L170:
 2746              	.LCFI112:
 2747              		.cfi_restore_state
 134:Core/Src/radio/sx126x/sx126x.c ****     return 0;
 2748              		.loc 1 134 5 is_stmt 1 view .LVU650
 2749 0026 3146     		mov	r1, r6
 2750 0028 9DF80700 		ldrb	r0, [sp, #7]	@ zero_extendqisi2
 2751 002c FFF7FEFF 		bl	SX126xReadBuffer
 2752              	.LVL190:
 135:Core/Src/radio/sx126x/sx126x.c **** }
 2753              		.loc 1 135 5 view .LVU651
 135:Core/Src/radio/sx126x/sx126x.c **** }
 2754              		.loc 1 135 12 is_stmt 0 view .LVU652
 2755 0030 0020     		movs	r0, #0
 2756 0032 F6E7     		b	.L167
 2757              		.cfi_endproc
 2758              	.LFE139:
 2760              		.section	.text.SX126xGetPacketStatus,"ax",%progbits
 2761              		.align	1
 2762              		.global	SX126xGetPacketStatus
 2763              		.syntax unified
 2764              		.thumb
 2765              		.thumb_func
 2766              		.fpu fpv4-sp-d16
 2768              	SX126xGetPacketStatus:
 2769              	.LVL191:
 2770              	.LFB178:
 662:Core/Src/radio/sx126x/sx126x.c **** 
 663:Core/Src/radio/sx126x/sx126x.c **** void SX126xGetPacketStatus( PacketStatus_t *pktStatus )
 664:Core/Src/radio/sx126x/sx126x.c **** {
 2771              		.loc 1 664 1 is_stmt 1 view -0
 2772              		.cfi_startproc
 2773              		@ args = 0, pretend = 0, frame = 8
 2774              		@ frame_needed = 0, uses_anonymous_args = 0
 2775              		.loc 1 664 1 is_stmt 0 view .LVU654
 2776 0000 10B5     		push	{r4, lr}
 2777              	.LCFI113:
 2778              		.cfi_def_cfa_offset 8
 2779              		.cfi_offset 4, -8
ARM GAS  C:\Users\andywei\AppData\Local\Temp\ccZfFIOd.s 			page 64


 2780              		.cfi_offset 14, -4
 2781 0002 82B0     		sub	sp, sp, #8
 2782              	.LCFI114:
 2783              		.cfi_def_cfa_offset 16
 2784 0004 0446     		mov	r4, r0
 665:Core/Src/radio/sx126x/sx126x.c ****     uint8_t status[3];
 2785              		.loc 1 665 5 is_stmt 1 view .LVU655
 666:Core/Src/radio/sx126x/sx126x.c **** 
 667:Core/Src/radio/sx126x/sx126x.c ****     SX126xReadCommand( RADIO_GET_PACKETSTATUS, status, 3 );
 2786              		.loc 1 667 5 view .LVU656
 2787 0006 0322     		movs	r2, #3
 2788 0008 01A9     		add	r1, sp, #4
 2789 000a 1420     		movs	r0, #20
 2790              	.LVL192:
 2791              		.loc 1 667 5 is_stmt 0 view .LVU657
 2792 000c FFF7FEFF 		bl	SX126xReadCommand
 2793              	.LVL193:
 668:Core/Src/radio/sx126x/sx126x.c **** 
 669:Core/Src/radio/sx126x/sx126x.c ****     pktStatus->packetType = SX126xGetPacketType( );
 2794              		.loc 1 669 5 is_stmt 1 view .LVU658
 2795              		.loc 1 669 29 is_stmt 0 view .LVU659
 2796 0010 FFF7FEFF 		bl	SX126xGetPacketType
 2797              	.LVL194:
 2798              		.loc 1 669 27 view .LVU660
 2799 0014 2070     		strb	r0, [r4]
 670:Core/Src/radio/sx126x/sx126x.c ****     switch( pktStatus->packetType )
 2800              		.loc 1 670 5 is_stmt 1 view .LVU661
 2801 0016 50B1     		cbz	r0, .L172
 2802 0018 0128     		cmp	r0, #1
 2803 001a 19D0     		beq	.L173
 671:Core/Src/radio/sx126x/sx126x.c ****     {
 672:Core/Src/radio/sx126x/sx126x.c ****         case PACKET_TYPE_GFSK:
 673:Core/Src/radio/sx126x/sx126x.c ****             pktStatus->Params.Gfsk.RxStatus = status[0];
 674:Core/Src/radio/sx126x/sx126x.c ****             pktStatus->Params.Gfsk.RssiSync = -status[1] >> 1;
 675:Core/Src/radio/sx126x/sx126x.c ****             pktStatus->Params.Gfsk.RssiAvg = -status[2] >> 1;
 676:Core/Src/radio/sx126x/sx126x.c ****             pktStatus->Params.Gfsk.FreqError = 0;
 677:Core/Src/radio/sx126x/sx126x.c ****             break;
 678:Core/Src/radio/sx126x/sx126x.c **** 
 679:Core/Src/radio/sx126x/sx126x.c ****         case PACKET_TYPE_LORA:
 680:Core/Src/radio/sx126x/sx126x.c ****             pktStatus->Params.LoRa.RssiPkt = -status[0] >> 1;
 681:Core/Src/radio/sx126x/sx126x.c ****             ( status[1] < 128 ) ? ( pktStatus->Params.LoRa.SnrPkt = status[1] >> 2 ) : ( pktStatus-
 682:Core/Src/radio/sx126x/sx126x.c ****             pktStatus->Params.LoRa.SignalRssiPkt = -status[2] >> 1;
 683:Core/Src/radio/sx126x/sx126x.c ****             pktStatus->Params.LoRa.FreqError = FrequencyError;
 684:Core/Src/radio/sx126x/sx126x.c ****             break;
 685:Core/Src/radio/sx126x/sx126x.c **** 
 686:Core/Src/radio/sx126x/sx126x.c ****         default:
 687:Core/Src/radio/sx126x/sx126x.c ****         case PACKET_TYPE_NONE:
 688:Core/Src/radio/sx126x/sx126x.c ****             // In that specific case, we set everything in the pktStatus to zeros
 689:Core/Src/radio/sx126x/sx126x.c ****             // and reset the packet type accordingly
 690:Core/Src/radio/sx126x/sx126x.c ****             memset( pktStatus, 0, sizeof( PacketStatus_t ) );
 2804              		.loc 1 690 13 view .LVU662
 2805 001c 0023     		movs	r3, #0
 2806 001e 2360     		str	r3, [r4]	@ unaligned
 2807 0020 6360     		str	r3, [r4, #4]	@ unaligned
 2808 0022 A360     		str	r3, [r4, #8]	@ unaligned
 2809 0024 E360     		str	r3, [r4, #12]	@ unaligned
 2810 0026 2361     		str	r3, [r4, #16]	@ unaligned
ARM GAS  C:\Users\andywei\AppData\Local\Temp\ccZfFIOd.s 			page 65


 691:Core/Src/radio/sx126x/sx126x.c ****             pktStatus->packetType = PACKET_TYPE_NONE;
 2811              		.loc 1 691 13 view .LVU663
 2812              		.loc 1 691 35 is_stmt 0 view .LVU664
 2813 0028 0F23     		movs	r3, #15
 2814 002a 2370     		strb	r3, [r4]
 692:Core/Src/radio/sx126x/sx126x.c ****             break;
 2815              		.loc 1 692 13 is_stmt 1 view .LVU665
 693:Core/Src/radio/sx126x/sx126x.c ****     }
 694:Core/Src/radio/sx126x/sx126x.c **** }
 2816              		.loc 1 694 1 is_stmt 0 view .LVU666
 2817 002c 0EE0     		b	.L171
 2818              	.L172:
 673:Core/Src/radio/sx126x/sx126x.c ****             pktStatus->Params.Gfsk.RssiSync = -status[1] >> 1;
 2819              		.loc 1 673 13 is_stmt 1 view .LVU667
 673:Core/Src/radio/sx126x/sx126x.c ****             pktStatus->Params.Gfsk.RssiSync = -status[1] >> 1;
 2820              		.loc 1 673 53 is_stmt 0 view .LVU668
 2821 002e 9DF80430 		ldrb	r3, [sp, #4]	@ zero_extendqisi2
 673:Core/Src/radio/sx126x/sx126x.c ****             pktStatus->Params.Gfsk.RssiSync = -status[1] >> 1;
 2822              		.loc 1 673 45 view .LVU669
 2823 0032 2371     		strb	r3, [r4, #4]
 674:Core/Src/radio/sx126x/sx126x.c ****             pktStatus->Params.Gfsk.RssiAvg = -status[2] >> 1;
 2824              		.loc 1 674 13 is_stmt 1 view .LVU670
 674:Core/Src/radio/sx126x/sx126x.c ****             pktStatus->Params.Gfsk.RssiAvg = -status[2] >> 1;
 2825              		.loc 1 674 54 is_stmt 0 view .LVU671
 2826 0034 9DF80530 		ldrb	r3, [sp, #5]	@ zero_extendqisi2
 674:Core/Src/radio/sx126x/sx126x.c ****             pktStatus->Params.Gfsk.RssiAvg = -status[2] >> 1;
 2827              		.loc 1 674 47 view .LVU672
 2828 0038 5B42     		rsbs	r3, r3, #0
 674:Core/Src/radio/sx126x/sx126x.c ****             pktStatus->Params.Gfsk.RssiAvg = -status[2] >> 1;
 2829              		.loc 1 674 58 view .LVU673
 2830 003a 5B10     		asrs	r3, r3, #1
 674:Core/Src/radio/sx126x/sx126x.c ****             pktStatus->Params.Gfsk.RssiAvg = -status[2] >> 1;
 2831              		.loc 1 674 45 view .LVU674
 2832 003c A371     		strb	r3, [r4, #6]
 675:Core/Src/radio/sx126x/sx126x.c ****             pktStatus->Params.Gfsk.FreqError = 0;
 2833              		.loc 1 675 13 is_stmt 1 view .LVU675
 675:Core/Src/radio/sx126x/sx126x.c ****             pktStatus->Params.Gfsk.FreqError = 0;
 2834              		.loc 1 675 53 is_stmt 0 view .LVU676
 2835 003e 9DF80630 		ldrb	r3, [sp, #6]	@ zero_extendqisi2
 675:Core/Src/radio/sx126x/sx126x.c ****             pktStatus->Params.Gfsk.FreqError = 0;
 2836              		.loc 1 675 46 view .LVU677
 2837 0042 5B42     		rsbs	r3, r3, #0
 675:Core/Src/radio/sx126x/sx126x.c ****             pktStatus->Params.Gfsk.FreqError = 0;
 2838              		.loc 1 675 57 view .LVU678
 2839 0044 5B10     		asrs	r3, r3, #1
 675:Core/Src/radio/sx126x/sx126x.c ****             pktStatus->Params.Gfsk.FreqError = 0;
 2840              		.loc 1 675 44 view .LVU679
 2841 0046 6371     		strb	r3, [r4, #5]
 676:Core/Src/radio/sx126x/sx126x.c ****             break;
 2842              		.loc 1 676 13 is_stmt 1 view .LVU680
 676:Core/Src/radio/sx126x/sx126x.c ****             break;
 2843              		.loc 1 676 46 is_stmt 0 view .LVU681
 2844 0048 0023     		movs	r3, #0
 2845 004a A360     		str	r3, [r4, #8]
 677:Core/Src/radio/sx126x/sx126x.c **** 
 2846              		.loc 1 677 13 is_stmt 1 view .LVU682
 2847              	.L171:
ARM GAS  C:\Users\andywei\AppData\Local\Temp\ccZfFIOd.s 			page 66


 2848              		.loc 1 694 1 is_stmt 0 view .LVU683
 2849 004c 02B0     		add	sp, sp, #8
 2850              	.LCFI115:
 2851              		.cfi_remember_state
 2852              		.cfi_def_cfa_offset 8
 2853              		@ sp needed
 2854 004e 10BD     		pop	{r4, pc}
 2855              	.LVL195:
 2856              	.L173:
 2857              	.LCFI116:
 2858              		.cfi_restore_state
 680:Core/Src/radio/sx126x/sx126x.c ****             ( status[1] < 128 ) ? ( pktStatus->Params.LoRa.SnrPkt = status[1] >> 2 ) : ( pktStatus-
 2859              		.loc 1 680 13 is_stmt 1 view .LVU684
 680:Core/Src/radio/sx126x/sx126x.c ****             ( status[1] < 128 ) ? ( pktStatus->Params.LoRa.SnrPkt = status[1] >> 2 ) : ( pktStatus-
 2860              		.loc 1 680 53 is_stmt 0 view .LVU685
 2861 0050 9DF80430 		ldrb	r3, [sp, #4]	@ zero_extendqisi2
 680:Core/Src/radio/sx126x/sx126x.c ****             ( status[1] < 128 ) ? ( pktStatus->Params.LoRa.SnrPkt = status[1] >> 2 ) : ( pktStatus-
 2862              		.loc 1 680 46 view .LVU686
 2863 0054 5B42     		rsbs	r3, r3, #0
 680:Core/Src/radio/sx126x/sx126x.c ****             ( status[1] < 128 ) ? ( pktStatus->Params.LoRa.SnrPkt = status[1] >> 2 ) : ( pktStatus-
 2864              		.loc 1 680 57 view .LVU687
 2865 0056 5B10     		asrs	r3, r3, #1
 680:Core/Src/radio/sx126x/sx126x.c ****             ( status[1] < 128 ) ? ( pktStatus->Params.LoRa.SnrPkt = status[1] >> 2 ) : ( pktStatus-
 2866              		.loc 1 680 44 view .LVU688
 2867 0058 2373     		strb	r3, [r4, #12]
 681:Core/Src/radio/sx126x/sx126x.c ****             pktStatus->Params.LoRa.SignalRssiPkt = -status[2] >> 1;
 2868              		.loc 1 681 13 is_stmt 1 view .LVU689
 681:Core/Src/radio/sx126x/sx126x.c ****             pktStatus->Params.LoRa.SignalRssiPkt = -status[2] >> 1;
 2869              		.loc 1 681 21 is_stmt 0 view .LVU690
 2870 005a 9DF80530 		ldrb	r3, [sp, #5]	@ zero_extendqisi2
 681:Core/Src/radio/sx126x/sx126x.c ****             pktStatus->Params.LoRa.SignalRssiPkt = -status[2] >> 1;
 2871              		.loc 1 681 25 view .LVU691
 2872 005e 9DF90520 		ldrsb	r2, [sp, #5]
 681:Core/Src/radio/sx126x/sx126x.c ****             pktStatus->Params.LoRa.SignalRssiPkt = -status[2] >> 1;
 2873              		.loc 1 681 86 view .LVU692
 2874 0062 002A     		cmp	r2, #0
 2875 0064 0ADB     		blt	.L176
 681:Core/Src/radio/sx126x/sx126x.c ****             pktStatus->Params.LoRa.SignalRssiPkt = -status[2] >> 1;
 2876              		.loc 1 681 67 discriminator 1 view .LVU693
 2877 0066 9B08     		lsrs	r3, r3, #2
 2878 0068 6373     		strb	r3, [r4, #13]
 2879              	.L177:
 682:Core/Src/radio/sx126x/sx126x.c ****             pktStatus->Params.LoRa.FreqError = FrequencyError;
 2880              		.loc 1 682 13 is_stmt 1 view .LVU694
 682:Core/Src/radio/sx126x/sx126x.c ****             pktStatus->Params.LoRa.FreqError = FrequencyError;
 2881              		.loc 1 682 59 is_stmt 0 view .LVU695
 2882 006a 9DF80630 		ldrb	r3, [sp, #6]	@ zero_extendqisi2
 682:Core/Src/radio/sx126x/sx126x.c ****             pktStatus->Params.LoRa.FreqError = FrequencyError;
 2883              		.loc 1 682 52 view .LVU696
 2884 006e 5B42     		rsbs	r3, r3, #0
 682:Core/Src/radio/sx126x/sx126x.c ****             pktStatus->Params.LoRa.FreqError = FrequencyError;
 2885              		.loc 1 682 63 view .LVU697
 2886 0070 5B10     		asrs	r3, r3, #1
 682:Core/Src/radio/sx126x/sx126x.c ****             pktStatus->Params.LoRa.FreqError = FrequencyError;
 2887              		.loc 1 682 50 view .LVU698
 2888 0072 A373     		strb	r3, [r4, #14]
 683:Core/Src/radio/sx126x/sx126x.c ****             break;
ARM GAS  C:\Users\andywei\AppData\Local\Temp\ccZfFIOd.s 			page 67


 2889              		.loc 1 683 13 is_stmt 1 view .LVU699
 683:Core/Src/radio/sx126x/sx126x.c ****             break;
 2890              		.loc 1 683 46 is_stmt 0 view .LVU700
 2891 0074 044B     		ldr	r3, .L180
 2892 0076 1B68     		ldr	r3, [r3]
 2893 0078 2361     		str	r3, [r4, #16]
 684:Core/Src/radio/sx126x/sx126x.c **** 
 2894              		.loc 1 684 13 is_stmt 1 view .LVU701
 2895 007a E7E7     		b	.L171
 2896              	.L176:
 681:Core/Src/radio/sx126x/sx126x.c ****             pktStatus->Params.LoRa.SignalRssiPkt = -status[2] >> 1;
 2897              		.loc 1 681 136 is_stmt 0 discriminator 2 view .LVU702
 2898 007c A3F58073 		sub	r3, r3, #256
 681:Core/Src/radio/sx126x/sx126x.c ****             pktStatus->Params.LoRa.SignalRssiPkt = -status[2] >> 1;
 2899              		.loc 1 681 144 discriminator 2 view .LVU703
 2900 0080 9B10     		asrs	r3, r3, #2
 681:Core/Src/radio/sx126x/sx126x.c ****             pktStatus->Params.LoRa.SignalRssiPkt = -status[2] >> 1;
 2901              		.loc 1 681 120 discriminator 2 view .LVU704
 2902 0082 6373     		strb	r3, [r4, #13]
 2903 0084 F1E7     		b	.L177
 2904              	.L181:
 2905 0086 00BF     		.align	2
 2906              	.L180:
 2907 0088 00000000 		.word	.LANCHOR4
 2908              		.cfi_endproc
 2909              	.LFE178:
 2911              		.section	.text.SX126xGetDeviceErrors,"ax",%progbits
 2912              		.align	1
 2913              		.global	SX126xGetDeviceErrors
 2914              		.syntax unified
 2915              		.thumb
 2916              		.thumb_func
 2917              		.fpu fpv4-sp-d16
 2919              	SX126xGetDeviceErrors:
 2920              	.LFB179:
 695:Core/Src/radio/sx126x/sx126x.c **** 
 696:Core/Src/radio/sx126x/sx126x.c **** RadioError_t SX126xGetDeviceErrors( void )
 697:Core/Src/radio/sx126x/sx126x.c **** {
 2921              		.loc 1 697 1 is_stmt 1 view -0
 2922              		.cfi_startproc
 2923              		@ args = 0, pretend = 0, frame = 8
 2924              		@ frame_needed = 0, uses_anonymous_args = 0
 2925 0000 00B5     		push	{lr}
 2926              	.LCFI117:
 2927              		.cfi_def_cfa_offset 4
 2928              		.cfi_offset 14, -4
 2929 0002 83B0     		sub	sp, sp, #12
 2930              	.LCFI118:
 2931              		.cfi_def_cfa_offset 16
 698:Core/Src/radio/sx126x/sx126x.c ****     RadioError_t error;
 2932              		.loc 1 698 5 view .LVU706
 699:Core/Src/radio/sx126x/sx126x.c **** 
 700:Core/Src/radio/sx126x/sx126x.c ****     SX126xReadCommand( RADIO_GET_ERROR, ( uint8_t * )&error, 2 );
 2933              		.loc 1 700 5 view .LVU707
 2934 0004 0222     		movs	r2, #2
 2935 0006 01A9     		add	r1, sp, #4
 2936 0008 1720     		movs	r0, #23
ARM GAS  C:\Users\andywei\AppData\Local\Temp\ccZfFIOd.s 			page 68


 2937 000a FFF7FEFF 		bl	SX126xReadCommand
 2938              	.LVL196:
 701:Core/Src/radio/sx126x/sx126x.c ****     return error;
 2939              		.loc 1 701 5 view .LVU708
 702:Core/Src/radio/sx126x/sx126x.c **** }
 2940              		.loc 1 702 1 is_stmt 0 view .LVU709
 2941 000e BDF80400 		ldrh	r0, [sp, #4]
 2942 0012 03B0     		add	sp, sp, #12
 2943              	.LCFI119:
 2944              		.cfi_def_cfa_offset 4
 2945              		@ sp needed
 2946 0014 5DF804FB 		ldr	pc, [sp], #4
 2947              		.cfi_endproc
 2948              	.LFE179:
 2950              		.section	.text.SX126xClearDeviceErrors,"ax",%progbits
 2951              		.align	1
 2952              		.global	SX126xClearDeviceErrors
 2953              		.syntax unified
 2954              		.thumb
 2955              		.thumb_func
 2956              		.fpu fpv4-sp-d16
 2958              	SX126xClearDeviceErrors:
 2959              	.LFB180:
 703:Core/Src/radio/sx126x/sx126x.c **** 
 704:Core/Src/radio/sx126x/sx126x.c **** void SX126xClearDeviceErrors( void )
 705:Core/Src/radio/sx126x/sx126x.c **** {
 2960              		.loc 1 705 1 is_stmt 1 view -0
 2961              		.cfi_startproc
 2962              		@ args = 0, pretend = 0, frame = 8
 2963              		@ frame_needed = 0, uses_anonymous_args = 0
 2964 0000 00B5     		push	{lr}
 2965              	.LCFI120:
 2966              		.cfi_def_cfa_offset 4
 2967              		.cfi_offset 14, -4
 2968 0002 83B0     		sub	sp, sp, #12
 2969              	.LCFI121:
 2970              		.cfi_def_cfa_offset 16
 706:Core/Src/radio/sx126x/sx126x.c ****     uint8_t buf[2] = { 0x00, 0x00 };
 2971              		.loc 1 706 5 view .LVU711
 2972              		.loc 1 706 13 is_stmt 0 view .LVU712
 2973 0004 0023     		movs	r3, #0
 2974 0006 ADF80430 		strh	r3, [sp, #4]	@ movhi
 707:Core/Src/radio/sx126x/sx126x.c ****     SX126xWriteCommand( RADIO_CLR_ERROR, buf, 2 );
 2975              		.loc 1 707 5 is_stmt 1 view .LVU713
 2976 000a 0222     		movs	r2, #2
 2977 000c 01A9     		add	r1, sp, #4
 2978 000e 0720     		movs	r0, #7
 2979 0010 FFF7FEFF 		bl	SX126xWriteCommand
 2980              	.LVL197:
 708:Core/Src/radio/sx126x/sx126x.c **** }
 2981              		.loc 1 708 1 is_stmt 0 view .LVU714
 2982 0014 03B0     		add	sp, sp, #12
 2983              	.LCFI122:
 2984              		.cfi_def_cfa_offset 4
 2985              		@ sp needed
 2986 0016 5DF804FB 		ldr	pc, [sp], #4
 2987              		.cfi_endproc
ARM GAS  C:\Users\andywei\AppData\Local\Temp\ccZfFIOd.s 			page 69


 2988              	.LFE180:
 2990              		.section	.text.SX126xClearIrqStatus,"ax",%progbits
 2991              		.align	1
 2992              		.global	SX126xClearIrqStatus
 2993              		.syntax unified
 2994              		.thumb
 2995              		.thumb_func
 2996              		.fpu fpv4-sp-d16
 2998              	SX126xClearIrqStatus:
 2999              	.LVL198:
 3000              	.LFB181:
 709:Core/Src/radio/sx126x/sx126x.c **** 
 710:Core/Src/radio/sx126x/sx126x.c **** void SX126xClearIrqStatus( uint16_t irq )
 711:Core/Src/radio/sx126x/sx126x.c **** {
 3001              		.loc 1 711 1 is_stmt 1 view -0
 3002              		.cfi_startproc
 3003              		@ args = 0, pretend = 0, frame = 8
 3004              		@ frame_needed = 0, uses_anonymous_args = 0
 3005              		.loc 1 711 1 is_stmt 0 view .LVU716
 3006 0000 00B5     		push	{lr}
 3007              	.LCFI123:
 3008              		.cfi_def_cfa_offset 4
 3009              		.cfi_offset 14, -4
 3010 0002 83B0     		sub	sp, sp, #12
 3011              	.LCFI124:
 3012              		.cfi_def_cfa_offset 16
 712:Core/Src/radio/sx126x/sx126x.c ****     uint8_t buf[2];
 3013              		.loc 1 712 5 is_stmt 1 view .LVU717
 713:Core/Src/radio/sx126x/sx126x.c **** 
 714:Core/Src/radio/sx126x/sx126x.c ****     buf[0] = ( uint8_t )( ( ( uint16_t )irq >> 8 ) & 0x00FF );
 3014              		.loc 1 714 5 view .LVU718
 3015              		.loc 1 714 14 is_stmt 0 view .LVU719
 3016 0004 030A     		lsrs	r3, r0, #8
 3017              		.loc 1 714 12 view .LVU720
 3018 0006 8DF80430 		strb	r3, [sp, #4]
 715:Core/Src/radio/sx126x/sx126x.c ****     buf[1] = ( uint8_t )( ( uint16_t )irq & 0x00FF );
 3019              		.loc 1 715 5 is_stmt 1 view .LVU721
 3020              		.loc 1 715 12 is_stmt 0 view .LVU722
 3021 000a 8DF80500 		strb	r0, [sp, #5]
 716:Core/Src/radio/sx126x/sx126x.c ****     SX126xWriteCommand( RADIO_CLR_IRQSTATUS, buf, 2 );
 3022              		.loc 1 716 5 is_stmt 1 view .LVU723
 3023 000e 0222     		movs	r2, #2
 3024 0010 01A9     		add	r1, sp, #4
 3025 0012 1046     		mov	r0, r2
 3026              	.LVL199:
 3027              		.loc 1 716 5 is_stmt 0 view .LVU724
 3028 0014 FFF7FEFF 		bl	SX126xWriteCommand
 3029              	.LVL200:
 717:Core/Src/radio/sx126x/sx126x.c **** }
 3030              		.loc 1 717 1 view .LVU725
 3031 0018 03B0     		add	sp, sp, #12
 3032              	.LCFI125:
 3033              		.cfi_def_cfa_offset 4
 3034              		@ sp needed
 3035 001a 5DF804FB 		ldr	pc, [sp], #4
 3036              		.cfi_endproc
 3037              	.LFE181:
ARM GAS  C:\Users\andywei\AppData\Local\Temp\ccZfFIOd.s 			page 70


 3039              		.global	FrequencyError
 3040              		.section	.rodata
 3041              		.align	2
 3042              		.set	.LANCHOR3,. + 0
 3043              	.LC0:
 3044 0000 00000000 		.ascii	"\000\000\000\000\000\000\000\000"
 3044      00000000 
 3045              	.LC1:
 3046 0008 00000000 		.ascii	"\000\000\000\000\000\000\000\000\000"
 3046      00000000 
 3046      00
 3047              		.section	.bss.FrequencyError,"aw",%nobits
 3048              		.align	2
 3049              		.set	.LANCHOR4,. + 0
 3052              	FrequencyError:
 3053 0000 00000000 		.space	4
 3054              		.section	.bss.ImageCalibrated,"aw",%nobits
 3055              		.set	.LANCHOR1,. + 0
 3058              	ImageCalibrated:
 3059 0000 00       		.space	1
 3060              		.section	.bss.OperatingMode,"aw",%nobits
 3061              		.set	.LANCHOR0,. + 0
 3064              	OperatingMode:
 3065 0000 00       		.space	1
 3066              		.section	.bss.PacketType,"aw",%nobits
 3067              		.set	.LANCHOR2,. + 0
 3070              	PacketType:
 3071 0000 00       		.space	1
 3072              		.text
 3073              	.Letext0:
 3074              		.file 2 "c:\\program files (x86)\\gnu arm embedded toolchain\\10 2020-q4-major\\arm-none-eabi\\inc
 3075              		.file 3 "c:\\program files (x86)\\gnu arm embedded toolchain\\10 2020-q4-major\\arm-none-eabi\\inc
 3076              		.file 4 "Core/Src/radio/sx126x/sx126x.h"
 3077              		.file 5 "Core/Src/boards/NucleoL476/sx126x-board.h"
 3078              		.file 6 "Core/Src/system/delay.h"
ARM GAS  C:\Users\andywei\AppData\Local\Temp\ccZfFIOd.s 			page 71

